ARM GAS  /tmp/cc8GhZQL.s 			page 1


   1              		.cpu cortex-m4
   2              		.arch armv7e-m
   3              		.fpu fpv4-sp-d16
   4              		.eabi_attribute 27, 1
   5              		.eabi_attribute 28, 1
   6              		.eabi_attribute 20, 1
   7              		.eabi_attribute 21, 1
   8              		.eabi_attribute 23, 3
   9              		.eabi_attribute 24, 1
  10              		.eabi_attribute 25, 1
  11              		.eabi_attribute 26, 1
  12              		.eabi_attribute 30, 1
  13              		.eabi_attribute 34, 1
  14              		.eabi_attribute 18, 4
  15              		.file	"interrupt.c"
  16              		.text
  17              	.Ltext0:
  18              		.cfi_sections	.debug_frame
  19              		.section	.text.disable,"ax",%progbits
  20              		.align	1
  21              		.global	disable
  22              		.syntax unified
  23              		.thumb
  24              		.thumb_func
  26              	disable:
  27              	.LFB132:
  28              		.file 1 "Core/Src/interrupt.c"
   1:Core/Src/interrupt.c **** /* interrupt.c
   2:Core/Src/interrupt.c ****  * Description: 
   3:Core/Src/interrupt.c ****  *
   4:Core/Src/interrupt.c ****  * Author: Bryce Himebaugh 
   5:Core/Src/interrupt.c ****  * Contact: bhimebau@indiana.edu
   6:Core/Src/interrupt.c ****  * Date: 01.31.2022
   7:Core/Src/interrupt.c ****  * Copyright (C) 2022
   8:Core/Src/interrupt.c ****  *
   9:Core/Src/interrupt.c ****  */
  10:Core/Src/interrupt.c **** 
  11:Core/Src/interrupt.c **** #include "main.h"
  12:Core/Src/interrupt.c **** #include "interrupt.h"
  13:Core/Src/interrupt.c **** 
  14:Core/Src/interrupt.c **** uint32_t disable(void) {
  29              		.loc 1 14 24 view -0
  30              		.cfi_startproc
  31              		@ args = 0, pretend = 0, frame = 0
  32              		@ frame_needed = 0, uses_anonymous_args = 0
  33              		@ link register save eliminated.
  15:Core/Src/interrupt.c ****   int32_t priority_mask = 0;
  34              		.loc 1 15 3 view .LVU1
  35              	.LVL0:
  16:Core/Src/interrupt.c ****   priority_mask = __get_PRIMASK(); // Read the current state of the interrupt mask
  36              		.loc 1 16 3 view .LVU2
  37              	.LBB10:
  38              	.LBI10:
  39              		.file 2 "/home/barnecle/STM32Cube/Repository/STM32Cube_FW_L4_V1.17.1/Drivers/CMSIS/Include/cmsis_g
   1:/home/barnecle/STM32Cube/Repository/STM32Cube_FW_L4_V1.17.1/Drivers/CMSIS/Include/cmsis_gcc.h **** /**************************************************************************//**
   2:/home/barnecle/STM32Cube/Repository/STM32Cube_FW_L4_V1.17.1/Drivers/CMSIS/Include/cmsis_gcc.h ****  * @file     cmsis_gcc.h
   3:/home/barnecle/STM32Cube/Repository/STM32Cube_FW_L4_V1.17.1/Drivers/CMSIS/Include/cmsis_gcc.h ****  * @brief    CMSIS compiler GCC header file
ARM GAS  /tmp/cc8GhZQL.s 			page 2


   4:/home/barnecle/STM32Cube/Repository/STM32Cube_FW_L4_V1.17.1/Drivers/CMSIS/Include/cmsis_gcc.h ****  * @version  V5.2.0
   5:/home/barnecle/STM32Cube/Repository/STM32Cube_FW_L4_V1.17.1/Drivers/CMSIS/Include/cmsis_gcc.h ****  * @date     08. May 2019
   6:/home/barnecle/STM32Cube/Repository/STM32Cube_FW_L4_V1.17.1/Drivers/CMSIS/Include/cmsis_gcc.h ****  ******************************************************************************/
   7:/home/barnecle/STM32Cube/Repository/STM32Cube_FW_L4_V1.17.1/Drivers/CMSIS/Include/cmsis_gcc.h **** /*
   8:/home/barnecle/STM32Cube/Repository/STM32Cube_FW_L4_V1.17.1/Drivers/CMSIS/Include/cmsis_gcc.h ****  * Copyright (c) 2009-2019 Arm Limited. All rights reserved.
   9:/home/barnecle/STM32Cube/Repository/STM32Cube_FW_L4_V1.17.1/Drivers/CMSIS/Include/cmsis_gcc.h ****  *
  10:/home/barnecle/STM32Cube/Repository/STM32Cube_FW_L4_V1.17.1/Drivers/CMSIS/Include/cmsis_gcc.h ****  * SPDX-License-Identifier: Apache-2.0
  11:/home/barnecle/STM32Cube/Repository/STM32Cube_FW_L4_V1.17.1/Drivers/CMSIS/Include/cmsis_gcc.h ****  *
  12:/home/barnecle/STM32Cube/Repository/STM32Cube_FW_L4_V1.17.1/Drivers/CMSIS/Include/cmsis_gcc.h ****  * Licensed under the Apache License, Version 2.0 (the License); you may
  13:/home/barnecle/STM32Cube/Repository/STM32Cube_FW_L4_V1.17.1/Drivers/CMSIS/Include/cmsis_gcc.h ****  * not use this file except in compliance with the License.
  14:/home/barnecle/STM32Cube/Repository/STM32Cube_FW_L4_V1.17.1/Drivers/CMSIS/Include/cmsis_gcc.h ****  * You may obtain a copy of the License at
  15:/home/barnecle/STM32Cube/Repository/STM32Cube_FW_L4_V1.17.1/Drivers/CMSIS/Include/cmsis_gcc.h ****  *
  16:/home/barnecle/STM32Cube/Repository/STM32Cube_FW_L4_V1.17.1/Drivers/CMSIS/Include/cmsis_gcc.h ****  * www.apache.org/licenses/LICENSE-2.0
  17:/home/barnecle/STM32Cube/Repository/STM32Cube_FW_L4_V1.17.1/Drivers/CMSIS/Include/cmsis_gcc.h ****  *
  18:/home/barnecle/STM32Cube/Repository/STM32Cube_FW_L4_V1.17.1/Drivers/CMSIS/Include/cmsis_gcc.h ****  * Unless required by applicable law or agreed to in writing, software
  19:/home/barnecle/STM32Cube/Repository/STM32Cube_FW_L4_V1.17.1/Drivers/CMSIS/Include/cmsis_gcc.h ****  * distributed under the License is distributed on an AS IS BASIS, WITHOUT
  20:/home/barnecle/STM32Cube/Repository/STM32Cube_FW_L4_V1.17.1/Drivers/CMSIS/Include/cmsis_gcc.h ****  * WARRANTIES OR CONDITIONS OF ANY KIND, either express or implied.
  21:/home/barnecle/STM32Cube/Repository/STM32Cube_FW_L4_V1.17.1/Drivers/CMSIS/Include/cmsis_gcc.h ****  * See the License for the specific language governing permissions and
  22:/home/barnecle/STM32Cube/Repository/STM32Cube_FW_L4_V1.17.1/Drivers/CMSIS/Include/cmsis_gcc.h ****  * limitations under the License.
  23:/home/barnecle/STM32Cube/Repository/STM32Cube_FW_L4_V1.17.1/Drivers/CMSIS/Include/cmsis_gcc.h ****  */
  24:/home/barnecle/STM32Cube/Repository/STM32Cube_FW_L4_V1.17.1/Drivers/CMSIS/Include/cmsis_gcc.h **** 
  25:/home/barnecle/STM32Cube/Repository/STM32Cube_FW_L4_V1.17.1/Drivers/CMSIS/Include/cmsis_gcc.h **** #ifndef __CMSIS_GCC_H
  26:/home/barnecle/STM32Cube/Repository/STM32Cube_FW_L4_V1.17.1/Drivers/CMSIS/Include/cmsis_gcc.h **** #define __CMSIS_GCC_H
  27:/home/barnecle/STM32Cube/Repository/STM32Cube_FW_L4_V1.17.1/Drivers/CMSIS/Include/cmsis_gcc.h **** 
  28:/home/barnecle/STM32Cube/Repository/STM32Cube_FW_L4_V1.17.1/Drivers/CMSIS/Include/cmsis_gcc.h **** /* ignore some GCC warnings */
  29:/home/barnecle/STM32Cube/Repository/STM32Cube_FW_L4_V1.17.1/Drivers/CMSIS/Include/cmsis_gcc.h **** #pragma GCC diagnostic push
  30:/home/barnecle/STM32Cube/Repository/STM32Cube_FW_L4_V1.17.1/Drivers/CMSIS/Include/cmsis_gcc.h **** #pragma GCC diagnostic ignored "-Wsign-conversion"
  31:/home/barnecle/STM32Cube/Repository/STM32Cube_FW_L4_V1.17.1/Drivers/CMSIS/Include/cmsis_gcc.h **** #pragma GCC diagnostic ignored "-Wconversion"
  32:/home/barnecle/STM32Cube/Repository/STM32Cube_FW_L4_V1.17.1/Drivers/CMSIS/Include/cmsis_gcc.h **** #pragma GCC diagnostic ignored "-Wunused-parameter"
  33:/home/barnecle/STM32Cube/Repository/STM32Cube_FW_L4_V1.17.1/Drivers/CMSIS/Include/cmsis_gcc.h **** 
  34:/home/barnecle/STM32Cube/Repository/STM32Cube_FW_L4_V1.17.1/Drivers/CMSIS/Include/cmsis_gcc.h **** /* Fallback for __has_builtin */
  35:/home/barnecle/STM32Cube/Repository/STM32Cube_FW_L4_V1.17.1/Drivers/CMSIS/Include/cmsis_gcc.h **** #ifndef __has_builtin
  36:/home/barnecle/STM32Cube/Repository/STM32Cube_FW_L4_V1.17.1/Drivers/CMSIS/Include/cmsis_gcc.h ****   #define __has_builtin(x) (0)
  37:/home/barnecle/STM32Cube/Repository/STM32Cube_FW_L4_V1.17.1/Drivers/CMSIS/Include/cmsis_gcc.h **** #endif
  38:/home/barnecle/STM32Cube/Repository/STM32Cube_FW_L4_V1.17.1/Drivers/CMSIS/Include/cmsis_gcc.h **** 
  39:/home/barnecle/STM32Cube/Repository/STM32Cube_FW_L4_V1.17.1/Drivers/CMSIS/Include/cmsis_gcc.h **** /* CMSIS compiler specific defines */
  40:/home/barnecle/STM32Cube/Repository/STM32Cube_FW_L4_V1.17.1/Drivers/CMSIS/Include/cmsis_gcc.h **** #ifndef   __ASM
  41:/home/barnecle/STM32Cube/Repository/STM32Cube_FW_L4_V1.17.1/Drivers/CMSIS/Include/cmsis_gcc.h ****   #define __ASM                                  __asm
  42:/home/barnecle/STM32Cube/Repository/STM32Cube_FW_L4_V1.17.1/Drivers/CMSIS/Include/cmsis_gcc.h **** #endif
  43:/home/barnecle/STM32Cube/Repository/STM32Cube_FW_L4_V1.17.1/Drivers/CMSIS/Include/cmsis_gcc.h **** #ifndef   __INLINE
  44:/home/barnecle/STM32Cube/Repository/STM32Cube_FW_L4_V1.17.1/Drivers/CMSIS/Include/cmsis_gcc.h ****   #define __INLINE                               inline
  45:/home/barnecle/STM32Cube/Repository/STM32Cube_FW_L4_V1.17.1/Drivers/CMSIS/Include/cmsis_gcc.h **** #endif
  46:/home/barnecle/STM32Cube/Repository/STM32Cube_FW_L4_V1.17.1/Drivers/CMSIS/Include/cmsis_gcc.h **** #ifndef   __STATIC_INLINE
  47:/home/barnecle/STM32Cube/Repository/STM32Cube_FW_L4_V1.17.1/Drivers/CMSIS/Include/cmsis_gcc.h ****   #define __STATIC_INLINE                        static inline
  48:/home/barnecle/STM32Cube/Repository/STM32Cube_FW_L4_V1.17.1/Drivers/CMSIS/Include/cmsis_gcc.h **** #endif
  49:/home/barnecle/STM32Cube/Repository/STM32Cube_FW_L4_V1.17.1/Drivers/CMSIS/Include/cmsis_gcc.h **** #ifndef   __STATIC_FORCEINLINE                 
  50:/home/barnecle/STM32Cube/Repository/STM32Cube_FW_L4_V1.17.1/Drivers/CMSIS/Include/cmsis_gcc.h ****   #define __STATIC_FORCEINLINE                   __attribute__((always_inline)) static inline
  51:/home/barnecle/STM32Cube/Repository/STM32Cube_FW_L4_V1.17.1/Drivers/CMSIS/Include/cmsis_gcc.h **** #endif                                           
  52:/home/barnecle/STM32Cube/Repository/STM32Cube_FW_L4_V1.17.1/Drivers/CMSIS/Include/cmsis_gcc.h **** #ifndef   __NO_RETURN
  53:/home/barnecle/STM32Cube/Repository/STM32Cube_FW_L4_V1.17.1/Drivers/CMSIS/Include/cmsis_gcc.h ****   #define __NO_RETURN                            __attribute__((__noreturn__))
  54:/home/barnecle/STM32Cube/Repository/STM32Cube_FW_L4_V1.17.1/Drivers/CMSIS/Include/cmsis_gcc.h **** #endif
  55:/home/barnecle/STM32Cube/Repository/STM32Cube_FW_L4_V1.17.1/Drivers/CMSIS/Include/cmsis_gcc.h **** #ifndef   __USED
  56:/home/barnecle/STM32Cube/Repository/STM32Cube_FW_L4_V1.17.1/Drivers/CMSIS/Include/cmsis_gcc.h ****   #define __USED                                 __attribute__((used))
  57:/home/barnecle/STM32Cube/Repository/STM32Cube_FW_L4_V1.17.1/Drivers/CMSIS/Include/cmsis_gcc.h **** #endif
  58:/home/barnecle/STM32Cube/Repository/STM32Cube_FW_L4_V1.17.1/Drivers/CMSIS/Include/cmsis_gcc.h **** #ifndef   __WEAK
  59:/home/barnecle/STM32Cube/Repository/STM32Cube_FW_L4_V1.17.1/Drivers/CMSIS/Include/cmsis_gcc.h ****   #define __WEAK                                 __attribute__((weak))
  60:/home/barnecle/STM32Cube/Repository/STM32Cube_FW_L4_V1.17.1/Drivers/CMSIS/Include/cmsis_gcc.h **** #endif
ARM GAS  /tmp/cc8GhZQL.s 			page 3


  61:/home/barnecle/STM32Cube/Repository/STM32Cube_FW_L4_V1.17.1/Drivers/CMSIS/Include/cmsis_gcc.h **** #ifndef   __PACKED
  62:/home/barnecle/STM32Cube/Repository/STM32Cube_FW_L4_V1.17.1/Drivers/CMSIS/Include/cmsis_gcc.h ****   #define __PACKED                               __attribute__((packed, aligned(1)))
  63:/home/barnecle/STM32Cube/Repository/STM32Cube_FW_L4_V1.17.1/Drivers/CMSIS/Include/cmsis_gcc.h **** #endif
  64:/home/barnecle/STM32Cube/Repository/STM32Cube_FW_L4_V1.17.1/Drivers/CMSIS/Include/cmsis_gcc.h **** #ifndef   __PACKED_STRUCT
  65:/home/barnecle/STM32Cube/Repository/STM32Cube_FW_L4_V1.17.1/Drivers/CMSIS/Include/cmsis_gcc.h ****   #define __PACKED_STRUCT                        struct __attribute__((packed, aligned(1)))
  66:/home/barnecle/STM32Cube/Repository/STM32Cube_FW_L4_V1.17.1/Drivers/CMSIS/Include/cmsis_gcc.h **** #endif
  67:/home/barnecle/STM32Cube/Repository/STM32Cube_FW_L4_V1.17.1/Drivers/CMSIS/Include/cmsis_gcc.h **** #ifndef   __PACKED_UNION
  68:/home/barnecle/STM32Cube/Repository/STM32Cube_FW_L4_V1.17.1/Drivers/CMSIS/Include/cmsis_gcc.h ****   #define __PACKED_UNION                         union __attribute__((packed, aligned(1)))
  69:/home/barnecle/STM32Cube/Repository/STM32Cube_FW_L4_V1.17.1/Drivers/CMSIS/Include/cmsis_gcc.h **** #endif
  70:/home/barnecle/STM32Cube/Repository/STM32Cube_FW_L4_V1.17.1/Drivers/CMSIS/Include/cmsis_gcc.h **** #ifndef   __UNALIGNED_UINT32        /* deprecated */
  71:/home/barnecle/STM32Cube/Repository/STM32Cube_FW_L4_V1.17.1/Drivers/CMSIS/Include/cmsis_gcc.h ****   #pragma GCC diagnostic push
  72:/home/barnecle/STM32Cube/Repository/STM32Cube_FW_L4_V1.17.1/Drivers/CMSIS/Include/cmsis_gcc.h ****   #pragma GCC diagnostic ignored "-Wpacked"
  73:/home/barnecle/STM32Cube/Repository/STM32Cube_FW_L4_V1.17.1/Drivers/CMSIS/Include/cmsis_gcc.h ****   #pragma GCC diagnostic ignored "-Wattributes"
  74:/home/barnecle/STM32Cube/Repository/STM32Cube_FW_L4_V1.17.1/Drivers/CMSIS/Include/cmsis_gcc.h ****   struct __attribute__((packed)) T_UINT32 { uint32_t v; };
  75:/home/barnecle/STM32Cube/Repository/STM32Cube_FW_L4_V1.17.1/Drivers/CMSIS/Include/cmsis_gcc.h ****   #pragma GCC diagnostic pop
  76:/home/barnecle/STM32Cube/Repository/STM32Cube_FW_L4_V1.17.1/Drivers/CMSIS/Include/cmsis_gcc.h ****   #define __UNALIGNED_UINT32(x)                  (((struct T_UINT32 *)(x))->v)
  77:/home/barnecle/STM32Cube/Repository/STM32Cube_FW_L4_V1.17.1/Drivers/CMSIS/Include/cmsis_gcc.h **** #endif
  78:/home/barnecle/STM32Cube/Repository/STM32Cube_FW_L4_V1.17.1/Drivers/CMSIS/Include/cmsis_gcc.h **** #ifndef   __UNALIGNED_UINT16_WRITE
  79:/home/barnecle/STM32Cube/Repository/STM32Cube_FW_L4_V1.17.1/Drivers/CMSIS/Include/cmsis_gcc.h ****   #pragma GCC diagnostic push
  80:/home/barnecle/STM32Cube/Repository/STM32Cube_FW_L4_V1.17.1/Drivers/CMSIS/Include/cmsis_gcc.h ****   #pragma GCC diagnostic ignored "-Wpacked"
  81:/home/barnecle/STM32Cube/Repository/STM32Cube_FW_L4_V1.17.1/Drivers/CMSIS/Include/cmsis_gcc.h ****   #pragma GCC diagnostic ignored "-Wattributes"
  82:/home/barnecle/STM32Cube/Repository/STM32Cube_FW_L4_V1.17.1/Drivers/CMSIS/Include/cmsis_gcc.h ****   __PACKED_STRUCT T_UINT16_WRITE { uint16_t v; };
  83:/home/barnecle/STM32Cube/Repository/STM32Cube_FW_L4_V1.17.1/Drivers/CMSIS/Include/cmsis_gcc.h ****   #pragma GCC diagnostic pop
  84:/home/barnecle/STM32Cube/Repository/STM32Cube_FW_L4_V1.17.1/Drivers/CMSIS/Include/cmsis_gcc.h ****   #define __UNALIGNED_UINT16_WRITE(addr, val)    (void)((((struct T_UINT16_WRITE *)(void *)(addr))-
  85:/home/barnecle/STM32Cube/Repository/STM32Cube_FW_L4_V1.17.1/Drivers/CMSIS/Include/cmsis_gcc.h **** #endif
  86:/home/barnecle/STM32Cube/Repository/STM32Cube_FW_L4_V1.17.1/Drivers/CMSIS/Include/cmsis_gcc.h **** #ifndef   __UNALIGNED_UINT16_READ
  87:/home/barnecle/STM32Cube/Repository/STM32Cube_FW_L4_V1.17.1/Drivers/CMSIS/Include/cmsis_gcc.h ****   #pragma GCC diagnostic push
  88:/home/barnecle/STM32Cube/Repository/STM32Cube_FW_L4_V1.17.1/Drivers/CMSIS/Include/cmsis_gcc.h ****   #pragma GCC diagnostic ignored "-Wpacked"
  89:/home/barnecle/STM32Cube/Repository/STM32Cube_FW_L4_V1.17.1/Drivers/CMSIS/Include/cmsis_gcc.h ****   #pragma GCC diagnostic ignored "-Wattributes"
  90:/home/barnecle/STM32Cube/Repository/STM32Cube_FW_L4_V1.17.1/Drivers/CMSIS/Include/cmsis_gcc.h ****   __PACKED_STRUCT T_UINT16_READ { uint16_t v; };
  91:/home/barnecle/STM32Cube/Repository/STM32Cube_FW_L4_V1.17.1/Drivers/CMSIS/Include/cmsis_gcc.h ****   #pragma GCC diagnostic pop
  92:/home/barnecle/STM32Cube/Repository/STM32Cube_FW_L4_V1.17.1/Drivers/CMSIS/Include/cmsis_gcc.h ****   #define __UNALIGNED_UINT16_READ(addr)          (((const struct T_UINT16_READ *)(const void *)(add
  93:/home/barnecle/STM32Cube/Repository/STM32Cube_FW_L4_V1.17.1/Drivers/CMSIS/Include/cmsis_gcc.h **** #endif
  94:/home/barnecle/STM32Cube/Repository/STM32Cube_FW_L4_V1.17.1/Drivers/CMSIS/Include/cmsis_gcc.h **** #ifndef   __UNALIGNED_UINT32_WRITE
  95:/home/barnecle/STM32Cube/Repository/STM32Cube_FW_L4_V1.17.1/Drivers/CMSIS/Include/cmsis_gcc.h ****   #pragma GCC diagnostic push
  96:/home/barnecle/STM32Cube/Repository/STM32Cube_FW_L4_V1.17.1/Drivers/CMSIS/Include/cmsis_gcc.h ****   #pragma GCC diagnostic ignored "-Wpacked"
  97:/home/barnecle/STM32Cube/Repository/STM32Cube_FW_L4_V1.17.1/Drivers/CMSIS/Include/cmsis_gcc.h ****   #pragma GCC diagnostic ignored "-Wattributes"
  98:/home/barnecle/STM32Cube/Repository/STM32Cube_FW_L4_V1.17.1/Drivers/CMSIS/Include/cmsis_gcc.h ****   __PACKED_STRUCT T_UINT32_WRITE { uint32_t v; };
  99:/home/barnecle/STM32Cube/Repository/STM32Cube_FW_L4_V1.17.1/Drivers/CMSIS/Include/cmsis_gcc.h ****   #pragma GCC diagnostic pop
 100:/home/barnecle/STM32Cube/Repository/STM32Cube_FW_L4_V1.17.1/Drivers/CMSIS/Include/cmsis_gcc.h ****   #define __UNALIGNED_UINT32_WRITE(addr, val)    (void)((((struct T_UINT32_WRITE *)(void *)(addr))-
 101:/home/barnecle/STM32Cube/Repository/STM32Cube_FW_L4_V1.17.1/Drivers/CMSIS/Include/cmsis_gcc.h **** #endif
 102:/home/barnecle/STM32Cube/Repository/STM32Cube_FW_L4_V1.17.1/Drivers/CMSIS/Include/cmsis_gcc.h **** #ifndef   __UNALIGNED_UINT32_READ
 103:/home/barnecle/STM32Cube/Repository/STM32Cube_FW_L4_V1.17.1/Drivers/CMSIS/Include/cmsis_gcc.h ****   #pragma GCC diagnostic push
 104:/home/barnecle/STM32Cube/Repository/STM32Cube_FW_L4_V1.17.1/Drivers/CMSIS/Include/cmsis_gcc.h ****   #pragma GCC diagnostic ignored "-Wpacked"
 105:/home/barnecle/STM32Cube/Repository/STM32Cube_FW_L4_V1.17.1/Drivers/CMSIS/Include/cmsis_gcc.h ****   #pragma GCC diagnostic ignored "-Wattributes"
 106:/home/barnecle/STM32Cube/Repository/STM32Cube_FW_L4_V1.17.1/Drivers/CMSIS/Include/cmsis_gcc.h ****   __PACKED_STRUCT T_UINT32_READ { uint32_t v; };
 107:/home/barnecle/STM32Cube/Repository/STM32Cube_FW_L4_V1.17.1/Drivers/CMSIS/Include/cmsis_gcc.h ****   #pragma GCC diagnostic pop
 108:/home/barnecle/STM32Cube/Repository/STM32Cube_FW_L4_V1.17.1/Drivers/CMSIS/Include/cmsis_gcc.h ****   #define __UNALIGNED_UINT32_READ(addr)          (((const struct T_UINT32_READ *)(const void *)(add
 109:/home/barnecle/STM32Cube/Repository/STM32Cube_FW_L4_V1.17.1/Drivers/CMSIS/Include/cmsis_gcc.h **** #endif
 110:/home/barnecle/STM32Cube/Repository/STM32Cube_FW_L4_V1.17.1/Drivers/CMSIS/Include/cmsis_gcc.h **** #ifndef   __ALIGNED
 111:/home/barnecle/STM32Cube/Repository/STM32Cube_FW_L4_V1.17.1/Drivers/CMSIS/Include/cmsis_gcc.h ****   #define __ALIGNED(x)                           __attribute__((aligned(x)))
 112:/home/barnecle/STM32Cube/Repository/STM32Cube_FW_L4_V1.17.1/Drivers/CMSIS/Include/cmsis_gcc.h **** #endif
 113:/home/barnecle/STM32Cube/Repository/STM32Cube_FW_L4_V1.17.1/Drivers/CMSIS/Include/cmsis_gcc.h **** #ifndef   __RESTRICT
 114:/home/barnecle/STM32Cube/Repository/STM32Cube_FW_L4_V1.17.1/Drivers/CMSIS/Include/cmsis_gcc.h ****   #define __RESTRICT                             __restrict
 115:/home/barnecle/STM32Cube/Repository/STM32Cube_FW_L4_V1.17.1/Drivers/CMSIS/Include/cmsis_gcc.h **** #endif
 116:/home/barnecle/STM32Cube/Repository/STM32Cube_FW_L4_V1.17.1/Drivers/CMSIS/Include/cmsis_gcc.h **** #ifndef   __COMPILER_BARRIER
 117:/home/barnecle/STM32Cube/Repository/STM32Cube_FW_L4_V1.17.1/Drivers/CMSIS/Include/cmsis_gcc.h ****   #define __COMPILER_BARRIER()                   __ASM volatile("":::"memory")
ARM GAS  /tmp/cc8GhZQL.s 			page 4


 118:/home/barnecle/STM32Cube/Repository/STM32Cube_FW_L4_V1.17.1/Drivers/CMSIS/Include/cmsis_gcc.h **** #endif
 119:/home/barnecle/STM32Cube/Repository/STM32Cube_FW_L4_V1.17.1/Drivers/CMSIS/Include/cmsis_gcc.h **** 
 120:/home/barnecle/STM32Cube/Repository/STM32Cube_FW_L4_V1.17.1/Drivers/CMSIS/Include/cmsis_gcc.h **** /* #########################  Startup and Lowlevel Init  ######################## */
 121:/home/barnecle/STM32Cube/Repository/STM32Cube_FW_L4_V1.17.1/Drivers/CMSIS/Include/cmsis_gcc.h **** 
 122:/home/barnecle/STM32Cube/Repository/STM32Cube_FW_L4_V1.17.1/Drivers/CMSIS/Include/cmsis_gcc.h **** #ifndef __PROGRAM_START
 123:/home/barnecle/STM32Cube/Repository/STM32Cube_FW_L4_V1.17.1/Drivers/CMSIS/Include/cmsis_gcc.h **** 
 124:/home/barnecle/STM32Cube/Repository/STM32Cube_FW_L4_V1.17.1/Drivers/CMSIS/Include/cmsis_gcc.h **** /**
 125:/home/barnecle/STM32Cube/Repository/STM32Cube_FW_L4_V1.17.1/Drivers/CMSIS/Include/cmsis_gcc.h ****   \brief   Initializes data and bss sections
 126:/home/barnecle/STM32Cube/Repository/STM32Cube_FW_L4_V1.17.1/Drivers/CMSIS/Include/cmsis_gcc.h ****   \details This default implementations initialized all data and additional bss
 127:/home/barnecle/STM32Cube/Repository/STM32Cube_FW_L4_V1.17.1/Drivers/CMSIS/Include/cmsis_gcc.h ****            sections relying on .copy.table and .zero.table specified properly
 128:/home/barnecle/STM32Cube/Repository/STM32Cube_FW_L4_V1.17.1/Drivers/CMSIS/Include/cmsis_gcc.h ****            in the used linker script.
 129:/home/barnecle/STM32Cube/Repository/STM32Cube_FW_L4_V1.17.1/Drivers/CMSIS/Include/cmsis_gcc.h ****   
 130:/home/barnecle/STM32Cube/Repository/STM32Cube_FW_L4_V1.17.1/Drivers/CMSIS/Include/cmsis_gcc.h ****  */
 131:/home/barnecle/STM32Cube/Repository/STM32Cube_FW_L4_V1.17.1/Drivers/CMSIS/Include/cmsis_gcc.h **** __STATIC_FORCEINLINE __NO_RETURN void __cmsis_start(void)
 132:/home/barnecle/STM32Cube/Repository/STM32Cube_FW_L4_V1.17.1/Drivers/CMSIS/Include/cmsis_gcc.h **** {
 133:/home/barnecle/STM32Cube/Repository/STM32Cube_FW_L4_V1.17.1/Drivers/CMSIS/Include/cmsis_gcc.h ****   extern void _start(void) __NO_RETURN;
 134:/home/barnecle/STM32Cube/Repository/STM32Cube_FW_L4_V1.17.1/Drivers/CMSIS/Include/cmsis_gcc.h ****   
 135:/home/barnecle/STM32Cube/Repository/STM32Cube_FW_L4_V1.17.1/Drivers/CMSIS/Include/cmsis_gcc.h ****   typedef struct {
 136:/home/barnecle/STM32Cube/Repository/STM32Cube_FW_L4_V1.17.1/Drivers/CMSIS/Include/cmsis_gcc.h ****     uint32_t const* src;
 137:/home/barnecle/STM32Cube/Repository/STM32Cube_FW_L4_V1.17.1/Drivers/CMSIS/Include/cmsis_gcc.h ****     uint32_t* dest;
 138:/home/barnecle/STM32Cube/Repository/STM32Cube_FW_L4_V1.17.1/Drivers/CMSIS/Include/cmsis_gcc.h ****     uint32_t  wlen;
 139:/home/barnecle/STM32Cube/Repository/STM32Cube_FW_L4_V1.17.1/Drivers/CMSIS/Include/cmsis_gcc.h ****   } __copy_table_t;
 140:/home/barnecle/STM32Cube/Repository/STM32Cube_FW_L4_V1.17.1/Drivers/CMSIS/Include/cmsis_gcc.h ****   
 141:/home/barnecle/STM32Cube/Repository/STM32Cube_FW_L4_V1.17.1/Drivers/CMSIS/Include/cmsis_gcc.h ****   typedef struct {
 142:/home/barnecle/STM32Cube/Repository/STM32Cube_FW_L4_V1.17.1/Drivers/CMSIS/Include/cmsis_gcc.h ****     uint32_t* dest;
 143:/home/barnecle/STM32Cube/Repository/STM32Cube_FW_L4_V1.17.1/Drivers/CMSIS/Include/cmsis_gcc.h ****     uint32_t  wlen;
 144:/home/barnecle/STM32Cube/Repository/STM32Cube_FW_L4_V1.17.1/Drivers/CMSIS/Include/cmsis_gcc.h ****   } __zero_table_t;
 145:/home/barnecle/STM32Cube/Repository/STM32Cube_FW_L4_V1.17.1/Drivers/CMSIS/Include/cmsis_gcc.h ****   
 146:/home/barnecle/STM32Cube/Repository/STM32Cube_FW_L4_V1.17.1/Drivers/CMSIS/Include/cmsis_gcc.h ****   extern const __copy_table_t __copy_table_start__;
 147:/home/barnecle/STM32Cube/Repository/STM32Cube_FW_L4_V1.17.1/Drivers/CMSIS/Include/cmsis_gcc.h ****   extern const __copy_table_t __copy_table_end__;
 148:/home/barnecle/STM32Cube/Repository/STM32Cube_FW_L4_V1.17.1/Drivers/CMSIS/Include/cmsis_gcc.h ****   extern const __zero_table_t __zero_table_start__;
 149:/home/barnecle/STM32Cube/Repository/STM32Cube_FW_L4_V1.17.1/Drivers/CMSIS/Include/cmsis_gcc.h ****   extern const __zero_table_t __zero_table_end__;
 150:/home/barnecle/STM32Cube/Repository/STM32Cube_FW_L4_V1.17.1/Drivers/CMSIS/Include/cmsis_gcc.h **** 
 151:/home/barnecle/STM32Cube/Repository/STM32Cube_FW_L4_V1.17.1/Drivers/CMSIS/Include/cmsis_gcc.h ****   for (__copy_table_t const* pTable = &__copy_table_start__; pTable < &__copy_table_end__; ++pTable
 152:/home/barnecle/STM32Cube/Repository/STM32Cube_FW_L4_V1.17.1/Drivers/CMSIS/Include/cmsis_gcc.h ****     for(uint32_t i=0u; i<pTable->wlen; ++i) {
 153:/home/barnecle/STM32Cube/Repository/STM32Cube_FW_L4_V1.17.1/Drivers/CMSIS/Include/cmsis_gcc.h ****       pTable->dest[i] = pTable->src[i];
 154:/home/barnecle/STM32Cube/Repository/STM32Cube_FW_L4_V1.17.1/Drivers/CMSIS/Include/cmsis_gcc.h ****     }
 155:/home/barnecle/STM32Cube/Repository/STM32Cube_FW_L4_V1.17.1/Drivers/CMSIS/Include/cmsis_gcc.h ****   }
 156:/home/barnecle/STM32Cube/Repository/STM32Cube_FW_L4_V1.17.1/Drivers/CMSIS/Include/cmsis_gcc.h ****  
 157:/home/barnecle/STM32Cube/Repository/STM32Cube_FW_L4_V1.17.1/Drivers/CMSIS/Include/cmsis_gcc.h ****   for (__zero_table_t const* pTable = &__zero_table_start__; pTable < &__zero_table_end__; ++pTable
 158:/home/barnecle/STM32Cube/Repository/STM32Cube_FW_L4_V1.17.1/Drivers/CMSIS/Include/cmsis_gcc.h ****     for(uint32_t i=0u; i<pTable->wlen; ++i) {
 159:/home/barnecle/STM32Cube/Repository/STM32Cube_FW_L4_V1.17.1/Drivers/CMSIS/Include/cmsis_gcc.h ****       pTable->dest[i] = 0u;
 160:/home/barnecle/STM32Cube/Repository/STM32Cube_FW_L4_V1.17.1/Drivers/CMSIS/Include/cmsis_gcc.h ****     }
 161:/home/barnecle/STM32Cube/Repository/STM32Cube_FW_L4_V1.17.1/Drivers/CMSIS/Include/cmsis_gcc.h ****   }
 162:/home/barnecle/STM32Cube/Repository/STM32Cube_FW_L4_V1.17.1/Drivers/CMSIS/Include/cmsis_gcc.h ****  
 163:/home/barnecle/STM32Cube/Repository/STM32Cube_FW_L4_V1.17.1/Drivers/CMSIS/Include/cmsis_gcc.h ****   _start();
 164:/home/barnecle/STM32Cube/Repository/STM32Cube_FW_L4_V1.17.1/Drivers/CMSIS/Include/cmsis_gcc.h **** }
 165:/home/barnecle/STM32Cube/Repository/STM32Cube_FW_L4_V1.17.1/Drivers/CMSIS/Include/cmsis_gcc.h ****   
 166:/home/barnecle/STM32Cube/Repository/STM32Cube_FW_L4_V1.17.1/Drivers/CMSIS/Include/cmsis_gcc.h **** #define __PROGRAM_START           __cmsis_start
 167:/home/barnecle/STM32Cube/Repository/STM32Cube_FW_L4_V1.17.1/Drivers/CMSIS/Include/cmsis_gcc.h **** #endif
 168:/home/barnecle/STM32Cube/Repository/STM32Cube_FW_L4_V1.17.1/Drivers/CMSIS/Include/cmsis_gcc.h **** 
 169:/home/barnecle/STM32Cube/Repository/STM32Cube_FW_L4_V1.17.1/Drivers/CMSIS/Include/cmsis_gcc.h **** #ifndef __INITIAL_SP
 170:/home/barnecle/STM32Cube/Repository/STM32Cube_FW_L4_V1.17.1/Drivers/CMSIS/Include/cmsis_gcc.h **** #define __INITIAL_SP              __StackTop
 171:/home/barnecle/STM32Cube/Repository/STM32Cube_FW_L4_V1.17.1/Drivers/CMSIS/Include/cmsis_gcc.h **** #endif
 172:/home/barnecle/STM32Cube/Repository/STM32Cube_FW_L4_V1.17.1/Drivers/CMSIS/Include/cmsis_gcc.h **** 
 173:/home/barnecle/STM32Cube/Repository/STM32Cube_FW_L4_V1.17.1/Drivers/CMSIS/Include/cmsis_gcc.h **** #ifndef __STACK_LIMIT
 174:/home/barnecle/STM32Cube/Repository/STM32Cube_FW_L4_V1.17.1/Drivers/CMSIS/Include/cmsis_gcc.h **** #define __STACK_LIMIT             __StackLimit
ARM GAS  /tmp/cc8GhZQL.s 			page 5


 175:/home/barnecle/STM32Cube/Repository/STM32Cube_FW_L4_V1.17.1/Drivers/CMSIS/Include/cmsis_gcc.h **** #endif
 176:/home/barnecle/STM32Cube/Repository/STM32Cube_FW_L4_V1.17.1/Drivers/CMSIS/Include/cmsis_gcc.h **** 
 177:/home/barnecle/STM32Cube/Repository/STM32Cube_FW_L4_V1.17.1/Drivers/CMSIS/Include/cmsis_gcc.h **** #ifndef __VECTOR_TABLE
 178:/home/barnecle/STM32Cube/Repository/STM32Cube_FW_L4_V1.17.1/Drivers/CMSIS/Include/cmsis_gcc.h **** #define __VECTOR_TABLE            __Vectors
 179:/home/barnecle/STM32Cube/Repository/STM32Cube_FW_L4_V1.17.1/Drivers/CMSIS/Include/cmsis_gcc.h **** #endif
 180:/home/barnecle/STM32Cube/Repository/STM32Cube_FW_L4_V1.17.1/Drivers/CMSIS/Include/cmsis_gcc.h **** 
 181:/home/barnecle/STM32Cube/Repository/STM32Cube_FW_L4_V1.17.1/Drivers/CMSIS/Include/cmsis_gcc.h **** #ifndef __VECTOR_TABLE_ATTRIBUTE
 182:/home/barnecle/STM32Cube/Repository/STM32Cube_FW_L4_V1.17.1/Drivers/CMSIS/Include/cmsis_gcc.h **** #define __VECTOR_TABLE_ATTRIBUTE  __attribute((used, section(".vectors")))
 183:/home/barnecle/STM32Cube/Repository/STM32Cube_FW_L4_V1.17.1/Drivers/CMSIS/Include/cmsis_gcc.h **** #endif
 184:/home/barnecle/STM32Cube/Repository/STM32Cube_FW_L4_V1.17.1/Drivers/CMSIS/Include/cmsis_gcc.h **** 
 185:/home/barnecle/STM32Cube/Repository/STM32Cube_FW_L4_V1.17.1/Drivers/CMSIS/Include/cmsis_gcc.h **** /* ###########################  Core Function Access  ########################### */
 186:/home/barnecle/STM32Cube/Repository/STM32Cube_FW_L4_V1.17.1/Drivers/CMSIS/Include/cmsis_gcc.h **** /** \ingroup  CMSIS_Core_FunctionInterface
 187:/home/barnecle/STM32Cube/Repository/STM32Cube_FW_L4_V1.17.1/Drivers/CMSIS/Include/cmsis_gcc.h ****     \defgroup CMSIS_Core_RegAccFunctions CMSIS Core Register Access Functions
 188:/home/barnecle/STM32Cube/Repository/STM32Cube_FW_L4_V1.17.1/Drivers/CMSIS/Include/cmsis_gcc.h ****   @{
 189:/home/barnecle/STM32Cube/Repository/STM32Cube_FW_L4_V1.17.1/Drivers/CMSIS/Include/cmsis_gcc.h ****  */
 190:/home/barnecle/STM32Cube/Repository/STM32Cube_FW_L4_V1.17.1/Drivers/CMSIS/Include/cmsis_gcc.h **** 
 191:/home/barnecle/STM32Cube/Repository/STM32Cube_FW_L4_V1.17.1/Drivers/CMSIS/Include/cmsis_gcc.h **** /**
 192:/home/barnecle/STM32Cube/Repository/STM32Cube_FW_L4_V1.17.1/Drivers/CMSIS/Include/cmsis_gcc.h ****   \brief   Enable IRQ Interrupts
 193:/home/barnecle/STM32Cube/Repository/STM32Cube_FW_L4_V1.17.1/Drivers/CMSIS/Include/cmsis_gcc.h ****   \details Enables IRQ interrupts by clearing the I-bit in the CPSR.
 194:/home/barnecle/STM32Cube/Repository/STM32Cube_FW_L4_V1.17.1/Drivers/CMSIS/Include/cmsis_gcc.h ****            Can only be executed in Privileged modes.
 195:/home/barnecle/STM32Cube/Repository/STM32Cube_FW_L4_V1.17.1/Drivers/CMSIS/Include/cmsis_gcc.h ****  */
 196:/home/barnecle/STM32Cube/Repository/STM32Cube_FW_L4_V1.17.1/Drivers/CMSIS/Include/cmsis_gcc.h **** __STATIC_FORCEINLINE void __enable_irq(void)
 197:/home/barnecle/STM32Cube/Repository/STM32Cube_FW_L4_V1.17.1/Drivers/CMSIS/Include/cmsis_gcc.h **** {
 198:/home/barnecle/STM32Cube/Repository/STM32Cube_FW_L4_V1.17.1/Drivers/CMSIS/Include/cmsis_gcc.h ****   __ASM volatile ("cpsie i" : : : "memory");
 199:/home/barnecle/STM32Cube/Repository/STM32Cube_FW_L4_V1.17.1/Drivers/CMSIS/Include/cmsis_gcc.h **** }
 200:/home/barnecle/STM32Cube/Repository/STM32Cube_FW_L4_V1.17.1/Drivers/CMSIS/Include/cmsis_gcc.h **** 
 201:/home/barnecle/STM32Cube/Repository/STM32Cube_FW_L4_V1.17.1/Drivers/CMSIS/Include/cmsis_gcc.h **** 
 202:/home/barnecle/STM32Cube/Repository/STM32Cube_FW_L4_V1.17.1/Drivers/CMSIS/Include/cmsis_gcc.h **** /**
 203:/home/barnecle/STM32Cube/Repository/STM32Cube_FW_L4_V1.17.1/Drivers/CMSIS/Include/cmsis_gcc.h ****   \brief   Disable IRQ Interrupts
 204:/home/barnecle/STM32Cube/Repository/STM32Cube_FW_L4_V1.17.1/Drivers/CMSIS/Include/cmsis_gcc.h ****   \details Disables IRQ interrupts by setting the I-bit in the CPSR.
 205:/home/barnecle/STM32Cube/Repository/STM32Cube_FW_L4_V1.17.1/Drivers/CMSIS/Include/cmsis_gcc.h ****            Can only be executed in Privileged modes.
 206:/home/barnecle/STM32Cube/Repository/STM32Cube_FW_L4_V1.17.1/Drivers/CMSIS/Include/cmsis_gcc.h ****  */
 207:/home/barnecle/STM32Cube/Repository/STM32Cube_FW_L4_V1.17.1/Drivers/CMSIS/Include/cmsis_gcc.h **** __STATIC_FORCEINLINE void __disable_irq(void)
 208:/home/barnecle/STM32Cube/Repository/STM32Cube_FW_L4_V1.17.1/Drivers/CMSIS/Include/cmsis_gcc.h **** {
 209:/home/barnecle/STM32Cube/Repository/STM32Cube_FW_L4_V1.17.1/Drivers/CMSIS/Include/cmsis_gcc.h ****   __ASM volatile ("cpsid i" : : : "memory");
 210:/home/barnecle/STM32Cube/Repository/STM32Cube_FW_L4_V1.17.1/Drivers/CMSIS/Include/cmsis_gcc.h **** }
 211:/home/barnecle/STM32Cube/Repository/STM32Cube_FW_L4_V1.17.1/Drivers/CMSIS/Include/cmsis_gcc.h **** 
 212:/home/barnecle/STM32Cube/Repository/STM32Cube_FW_L4_V1.17.1/Drivers/CMSIS/Include/cmsis_gcc.h **** 
 213:/home/barnecle/STM32Cube/Repository/STM32Cube_FW_L4_V1.17.1/Drivers/CMSIS/Include/cmsis_gcc.h **** /**
 214:/home/barnecle/STM32Cube/Repository/STM32Cube_FW_L4_V1.17.1/Drivers/CMSIS/Include/cmsis_gcc.h ****   \brief   Get Control Register
 215:/home/barnecle/STM32Cube/Repository/STM32Cube_FW_L4_V1.17.1/Drivers/CMSIS/Include/cmsis_gcc.h ****   \details Returns the content of the Control Register.
 216:/home/barnecle/STM32Cube/Repository/STM32Cube_FW_L4_V1.17.1/Drivers/CMSIS/Include/cmsis_gcc.h ****   \return               Control Register value
 217:/home/barnecle/STM32Cube/Repository/STM32Cube_FW_L4_V1.17.1/Drivers/CMSIS/Include/cmsis_gcc.h ****  */
 218:/home/barnecle/STM32Cube/Repository/STM32Cube_FW_L4_V1.17.1/Drivers/CMSIS/Include/cmsis_gcc.h **** __STATIC_FORCEINLINE uint32_t __get_CONTROL(void)
 219:/home/barnecle/STM32Cube/Repository/STM32Cube_FW_L4_V1.17.1/Drivers/CMSIS/Include/cmsis_gcc.h **** {
 220:/home/barnecle/STM32Cube/Repository/STM32Cube_FW_L4_V1.17.1/Drivers/CMSIS/Include/cmsis_gcc.h ****   uint32_t result;
 221:/home/barnecle/STM32Cube/Repository/STM32Cube_FW_L4_V1.17.1/Drivers/CMSIS/Include/cmsis_gcc.h **** 
 222:/home/barnecle/STM32Cube/Repository/STM32Cube_FW_L4_V1.17.1/Drivers/CMSIS/Include/cmsis_gcc.h ****   __ASM volatile ("MRS %0, control" : "=r" (result) );
 223:/home/barnecle/STM32Cube/Repository/STM32Cube_FW_L4_V1.17.1/Drivers/CMSIS/Include/cmsis_gcc.h ****   return(result);
 224:/home/barnecle/STM32Cube/Repository/STM32Cube_FW_L4_V1.17.1/Drivers/CMSIS/Include/cmsis_gcc.h **** }
 225:/home/barnecle/STM32Cube/Repository/STM32Cube_FW_L4_V1.17.1/Drivers/CMSIS/Include/cmsis_gcc.h **** 
 226:/home/barnecle/STM32Cube/Repository/STM32Cube_FW_L4_V1.17.1/Drivers/CMSIS/Include/cmsis_gcc.h **** 
 227:/home/barnecle/STM32Cube/Repository/STM32Cube_FW_L4_V1.17.1/Drivers/CMSIS/Include/cmsis_gcc.h **** #if (defined (__ARM_FEATURE_CMSE ) && (__ARM_FEATURE_CMSE == 3))
 228:/home/barnecle/STM32Cube/Repository/STM32Cube_FW_L4_V1.17.1/Drivers/CMSIS/Include/cmsis_gcc.h **** /**
 229:/home/barnecle/STM32Cube/Repository/STM32Cube_FW_L4_V1.17.1/Drivers/CMSIS/Include/cmsis_gcc.h ****   \brief   Get Control Register (non-secure)
 230:/home/barnecle/STM32Cube/Repository/STM32Cube_FW_L4_V1.17.1/Drivers/CMSIS/Include/cmsis_gcc.h ****   \details Returns the content of the non-secure Control Register when in secure mode.
 231:/home/barnecle/STM32Cube/Repository/STM32Cube_FW_L4_V1.17.1/Drivers/CMSIS/Include/cmsis_gcc.h ****   \return               non-secure Control Register value
ARM GAS  /tmp/cc8GhZQL.s 			page 6


 232:/home/barnecle/STM32Cube/Repository/STM32Cube_FW_L4_V1.17.1/Drivers/CMSIS/Include/cmsis_gcc.h ****  */
 233:/home/barnecle/STM32Cube/Repository/STM32Cube_FW_L4_V1.17.1/Drivers/CMSIS/Include/cmsis_gcc.h **** __STATIC_FORCEINLINE uint32_t __TZ_get_CONTROL_NS(void)
 234:/home/barnecle/STM32Cube/Repository/STM32Cube_FW_L4_V1.17.1/Drivers/CMSIS/Include/cmsis_gcc.h **** {
 235:/home/barnecle/STM32Cube/Repository/STM32Cube_FW_L4_V1.17.1/Drivers/CMSIS/Include/cmsis_gcc.h ****   uint32_t result;
 236:/home/barnecle/STM32Cube/Repository/STM32Cube_FW_L4_V1.17.1/Drivers/CMSIS/Include/cmsis_gcc.h **** 
 237:/home/barnecle/STM32Cube/Repository/STM32Cube_FW_L4_V1.17.1/Drivers/CMSIS/Include/cmsis_gcc.h ****   __ASM volatile ("MRS %0, control_ns" : "=r" (result) );
 238:/home/barnecle/STM32Cube/Repository/STM32Cube_FW_L4_V1.17.1/Drivers/CMSIS/Include/cmsis_gcc.h ****   return(result);
 239:/home/barnecle/STM32Cube/Repository/STM32Cube_FW_L4_V1.17.1/Drivers/CMSIS/Include/cmsis_gcc.h **** }
 240:/home/barnecle/STM32Cube/Repository/STM32Cube_FW_L4_V1.17.1/Drivers/CMSIS/Include/cmsis_gcc.h **** #endif
 241:/home/barnecle/STM32Cube/Repository/STM32Cube_FW_L4_V1.17.1/Drivers/CMSIS/Include/cmsis_gcc.h **** 
 242:/home/barnecle/STM32Cube/Repository/STM32Cube_FW_L4_V1.17.1/Drivers/CMSIS/Include/cmsis_gcc.h **** 
 243:/home/barnecle/STM32Cube/Repository/STM32Cube_FW_L4_V1.17.1/Drivers/CMSIS/Include/cmsis_gcc.h **** /**
 244:/home/barnecle/STM32Cube/Repository/STM32Cube_FW_L4_V1.17.1/Drivers/CMSIS/Include/cmsis_gcc.h ****   \brief   Set Control Register
 245:/home/barnecle/STM32Cube/Repository/STM32Cube_FW_L4_V1.17.1/Drivers/CMSIS/Include/cmsis_gcc.h ****   \details Writes the given value to the Control Register.
 246:/home/barnecle/STM32Cube/Repository/STM32Cube_FW_L4_V1.17.1/Drivers/CMSIS/Include/cmsis_gcc.h ****   \param [in]    control  Control Register value to set
 247:/home/barnecle/STM32Cube/Repository/STM32Cube_FW_L4_V1.17.1/Drivers/CMSIS/Include/cmsis_gcc.h ****  */
 248:/home/barnecle/STM32Cube/Repository/STM32Cube_FW_L4_V1.17.1/Drivers/CMSIS/Include/cmsis_gcc.h **** __STATIC_FORCEINLINE void __set_CONTROL(uint32_t control)
 249:/home/barnecle/STM32Cube/Repository/STM32Cube_FW_L4_V1.17.1/Drivers/CMSIS/Include/cmsis_gcc.h **** {
 250:/home/barnecle/STM32Cube/Repository/STM32Cube_FW_L4_V1.17.1/Drivers/CMSIS/Include/cmsis_gcc.h ****   __ASM volatile ("MSR control, %0" : : "r" (control) : "memory");
 251:/home/barnecle/STM32Cube/Repository/STM32Cube_FW_L4_V1.17.1/Drivers/CMSIS/Include/cmsis_gcc.h **** }
 252:/home/barnecle/STM32Cube/Repository/STM32Cube_FW_L4_V1.17.1/Drivers/CMSIS/Include/cmsis_gcc.h **** 
 253:/home/barnecle/STM32Cube/Repository/STM32Cube_FW_L4_V1.17.1/Drivers/CMSIS/Include/cmsis_gcc.h **** 
 254:/home/barnecle/STM32Cube/Repository/STM32Cube_FW_L4_V1.17.1/Drivers/CMSIS/Include/cmsis_gcc.h **** #if (defined (__ARM_FEATURE_CMSE ) && (__ARM_FEATURE_CMSE == 3))
 255:/home/barnecle/STM32Cube/Repository/STM32Cube_FW_L4_V1.17.1/Drivers/CMSIS/Include/cmsis_gcc.h **** /**
 256:/home/barnecle/STM32Cube/Repository/STM32Cube_FW_L4_V1.17.1/Drivers/CMSIS/Include/cmsis_gcc.h ****   \brief   Set Control Register (non-secure)
 257:/home/barnecle/STM32Cube/Repository/STM32Cube_FW_L4_V1.17.1/Drivers/CMSIS/Include/cmsis_gcc.h ****   \details Writes the given value to the non-secure Control Register when in secure state.
 258:/home/barnecle/STM32Cube/Repository/STM32Cube_FW_L4_V1.17.1/Drivers/CMSIS/Include/cmsis_gcc.h ****   \param [in]    control  Control Register value to set
 259:/home/barnecle/STM32Cube/Repository/STM32Cube_FW_L4_V1.17.1/Drivers/CMSIS/Include/cmsis_gcc.h ****  */
 260:/home/barnecle/STM32Cube/Repository/STM32Cube_FW_L4_V1.17.1/Drivers/CMSIS/Include/cmsis_gcc.h **** __STATIC_FORCEINLINE void __TZ_set_CONTROL_NS(uint32_t control)
 261:/home/barnecle/STM32Cube/Repository/STM32Cube_FW_L4_V1.17.1/Drivers/CMSIS/Include/cmsis_gcc.h **** {
 262:/home/barnecle/STM32Cube/Repository/STM32Cube_FW_L4_V1.17.1/Drivers/CMSIS/Include/cmsis_gcc.h ****   __ASM volatile ("MSR control_ns, %0" : : "r" (control) : "memory");
 263:/home/barnecle/STM32Cube/Repository/STM32Cube_FW_L4_V1.17.1/Drivers/CMSIS/Include/cmsis_gcc.h **** }
 264:/home/barnecle/STM32Cube/Repository/STM32Cube_FW_L4_V1.17.1/Drivers/CMSIS/Include/cmsis_gcc.h **** #endif
 265:/home/barnecle/STM32Cube/Repository/STM32Cube_FW_L4_V1.17.1/Drivers/CMSIS/Include/cmsis_gcc.h **** 
 266:/home/barnecle/STM32Cube/Repository/STM32Cube_FW_L4_V1.17.1/Drivers/CMSIS/Include/cmsis_gcc.h **** 
 267:/home/barnecle/STM32Cube/Repository/STM32Cube_FW_L4_V1.17.1/Drivers/CMSIS/Include/cmsis_gcc.h **** /**
 268:/home/barnecle/STM32Cube/Repository/STM32Cube_FW_L4_V1.17.1/Drivers/CMSIS/Include/cmsis_gcc.h ****   \brief   Get IPSR Register
 269:/home/barnecle/STM32Cube/Repository/STM32Cube_FW_L4_V1.17.1/Drivers/CMSIS/Include/cmsis_gcc.h ****   \details Returns the content of the IPSR Register.
 270:/home/barnecle/STM32Cube/Repository/STM32Cube_FW_L4_V1.17.1/Drivers/CMSIS/Include/cmsis_gcc.h ****   \return               IPSR Register value
 271:/home/barnecle/STM32Cube/Repository/STM32Cube_FW_L4_V1.17.1/Drivers/CMSIS/Include/cmsis_gcc.h ****  */
 272:/home/barnecle/STM32Cube/Repository/STM32Cube_FW_L4_V1.17.1/Drivers/CMSIS/Include/cmsis_gcc.h **** __STATIC_FORCEINLINE uint32_t __get_IPSR(void)
 273:/home/barnecle/STM32Cube/Repository/STM32Cube_FW_L4_V1.17.1/Drivers/CMSIS/Include/cmsis_gcc.h **** {
 274:/home/barnecle/STM32Cube/Repository/STM32Cube_FW_L4_V1.17.1/Drivers/CMSIS/Include/cmsis_gcc.h ****   uint32_t result;
 275:/home/barnecle/STM32Cube/Repository/STM32Cube_FW_L4_V1.17.1/Drivers/CMSIS/Include/cmsis_gcc.h **** 
 276:/home/barnecle/STM32Cube/Repository/STM32Cube_FW_L4_V1.17.1/Drivers/CMSIS/Include/cmsis_gcc.h ****   __ASM volatile ("MRS %0, ipsr" : "=r" (result) );
 277:/home/barnecle/STM32Cube/Repository/STM32Cube_FW_L4_V1.17.1/Drivers/CMSIS/Include/cmsis_gcc.h ****   return(result);
 278:/home/barnecle/STM32Cube/Repository/STM32Cube_FW_L4_V1.17.1/Drivers/CMSIS/Include/cmsis_gcc.h **** }
 279:/home/barnecle/STM32Cube/Repository/STM32Cube_FW_L4_V1.17.1/Drivers/CMSIS/Include/cmsis_gcc.h **** 
 280:/home/barnecle/STM32Cube/Repository/STM32Cube_FW_L4_V1.17.1/Drivers/CMSIS/Include/cmsis_gcc.h **** 
 281:/home/barnecle/STM32Cube/Repository/STM32Cube_FW_L4_V1.17.1/Drivers/CMSIS/Include/cmsis_gcc.h **** /**
 282:/home/barnecle/STM32Cube/Repository/STM32Cube_FW_L4_V1.17.1/Drivers/CMSIS/Include/cmsis_gcc.h ****   \brief   Get APSR Register
 283:/home/barnecle/STM32Cube/Repository/STM32Cube_FW_L4_V1.17.1/Drivers/CMSIS/Include/cmsis_gcc.h ****   \details Returns the content of the APSR Register.
 284:/home/barnecle/STM32Cube/Repository/STM32Cube_FW_L4_V1.17.1/Drivers/CMSIS/Include/cmsis_gcc.h ****   \return               APSR Register value
 285:/home/barnecle/STM32Cube/Repository/STM32Cube_FW_L4_V1.17.1/Drivers/CMSIS/Include/cmsis_gcc.h ****  */
 286:/home/barnecle/STM32Cube/Repository/STM32Cube_FW_L4_V1.17.1/Drivers/CMSIS/Include/cmsis_gcc.h **** __STATIC_FORCEINLINE uint32_t __get_APSR(void)
 287:/home/barnecle/STM32Cube/Repository/STM32Cube_FW_L4_V1.17.1/Drivers/CMSIS/Include/cmsis_gcc.h **** {
 288:/home/barnecle/STM32Cube/Repository/STM32Cube_FW_L4_V1.17.1/Drivers/CMSIS/Include/cmsis_gcc.h ****   uint32_t result;
ARM GAS  /tmp/cc8GhZQL.s 			page 7


 289:/home/barnecle/STM32Cube/Repository/STM32Cube_FW_L4_V1.17.1/Drivers/CMSIS/Include/cmsis_gcc.h **** 
 290:/home/barnecle/STM32Cube/Repository/STM32Cube_FW_L4_V1.17.1/Drivers/CMSIS/Include/cmsis_gcc.h ****   __ASM volatile ("MRS %0, apsr" : "=r" (result) );
 291:/home/barnecle/STM32Cube/Repository/STM32Cube_FW_L4_V1.17.1/Drivers/CMSIS/Include/cmsis_gcc.h ****   return(result);
 292:/home/barnecle/STM32Cube/Repository/STM32Cube_FW_L4_V1.17.1/Drivers/CMSIS/Include/cmsis_gcc.h **** }
 293:/home/barnecle/STM32Cube/Repository/STM32Cube_FW_L4_V1.17.1/Drivers/CMSIS/Include/cmsis_gcc.h **** 
 294:/home/barnecle/STM32Cube/Repository/STM32Cube_FW_L4_V1.17.1/Drivers/CMSIS/Include/cmsis_gcc.h **** 
 295:/home/barnecle/STM32Cube/Repository/STM32Cube_FW_L4_V1.17.1/Drivers/CMSIS/Include/cmsis_gcc.h **** /**
 296:/home/barnecle/STM32Cube/Repository/STM32Cube_FW_L4_V1.17.1/Drivers/CMSIS/Include/cmsis_gcc.h ****   \brief   Get xPSR Register
 297:/home/barnecle/STM32Cube/Repository/STM32Cube_FW_L4_V1.17.1/Drivers/CMSIS/Include/cmsis_gcc.h ****   \details Returns the content of the xPSR Register.
 298:/home/barnecle/STM32Cube/Repository/STM32Cube_FW_L4_V1.17.1/Drivers/CMSIS/Include/cmsis_gcc.h ****   \return               xPSR Register value
 299:/home/barnecle/STM32Cube/Repository/STM32Cube_FW_L4_V1.17.1/Drivers/CMSIS/Include/cmsis_gcc.h ****  */
 300:/home/barnecle/STM32Cube/Repository/STM32Cube_FW_L4_V1.17.1/Drivers/CMSIS/Include/cmsis_gcc.h **** __STATIC_FORCEINLINE uint32_t __get_xPSR(void)
 301:/home/barnecle/STM32Cube/Repository/STM32Cube_FW_L4_V1.17.1/Drivers/CMSIS/Include/cmsis_gcc.h **** {
 302:/home/barnecle/STM32Cube/Repository/STM32Cube_FW_L4_V1.17.1/Drivers/CMSIS/Include/cmsis_gcc.h ****   uint32_t result;
 303:/home/barnecle/STM32Cube/Repository/STM32Cube_FW_L4_V1.17.1/Drivers/CMSIS/Include/cmsis_gcc.h **** 
 304:/home/barnecle/STM32Cube/Repository/STM32Cube_FW_L4_V1.17.1/Drivers/CMSIS/Include/cmsis_gcc.h ****   __ASM volatile ("MRS %0, xpsr" : "=r" (result) );
 305:/home/barnecle/STM32Cube/Repository/STM32Cube_FW_L4_V1.17.1/Drivers/CMSIS/Include/cmsis_gcc.h ****   return(result);
 306:/home/barnecle/STM32Cube/Repository/STM32Cube_FW_L4_V1.17.1/Drivers/CMSIS/Include/cmsis_gcc.h **** }
 307:/home/barnecle/STM32Cube/Repository/STM32Cube_FW_L4_V1.17.1/Drivers/CMSIS/Include/cmsis_gcc.h **** 
 308:/home/barnecle/STM32Cube/Repository/STM32Cube_FW_L4_V1.17.1/Drivers/CMSIS/Include/cmsis_gcc.h **** 
 309:/home/barnecle/STM32Cube/Repository/STM32Cube_FW_L4_V1.17.1/Drivers/CMSIS/Include/cmsis_gcc.h **** /**
 310:/home/barnecle/STM32Cube/Repository/STM32Cube_FW_L4_V1.17.1/Drivers/CMSIS/Include/cmsis_gcc.h ****   \brief   Get Process Stack Pointer
 311:/home/barnecle/STM32Cube/Repository/STM32Cube_FW_L4_V1.17.1/Drivers/CMSIS/Include/cmsis_gcc.h ****   \details Returns the current value of the Process Stack Pointer (PSP).
 312:/home/barnecle/STM32Cube/Repository/STM32Cube_FW_L4_V1.17.1/Drivers/CMSIS/Include/cmsis_gcc.h ****   \return               PSP Register value
 313:/home/barnecle/STM32Cube/Repository/STM32Cube_FW_L4_V1.17.1/Drivers/CMSIS/Include/cmsis_gcc.h ****  */
 314:/home/barnecle/STM32Cube/Repository/STM32Cube_FW_L4_V1.17.1/Drivers/CMSIS/Include/cmsis_gcc.h **** __STATIC_FORCEINLINE uint32_t __get_PSP(void)
 315:/home/barnecle/STM32Cube/Repository/STM32Cube_FW_L4_V1.17.1/Drivers/CMSIS/Include/cmsis_gcc.h **** {
 316:/home/barnecle/STM32Cube/Repository/STM32Cube_FW_L4_V1.17.1/Drivers/CMSIS/Include/cmsis_gcc.h ****   uint32_t result;
 317:/home/barnecle/STM32Cube/Repository/STM32Cube_FW_L4_V1.17.1/Drivers/CMSIS/Include/cmsis_gcc.h **** 
 318:/home/barnecle/STM32Cube/Repository/STM32Cube_FW_L4_V1.17.1/Drivers/CMSIS/Include/cmsis_gcc.h ****   __ASM volatile ("MRS %0, psp"  : "=r" (result) );
 319:/home/barnecle/STM32Cube/Repository/STM32Cube_FW_L4_V1.17.1/Drivers/CMSIS/Include/cmsis_gcc.h ****   return(result);
 320:/home/barnecle/STM32Cube/Repository/STM32Cube_FW_L4_V1.17.1/Drivers/CMSIS/Include/cmsis_gcc.h **** }
 321:/home/barnecle/STM32Cube/Repository/STM32Cube_FW_L4_V1.17.1/Drivers/CMSIS/Include/cmsis_gcc.h **** 
 322:/home/barnecle/STM32Cube/Repository/STM32Cube_FW_L4_V1.17.1/Drivers/CMSIS/Include/cmsis_gcc.h **** 
 323:/home/barnecle/STM32Cube/Repository/STM32Cube_FW_L4_V1.17.1/Drivers/CMSIS/Include/cmsis_gcc.h **** #if (defined (__ARM_FEATURE_CMSE ) && (__ARM_FEATURE_CMSE == 3))
 324:/home/barnecle/STM32Cube/Repository/STM32Cube_FW_L4_V1.17.1/Drivers/CMSIS/Include/cmsis_gcc.h **** /**
 325:/home/barnecle/STM32Cube/Repository/STM32Cube_FW_L4_V1.17.1/Drivers/CMSIS/Include/cmsis_gcc.h ****   \brief   Get Process Stack Pointer (non-secure)
 326:/home/barnecle/STM32Cube/Repository/STM32Cube_FW_L4_V1.17.1/Drivers/CMSIS/Include/cmsis_gcc.h ****   \details Returns the current value of the non-secure Process Stack Pointer (PSP) when in secure s
 327:/home/barnecle/STM32Cube/Repository/STM32Cube_FW_L4_V1.17.1/Drivers/CMSIS/Include/cmsis_gcc.h ****   \return               PSP Register value
 328:/home/barnecle/STM32Cube/Repository/STM32Cube_FW_L4_V1.17.1/Drivers/CMSIS/Include/cmsis_gcc.h ****  */
 329:/home/barnecle/STM32Cube/Repository/STM32Cube_FW_L4_V1.17.1/Drivers/CMSIS/Include/cmsis_gcc.h **** __STATIC_FORCEINLINE uint32_t __TZ_get_PSP_NS(void)
 330:/home/barnecle/STM32Cube/Repository/STM32Cube_FW_L4_V1.17.1/Drivers/CMSIS/Include/cmsis_gcc.h **** {
 331:/home/barnecle/STM32Cube/Repository/STM32Cube_FW_L4_V1.17.1/Drivers/CMSIS/Include/cmsis_gcc.h ****   uint32_t result;
 332:/home/barnecle/STM32Cube/Repository/STM32Cube_FW_L4_V1.17.1/Drivers/CMSIS/Include/cmsis_gcc.h **** 
 333:/home/barnecle/STM32Cube/Repository/STM32Cube_FW_L4_V1.17.1/Drivers/CMSIS/Include/cmsis_gcc.h ****   __ASM volatile ("MRS %0, psp_ns"  : "=r" (result) );
 334:/home/barnecle/STM32Cube/Repository/STM32Cube_FW_L4_V1.17.1/Drivers/CMSIS/Include/cmsis_gcc.h ****   return(result);
 335:/home/barnecle/STM32Cube/Repository/STM32Cube_FW_L4_V1.17.1/Drivers/CMSIS/Include/cmsis_gcc.h **** }
 336:/home/barnecle/STM32Cube/Repository/STM32Cube_FW_L4_V1.17.1/Drivers/CMSIS/Include/cmsis_gcc.h **** #endif
 337:/home/barnecle/STM32Cube/Repository/STM32Cube_FW_L4_V1.17.1/Drivers/CMSIS/Include/cmsis_gcc.h **** 
 338:/home/barnecle/STM32Cube/Repository/STM32Cube_FW_L4_V1.17.1/Drivers/CMSIS/Include/cmsis_gcc.h **** 
 339:/home/barnecle/STM32Cube/Repository/STM32Cube_FW_L4_V1.17.1/Drivers/CMSIS/Include/cmsis_gcc.h **** /**
 340:/home/barnecle/STM32Cube/Repository/STM32Cube_FW_L4_V1.17.1/Drivers/CMSIS/Include/cmsis_gcc.h ****   \brief   Set Process Stack Pointer
 341:/home/barnecle/STM32Cube/Repository/STM32Cube_FW_L4_V1.17.1/Drivers/CMSIS/Include/cmsis_gcc.h ****   \details Assigns the given value to the Process Stack Pointer (PSP).
 342:/home/barnecle/STM32Cube/Repository/STM32Cube_FW_L4_V1.17.1/Drivers/CMSIS/Include/cmsis_gcc.h ****   \param [in]    topOfProcStack  Process Stack Pointer value to set
 343:/home/barnecle/STM32Cube/Repository/STM32Cube_FW_L4_V1.17.1/Drivers/CMSIS/Include/cmsis_gcc.h ****  */
 344:/home/barnecle/STM32Cube/Repository/STM32Cube_FW_L4_V1.17.1/Drivers/CMSIS/Include/cmsis_gcc.h **** __STATIC_FORCEINLINE void __set_PSP(uint32_t topOfProcStack)
 345:/home/barnecle/STM32Cube/Repository/STM32Cube_FW_L4_V1.17.1/Drivers/CMSIS/Include/cmsis_gcc.h **** {
ARM GAS  /tmp/cc8GhZQL.s 			page 8


 346:/home/barnecle/STM32Cube/Repository/STM32Cube_FW_L4_V1.17.1/Drivers/CMSIS/Include/cmsis_gcc.h ****   __ASM volatile ("MSR psp, %0" : : "r" (topOfProcStack) : );
 347:/home/barnecle/STM32Cube/Repository/STM32Cube_FW_L4_V1.17.1/Drivers/CMSIS/Include/cmsis_gcc.h **** }
 348:/home/barnecle/STM32Cube/Repository/STM32Cube_FW_L4_V1.17.1/Drivers/CMSIS/Include/cmsis_gcc.h **** 
 349:/home/barnecle/STM32Cube/Repository/STM32Cube_FW_L4_V1.17.1/Drivers/CMSIS/Include/cmsis_gcc.h **** 
 350:/home/barnecle/STM32Cube/Repository/STM32Cube_FW_L4_V1.17.1/Drivers/CMSIS/Include/cmsis_gcc.h **** #if (defined (__ARM_FEATURE_CMSE ) && (__ARM_FEATURE_CMSE == 3))
 351:/home/barnecle/STM32Cube/Repository/STM32Cube_FW_L4_V1.17.1/Drivers/CMSIS/Include/cmsis_gcc.h **** /**
 352:/home/barnecle/STM32Cube/Repository/STM32Cube_FW_L4_V1.17.1/Drivers/CMSIS/Include/cmsis_gcc.h ****   \brief   Set Process Stack Pointer (non-secure)
 353:/home/barnecle/STM32Cube/Repository/STM32Cube_FW_L4_V1.17.1/Drivers/CMSIS/Include/cmsis_gcc.h ****   \details Assigns the given value to the non-secure Process Stack Pointer (PSP) when in secure sta
 354:/home/barnecle/STM32Cube/Repository/STM32Cube_FW_L4_V1.17.1/Drivers/CMSIS/Include/cmsis_gcc.h ****   \param [in]    topOfProcStack  Process Stack Pointer value to set
 355:/home/barnecle/STM32Cube/Repository/STM32Cube_FW_L4_V1.17.1/Drivers/CMSIS/Include/cmsis_gcc.h ****  */
 356:/home/barnecle/STM32Cube/Repository/STM32Cube_FW_L4_V1.17.1/Drivers/CMSIS/Include/cmsis_gcc.h **** __STATIC_FORCEINLINE void __TZ_set_PSP_NS(uint32_t topOfProcStack)
 357:/home/barnecle/STM32Cube/Repository/STM32Cube_FW_L4_V1.17.1/Drivers/CMSIS/Include/cmsis_gcc.h **** {
 358:/home/barnecle/STM32Cube/Repository/STM32Cube_FW_L4_V1.17.1/Drivers/CMSIS/Include/cmsis_gcc.h ****   __ASM volatile ("MSR psp_ns, %0" : : "r" (topOfProcStack) : );
 359:/home/barnecle/STM32Cube/Repository/STM32Cube_FW_L4_V1.17.1/Drivers/CMSIS/Include/cmsis_gcc.h **** }
 360:/home/barnecle/STM32Cube/Repository/STM32Cube_FW_L4_V1.17.1/Drivers/CMSIS/Include/cmsis_gcc.h **** #endif
 361:/home/barnecle/STM32Cube/Repository/STM32Cube_FW_L4_V1.17.1/Drivers/CMSIS/Include/cmsis_gcc.h **** 
 362:/home/barnecle/STM32Cube/Repository/STM32Cube_FW_L4_V1.17.1/Drivers/CMSIS/Include/cmsis_gcc.h **** 
 363:/home/barnecle/STM32Cube/Repository/STM32Cube_FW_L4_V1.17.1/Drivers/CMSIS/Include/cmsis_gcc.h **** /**
 364:/home/barnecle/STM32Cube/Repository/STM32Cube_FW_L4_V1.17.1/Drivers/CMSIS/Include/cmsis_gcc.h ****   \brief   Get Main Stack Pointer
 365:/home/barnecle/STM32Cube/Repository/STM32Cube_FW_L4_V1.17.1/Drivers/CMSIS/Include/cmsis_gcc.h ****   \details Returns the current value of the Main Stack Pointer (MSP).
 366:/home/barnecle/STM32Cube/Repository/STM32Cube_FW_L4_V1.17.1/Drivers/CMSIS/Include/cmsis_gcc.h ****   \return               MSP Register value
 367:/home/barnecle/STM32Cube/Repository/STM32Cube_FW_L4_V1.17.1/Drivers/CMSIS/Include/cmsis_gcc.h ****  */
 368:/home/barnecle/STM32Cube/Repository/STM32Cube_FW_L4_V1.17.1/Drivers/CMSIS/Include/cmsis_gcc.h **** __STATIC_FORCEINLINE uint32_t __get_MSP(void)
 369:/home/barnecle/STM32Cube/Repository/STM32Cube_FW_L4_V1.17.1/Drivers/CMSIS/Include/cmsis_gcc.h **** {
 370:/home/barnecle/STM32Cube/Repository/STM32Cube_FW_L4_V1.17.1/Drivers/CMSIS/Include/cmsis_gcc.h ****   uint32_t result;
 371:/home/barnecle/STM32Cube/Repository/STM32Cube_FW_L4_V1.17.1/Drivers/CMSIS/Include/cmsis_gcc.h **** 
 372:/home/barnecle/STM32Cube/Repository/STM32Cube_FW_L4_V1.17.1/Drivers/CMSIS/Include/cmsis_gcc.h ****   __ASM volatile ("MRS %0, msp" : "=r" (result) );
 373:/home/barnecle/STM32Cube/Repository/STM32Cube_FW_L4_V1.17.1/Drivers/CMSIS/Include/cmsis_gcc.h ****   return(result);
 374:/home/barnecle/STM32Cube/Repository/STM32Cube_FW_L4_V1.17.1/Drivers/CMSIS/Include/cmsis_gcc.h **** }
 375:/home/barnecle/STM32Cube/Repository/STM32Cube_FW_L4_V1.17.1/Drivers/CMSIS/Include/cmsis_gcc.h **** 
 376:/home/barnecle/STM32Cube/Repository/STM32Cube_FW_L4_V1.17.1/Drivers/CMSIS/Include/cmsis_gcc.h **** 
 377:/home/barnecle/STM32Cube/Repository/STM32Cube_FW_L4_V1.17.1/Drivers/CMSIS/Include/cmsis_gcc.h **** #if (defined (__ARM_FEATURE_CMSE ) && (__ARM_FEATURE_CMSE == 3))
 378:/home/barnecle/STM32Cube/Repository/STM32Cube_FW_L4_V1.17.1/Drivers/CMSIS/Include/cmsis_gcc.h **** /**
 379:/home/barnecle/STM32Cube/Repository/STM32Cube_FW_L4_V1.17.1/Drivers/CMSIS/Include/cmsis_gcc.h ****   \brief   Get Main Stack Pointer (non-secure)
 380:/home/barnecle/STM32Cube/Repository/STM32Cube_FW_L4_V1.17.1/Drivers/CMSIS/Include/cmsis_gcc.h ****   \details Returns the current value of the non-secure Main Stack Pointer (MSP) when in secure stat
 381:/home/barnecle/STM32Cube/Repository/STM32Cube_FW_L4_V1.17.1/Drivers/CMSIS/Include/cmsis_gcc.h ****   \return               MSP Register value
 382:/home/barnecle/STM32Cube/Repository/STM32Cube_FW_L4_V1.17.1/Drivers/CMSIS/Include/cmsis_gcc.h ****  */
 383:/home/barnecle/STM32Cube/Repository/STM32Cube_FW_L4_V1.17.1/Drivers/CMSIS/Include/cmsis_gcc.h **** __STATIC_FORCEINLINE uint32_t __TZ_get_MSP_NS(void)
 384:/home/barnecle/STM32Cube/Repository/STM32Cube_FW_L4_V1.17.1/Drivers/CMSIS/Include/cmsis_gcc.h **** {
 385:/home/barnecle/STM32Cube/Repository/STM32Cube_FW_L4_V1.17.1/Drivers/CMSIS/Include/cmsis_gcc.h ****   uint32_t result;
 386:/home/barnecle/STM32Cube/Repository/STM32Cube_FW_L4_V1.17.1/Drivers/CMSIS/Include/cmsis_gcc.h **** 
 387:/home/barnecle/STM32Cube/Repository/STM32Cube_FW_L4_V1.17.1/Drivers/CMSIS/Include/cmsis_gcc.h ****   __ASM volatile ("MRS %0, msp_ns" : "=r" (result) );
 388:/home/barnecle/STM32Cube/Repository/STM32Cube_FW_L4_V1.17.1/Drivers/CMSIS/Include/cmsis_gcc.h ****   return(result);
 389:/home/barnecle/STM32Cube/Repository/STM32Cube_FW_L4_V1.17.1/Drivers/CMSIS/Include/cmsis_gcc.h **** }
 390:/home/barnecle/STM32Cube/Repository/STM32Cube_FW_L4_V1.17.1/Drivers/CMSIS/Include/cmsis_gcc.h **** #endif
 391:/home/barnecle/STM32Cube/Repository/STM32Cube_FW_L4_V1.17.1/Drivers/CMSIS/Include/cmsis_gcc.h **** 
 392:/home/barnecle/STM32Cube/Repository/STM32Cube_FW_L4_V1.17.1/Drivers/CMSIS/Include/cmsis_gcc.h **** 
 393:/home/barnecle/STM32Cube/Repository/STM32Cube_FW_L4_V1.17.1/Drivers/CMSIS/Include/cmsis_gcc.h **** /**
 394:/home/barnecle/STM32Cube/Repository/STM32Cube_FW_L4_V1.17.1/Drivers/CMSIS/Include/cmsis_gcc.h ****   \brief   Set Main Stack Pointer
 395:/home/barnecle/STM32Cube/Repository/STM32Cube_FW_L4_V1.17.1/Drivers/CMSIS/Include/cmsis_gcc.h ****   \details Assigns the given value to the Main Stack Pointer (MSP).
 396:/home/barnecle/STM32Cube/Repository/STM32Cube_FW_L4_V1.17.1/Drivers/CMSIS/Include/cmsis_gcc.h ****   \param [in]    topOfMainStack  Main Stack Pointer value to set
 397:/home/barnecle/STM32Cube/Repository/STM32Cube_FW_L4_V1.17.1/Drivers/CMSIS/Include/cmsis_gcc.h ****  */
 398:/home/barnecle/STM32Cube/Repository/STM32Cube_FW_L4_V1.17.1/Drivers/CMSIS/Include/cmsis_gcc.h **** __STATIC_FORCEINLINE void __set_MSP(uint32_t topOfMainStack)
 399:/home/barnecle/STM32Cube/Repository/STM32Cube_FW_L4_V1.17.1/Drivers/CMSIS/Include/cmsis_gcc.h **** {
 400:/home/barnecle/STM32Cube/Repository/STM32Cube_FW_L4_V1.17.1/Drivers/CMSIS/Include/cmsis_gcc.h ****   __ASM volatile ("MSR msp, %0" : : "r" (topOfMainStack) : );
 401:/home/barnecle/STM32Cube/Repository/STM32Cube_FW_L4_V1.17.1/Drivers/CMSIS/Include/cmsis_gcc.h **** }
 402:/home/barnecle/STM32Cube/Repository/STM32Cube_FW_L4_V1.17.1/Drivers/CMSIS/Include/cmsis_gcc.h **** 
ARM GAS  /tmp/cc8GhZQL.s 			page 9


 403:/home/barnecle/STM32Cube/Repository/STM32Cube_FW_L4_V1.17.1/Drivers/CMSIS/Include/cmsis_gcc.h **** 
 404:/home/barnecle/STM32Cube/Repository/STM32Cube_FW_L4_V1.17.1/Drivers/CMSIS/Include/cmsis_gcc.h **** #if (defined (__ARM_FEATURE_CMSE ) && (__ARM_FEATURE_CMSE == 3))
 405:/home/barnecle/STM32Cube/Repository/STM32Cube_FW_L4_V1.17.1/Drivers/CMSIS/Include/cmsis_gcc.h **** /**
 406:/home/barnecle/STM32Cube/Repository/STM32Cube_FW_L4_V1.17.1/Drivers/CMSIS/Include/cmsis_gcc.h ****   \brief   Set Main Stack Pointer (non-secure)
 407:/home/barnecle/STM32Cube/Repository/STM32Cube_FW_L4_V1.17.1/Drivers/CMSIS/Include/cmsis_gcc.h ****   \details Assigns the given value to the non-secure Main Stack Pointer (MSP) when in secure state.
 408:/home/barnecle/STM32Cube/Repository/STM32Cube_FW_L4_V1.17.1/Drivers/CMSIS/Include/cmsis_gcc.h ****   \param [in]    topOfMainStack  Main Stack Pointer value to set
 409:/home/barnecle/STM32Cube/Repository/STM32Cube_FW_L4_V1.17.1/Drivers/CMSIS/Include/cmsis_gcc.h ****  */
 410:/home/barnecle/STM32Cube/Repository/STM32Cube_FW_L4_V1.17.1/Drivers/CMSIS/Include/cmsis_gcc.h **** __STATIC_FORCEINLINE void __TZ_set_MSP_NS(uint32_t topOfMainStack)
 411:/home/barnecle/STM32Cube/Repository/STM32Cube_FW_L4_V1.17.1/Drivers/CMSIS/Include/cmsis_gcc.h **** {
 412:/home/barnecle/STM32Cube/Repository/STM32Cube_FW_L4_V1.17.1/Drivers/CMSIS/Include/cmsis_gcc.h ****   __ASM volatile ("MSR msp_ns, %0" : : "r" (topOfMainStack) : );
 413:/home/barnecle/STM32Cube/Repository/STM32Cube_FW_L4_V1.17.1/Drivers/CMSIS/Include/cmsis_gcc.h **** }
 414:/home/barnecle/STM32Cube/Repository/STM32Cube_FW_L4_V1.17.1/Drivers/CMSIS/Include/cmsis_gcc.h **** #endif
 415:/home/barnecle/STM32Cube/Repository/STM32Cube_FW_L4_V1.17.1/Drivers/CMSIS/Include/cmsis_gcc.h **** 
 416:/home/barnecle/STM32Cube/Repository/STM32Cube_FW_L4_V1.17.1/Drivers/CMSIS/Include/cmsis_gcc.h **** 
 417:/home/barnecle/STM32Cube/Repository/STM32Cube_FW_L4_V1.17.1/Drivers/CMSIS/Include/cmsis_gcc.h **** #if (defined (__ARM_FEATURE_CMSE ) && (__ARM_FEATURE_CMSE == 3))
 418:/home/barnecle/STM32Cube/Repository/STM32Cube_FW_L4_V1.17.1/Drivers/CMSIS/Include/cmsis_gcc.h **** /**
 419:/home/barnecle/STM32Cube/Repository/STM32Cube_FW_L4_V1.17.1/Drivers/CMSIS/Include/cmsis_gcc.h ****   \brief   Get Stack Pointer (non-secure)
 420:/home/barnecle/STM32Cube/Repository/STM32Cube_FW_L4_V1.17.1/Drivers/CMSIS/Include/cmsis_gcc.h ****   \details Returns the current value of the non-secure Stack Pointer (SP) when in secure state.
 421:/home/barnecle/STM32Cube/Repository/STM32Cube_FW_L4_V1.17.1/Drivers/CMSIS/Include/cmsis_gcc.h ****   \return               SP Register value
 422:/home/barnecle/STM32Cube/Repository/STM32Cube_FW_L4_V1.17.1/Drivers/CMSIS/Include/cmsis_gcc.h ****  */
 423:/home/barnecle/STM32Cube/Repository/STM32Cube_FW_L4_V1.17.1/Drivers/CMSIS/Include/cmsis_gcc.h **** __STATIC_FORCEINLINE uint32_t __TZ_get_SP_NS(void)
 424:/home/barnecle/STM32Cube/Repository/STM32Cube_FW_L4_V1.17.1/Drivers/CMSIS/Include/cmsis_gcc.h **** {
 425:/home/barnecle/STM32Cube/Repository/STM32Cube_FW_L4_V1.17.1/Drivers/CMSIS/Include/cmsis_gcc.h ****   uint32_t result;
 426:/home/barnecle/STM32Cube/Repository/STM32Cube_FW_L4_V1.17.1/Drivers/CMSIS/Include/cmsis_gcc.h **** 
 427:/home/barnecle/STM32Cube/Repository/STM32Cube_FW_L4_V1.17.1/Drivers/CMSIS/Include/cmsis_gcc.h ****   __ASM volatile ("MRS %0, sp_ns" : "=r" (result) );
 428:/home/barnecle/STM32Cube/Repository/STM32Cube_FW_L4_V1.17.1/Drivers/CMSIS/Include/cmsis_gcc.h ****   return(result);
 429:/home/barnecle/STM32Cube/Repository/STM32Cube_FW_L4_V1.17.1/Drivers/CMSIS/Include/cmsis_gcc.h **** }
 430:/home/barnecle/STM32Cube/Repository/STM32Cube_FW_L4_V1.17.1/Drivers/CMSIS/Include/cmsis_gcc.h **** 
 431:/home/barnecle/STM32Cube/Repository/STM32Cube_FW_L4_V1.17.1/Drivers/CMSIS/Include/cmsis_gcc.h **** 
 432:/home/barnecle/STM32Cube/Repository/STM32Cube_FW_L4_V1.17.1/Drivers/CMSIS/Include/cmsis_gcc.h **** /**
 433:/home/barnecle/STM32Cube/Repository/STM32Cube_FW_L4_V1.17.1/Drivers/CMSIS/Include/cmsis_gcc.h ****   \brief   Set Stack Pointer (non-secure)
 434:/home/barnecle/STM32Cube/Repository/STM32Cube_FW_L4_V1.17.1/Drivers/CMSIS/Include/cmsis_gcc.h ****   \details Assigns the given value to the non-secure Stack Pointer (SP) when in secure state.
 435:/home/barnecle/STM32Cube/Repository/STM32Cube_FW_L4_V1.17.1/Drivers/CMSIS/Include/cmsis_gcc.h ****   \param [in]    topOfStack  Stack Pointer value to set
 436:/home/barnecle/STM32Cube/Repository/STM32Cube_FW_L4_V1.17.1/Drivers/CMSIS/Include/cmsis_gcc.h ****  */
 437:/home/barnecle/STM32Cube/Repository/STM32Cube_FW_L4_V1.17.1/Drivers/CMSIS/Include/cmsis_gcc.h **** __STATIC_FORCEINLINE void __TZ_set_SP_NS(uint32_t topOfStack)
 438:/home/barnecle/STM32Cube/Repository/STM32Cube_FW_L4_V1.17.1/Drivers/CMSIS/Include/cmsis_gcc.h **** {
 439:/home/barnecle/STM32Cube/Repository/STM32Cube_FW_L4_V1.17.1/Drivers/CMSIS/Include/cmsis_gcc.h ****   __ASM volatile ("MSR sp_ns, %0" : : "r" (topOfStack) : );
 440:/home/barnecle/STM32Cube/Repository/STM32Cube_FW_L4_V1.17.1/Drivers/CMSIS/Include/cmsis_gcc.h **** }
 441:/home/barnecle/STM32Cube/Repository/STM32Cube_FW_L4_V1.17.1/Drivers/CMSIS/Include/cmsis_gcc.h **** #endif
 442:/home/barnecle/STM32Cube/Repository/STM32Cube_FW_L4_V1.17.1/Drivers/CMSIS/Include/cmsis_gcc.h **** 
 443:/home/barnecle/STM32Cube/Repository/STM32Cube_FW_L4_V1.17.1/Drivers/CMSIS/Include/cmsis_gcc.h **** 
 444:/home/barnecle/STM32Cube/Repository/STM32Cube_FW_L4_V1.17.1/Drivers/CMSIS/Include/cmsis_gcc.h **** /**
 445:/home/barnecle/STM32Cube/Repository/STM32Cube_FW_L4_V1.17.1/Drivers/CMSIS/Include/cmsis_gcc.h ****   \brief   Get Priority Mask
 446:/home/barnecle/STM32Cube/Repository/STM32Cube_FW_L4_V1.17.1/Drivers/CMSIS/Include/cmsis_gcc.h ****   \details Returns the current state of the priority mask bit from the Priority Mask Register.
 447:/home/barnecle/STM32Cube/Repository/STM32Cube_FW_L4_V1.17.1/Drivers/CMSIS/Include/cmsis_gcc.h ****   \return               Priority Mask value
 448:/home/barnecle/STM32Cube/Repository/STM32Cube_FW_L4_V1.17.1/Drivers/CMSIS/Include/cmsis_gcc.h ****  */
 449:/home/barnecle/STM32Cube/Repository/STM32Cube_FW_L4_V1.17.1/Drivers/CMSIS/Include/cmsis_gcc.h **** __STATIC_FORCEINLINE uint32_t __get_PRIMASK(void)
  40              		.loc 2 449 31 view .LVU3
  41              	.LBB11:
 450:/home/barnecle/STM32Cube/Repository/STM32Cube_FW_L4_V1.17.1/Drivers/CMSIS/Include/cmsis_gcc.h **** {
 451:/home/barnecle/STM32Cube/Repository/STM32Cube_FW_L4_V1.17.1/Drivers/CMSIS/Include/cmsis_gcc.h ****   uint32_t result;
  42              		.loc 2 451 3 view .LVU4
 452:/home/barnecle/STM32Cube/Repository/STM32Cube_FW_L4_V1.17.1/Drivers/CMSIS/Include/cmsis_gcc.h **** 
 453:/home/barnecle/STM32Cube/Repository/STM32Cube_FW_L4_V1.17.1/Drivers/CMSIS/Include/cmsis_gcc.h ****   __ASM volatile ("MRS %0, primask" : "=r" (result) :: "memory");
  43              		.loc 2 453 3 view .LVU5
  44              		.syntax unified
  45              	@ 453 "/home/barnecle/STM32Cube/Repository/STM32Cube_FW_L4_V1.17.1/Drivers/CMSIS/Include/cmsis_gcc.
ARM GAS  /tmp/cc8GhZQL.s 			page 10


  46 0000 EFF31080 		MRS r0, primask
  47              	@ 0 "" 2
  48              	.LVL1:
 454:/home/barnecle/STM32Cube/Repository/STM32Cube_FW_L4_V1.17.1/Drivers/CMSIS/Include/cmsis_gcc.h ****   return(result);
  49              		.loc 2 454 3 view .LVU6
  50              		.loc 2 454 3 is_stmt 0 view .LVU7
  51              		.thumb
  52              		.syntax unified
  53              	.LBE11:
  54              	.LBE10:
  17:Core/Src/interrupt.c ****   __disable_irq();                // Globally mask the interrupts off
  55              		.loc 1 17 3 is_stmt 1 view .LVU8
  56              	.LBB12:
  57              	.LBI12:
 207:/home/barnecle/STM32Cube/Repository/STM32Cube_FW_L4_V1.17.1/Drivers/CMSIS/Include/cmsis_gcc.h **** {
  58              		.loc 2 207 27 view .LVU9
  59              	.LBB13:
 209:/home/barnecle/STM32Cube/Repository/STM32Cube_FW_L4_V1.17.1/Drivers/CMSIS/Include/cmsis_gcc.h **** }
  60              		.loc 2 209 3 view .LVU10
  61              		.syntax unified
  62              	@ 209 "/home/barnecle/STM32Cube/Repository/STM32Cube_FW_L4_V1.17.1/Drivers/CMSIS/Include/cmsis_gcc.
  63 0004 72B6     		cpsid i
  64              	@ 0 "" 2
  65              		.thumb
  66              		.syntax unified
  67              	.LBE13:
  68              	.LBE12:
  18:Core/Src/interrupt.c ****   return (priority_mask);
  69              		.loc 1 18 3 view .LVU11
  19:Core/Src/interrupt.c **** }
  70              		.loc 1 19 1 is_stmt 0 view .LVU12
  71 0006 7047     		bx	lr
  72              		.cfi_endproc
  73              	.LFE132:
  75              		.section	.text.restore,"ax",%progbits
  76              		.align	1
  77              		.global	restore
  78              		.syntax unified
  79              		.thumb
  80              		.thumb_func
  82              	restore:
  83              	.LVL2:
  84              	.LFB133:
  20:Core/Src/interrupt.c **** 
  21:Core/Src/interrupt.c **** void restore(uint32_t priority_mask) {
  85              		.loc 1 21 38 is_stmt 1 view -0
  86              		.cfi_startproc
  87              		@ args = 0, pretend = 0, frame = 0
  88              		@ frame_needed = 0, uses_anonymous_args = 0
  89              		@ link register save eliminated.
  22:Core/Src/interrupt.c ****   __set_PRIMASK(priority_mask);
  90              		.loc 1 22 3 view .LVU14
  91              	.LBB14:
  92              	.LBI14:
 455:/home/barnecle/STM32Cube/Repository/STM32Cube_FW_L4_V1.17.1/Drivers/CMSIS/Include/cmsis_gcc.h **** }
 456:/home/barnecle/STM32Cube/Repository/STM32Cube_FW_L4_V1.17.1/Drivers/CMSIS/Include/cmsis_gcc.h **** 
 457:/home/barnecle/STM32Cube/Repository/STM32Cube_FW_L4_V1.17.1/Drivers/CMSIS/Include/cmsis_gcc.h **** 
ARM GAS  /tmp/cc8GhZQL.s 			page 11


 458:/home/barnecle/STM32Cube/Repository/STM32Cube_FW_L4_V1.17.1/Drivers/CMSIS/Include/cmsis_gcc.h **** #if (defined (__ARM_FEATURE_CMSE ) && (__ARM_FEATURE_CMSE == 3))
 459:/home/barnecle/STM32Cube/Repository/STM32Cube_FW_L4_V1.17.1/Drivers/CMSIS/Include/cmsis_gcc.h **** /**
 460:/home/barnecle/STM32Cube/Repository/STM32Cube_FW_L4_V1.17.1/Drivers/CMSIS/Include/cmsis_gcc.h ****   \brief   Get Priority Mask (non-secure)
 461:/home/barnecle/STM32Cube/Repository/STM32Cube_FW_L4_V1.17.1/Drivers/CMSIS/Include/cmsis_gcc.h ****   \details Returns the current state of the non-secure priority mask bit from the Priority Mask Reg
 462:/home/barnecle/STM32Cube/Repository/STM32Cube_FW_L4_V1.17.1/Drivers/CMSIS/Include/cmsis_gcc.h ****   \return               Priority Mask value
 463:/home/barnecle/STM32Cube/Repository/STM32Cube_FW_L4_V1.17.1/Drivers/CMSIS/Include/cmsis_gcc.h ****  */
 464:/home/barnecle/STM32Cube/Repository/STM32Cube_FW_L4_V1.17.1/Drivers/CMSIS/Include/cmsis_gcc.h **** __STATIC_FORCEINLINE uint32_t __TZ_get_PRIMASK_NS(void)
 465:/home/barnecle/STM32Cube/Repository/STM32Cube_FW_L4_V1.17.1/Drivers/CMSIS/Include/cmsis_gcc.h **** {
 466:/home/barnecle/STM32Cube/Repository/STM32Cube_FW_L4_V1.17.1/Drivers/CMSIS/Include/cmsis_gcc.h ****   uint32_t result;
 467:/home/barnecle/STM32Cube/Repository/STM32Cube_FW_L4_V1.17.1/Drivers/CMSIS/Include/cmsis_gcc.h **** 
 468:/home/barnecle/STM32Cube/Repository/STM32Cube_FW_L4_V1.17.1/Drivers/CMSIS/Include/cmsis_gcc.h ****   __ASM volatile ("MRS %0, primask_ns" : "=r" (result) :: "memory");
 469:/home/barnecle/STM32Cube/Repository/STM32Cube_FW_L4_V1.17.1/Drivers/CMSIS/Include/cmsis_gcc.h ****   return(result);
 470:/home/barnecle/STM32Cube/Repository/STM32Cube_FW_L4_V1.17.1/Drivers/CMSIS/Include/cmsis_gcc.h **** }
 471:/home/barnecle/STM32Cube/Repository/STM32Cube_FW_L4_V1.17.1/Drivers/CMSIS/Include/cmsis_gcc.h **** #endif
 472:/home/barnecle/STM32Cube/Repository/STM32Cube_FW_L4_V1.17.1/Drivers/CMSIS/Include/cmsis_gcc.h **** 
 473:/home/barnecle/STM32Cube/Repository/STM32Cube_FW_L4_V1.17.1/Drivers/CMSIS/Include/cmsis_gcc.h **** 
 474:/home/barnecle/STM32Cube/Repository/STM32Cube_FW_L4_V1.17.1/Drivers/CMSIS/Include/cmsis_gcc.h **** /**
 475:/home/barnecle/STM32Cube/Repository/STM32Cube_FW_L4_V1.17.1/Drivers/CMSIS/Include/cmsis_gcc.h ****   \brief   Set Priority Mask
 476:/home/barnecle/STM32Cube/Repository/STM32Cube_FW_L4_V1.17.1/Drivers/CMSIS/Include/cmsis_gcc.h ****   \details Assigns the given value to the Priority Mask Register.
 477:/home/barnecle/STM32Cube/Repository/STM32Cube_FW_L4_V1.17.1/Drivers/CMSIS/Include/cmsis_gcc.h ****   \param [in]    priMask  Priority Mask
 478:/home/barnecle/STM32Cube/Repository/STM32Cube_FW_L4_V1.17.1/Drivers/CMSIS/Include/cmsis_gcc.h ****  */
 479:/home/barnecle/STM32Cube/Repository/STM32Cube_FW_L4_V1.17.1/Drivers/CMSIS/Include/cmsis_gcc.h **** __STATIC_FORCEINLINE void __set_PRIMASK(uint32_t priMask)
  93              		.loc 2 479 27 view .LVU15
  94              	.LBB15:
 480:/home/barnecle/STM32Cube/Repository/STM32Cube_FW_L4_V1.17.1/Drivers/CMSIS/Include/cmsis_gcc.h **** {
 481:/home/barnecle/STM32Cube/Repository/STM32Cube_FW_L4_V1.17.1/Drivers/CMSIS/Include/cmsis_gcc.h ****   __ASM volatile ("MSR primask, %0" : : "r" (priMask) : "memory");
  95              		.loc 2 481 3 view .LVU16
  96              		.syntax unified
  97              	@ 481 "/home/barnecle/STM32Cube/Repository/STM32Cube_FW_L4_V1.17.1/Drivers/CMSIS/Include/cmsis_gcc.
  98 0000 80F31088 		MSR primask, r0
  99              	@ 0 "" 2
 100              	.LVL3:
 101              		.loc 2 481 3 is_stmt 0 view .LVU17
 102              		.thumb
 103              		.syntax unified
 104              	.LBE15:
 105              	.LBE14:
  23:Core/Src/interrupt.c **** }
 106              		.loc 1 23 1 view .LVU18
 107 0004 7047     		bx	lr
 108              		.cfi_endproc
 109              	.LFE133:
 111              		.section	.text.enable,"ax",%progbits
 112              		.align	1
 113              		.global	enable
 114              		.syntax unified
 115              		.thumb
 116              		.thumb_func
 118              	enable:
 119              	.LFB134:
  24:Core/Src/interrupt.c **** 
  25:Core/Src/interrupt.c **** void enable(void) {
 120              		.loc 1 25 19 is_stmt 1 view -0
 121              		.cfi_startproc
 122              		@ args = 0, pretend = 0, frame = 0
 123              		@ frame_needed = 0, uses_anonymous_args = 0
 124              		@ link register save eliminated.
ARM GAS  /tmp/cc8GhZQL.s 			page 12


  26:Core/Src/interrupt.c ****   __enable_irq();
 125              		.loc 1 26 3 view .LVU20
 126              	.LBB16:
 127              	.LBI16:
 196:/home/barnecle/STM32Cube/Repository/STM32Cube_FW_L4_V1.17.1/Drivers/CMSIS/Include/cmsis_gcc.h **** {
 128              		.loc 2 196 27 view .LVU21
 129              	.LBB17:
 198:/home/barnecle/STM32Cube/Repository/STM32Cube_FW_L4_V1.17.1/Drivers/CMSIS/Include/cmsis_gcc.h **** }
 130              		.loc 2 198 3 view .LVU22
 131              		.syntax unified
 132              	@ 198 "/home/barnecle/STM32Cube/Repository/STM32Cube_FW_L4_V1.17.1/Drivers/CMSIS/Include/cmsis_gcc.
 133 0000 62B6     		cpsie i
 134              	@ 0 "" 2
 135              		.thumb
 136              		.syntax unified
 137              	.LBE17:
 138              	.LBE16:
  27:Core/Src/interrupt.c **** }
 139              		.loc 1 27 1 is_stmt 0 view .LVU23
 140 0002 7047     		bx	lr
 141              		.cfi_endproc
 142              	.LFE134:
 144              		.text
 145              	.Letext0:
 146              		.file 3 "/usr/share/gcc-arm-none-eabi-10.3-2021.10/arm-none-eabi/include/machine/_default_types.h"
 147              		.file 4 "/usr/share/gcc-arm-none-eabi-10.3-2021.10/arm-none-eabi/include/sys/_stdint.h"
ARM GAS  /tmp/cc8GhZQL.s 			page 13

