ARM GAS  /tmp/ccVvGxMz.s 			page 1


   1              		.cpu cortex-m4
   2              		.arch armv7e-m
   3              		.fpu fpv4-sp-d16
   4              		.eabi_attribute 27, 1
   5              		.eabi_attribute 28, 1
   6              		.eabi_attribute 20, 1
   7              		.eabi_attribute 21, 1
   8              		.eabi_attribute 23, 3
   9              		.eabi_attribute 24, 1
  10              		.eabi_attribute 25, 1
  11              		.eabi_attribute 26, 1
  12              		.eabi_attribute 30, 1
  13              		.eabi_attribute 34, 1
  14              		.eabi_attribute 18, 4
  15              		.file	"main.c"
  16              		.text
  17              	.Ltext0:
  18              		.cfi_sections	.debug_frame
  19              		.section	.rodata.help_command.str1.4,"aMS",%progbits,1
  20              		.align	2
  21              	.LC0:
  22 0000 0D0A4176 		.ascii	"\015\012Available Commands:\012\015\000"
  22      61696C61 
  22      626C6520 
  22      436F6D6D 
  22      616E6473 
  23              		.align	2
  24              	.LC1:
  25 0018 6C6F6E0A 		.ascii	"lon\012\015\000"
  25      0D00
  26 001e 0000     		.align	2
  27              	.LC2:
  28 0020 6C6F660A 		.ascii	"lof\012\015\000"
  28      0D00
  29 0026 0000     		.align	2
  30              	.LC3:
  31 0028 74657374 		.ascii	"test\012\015\000"
  31      0A0D00
  32              		.section	.text.help_command,"ax",%progbits
  33              		.align	1
  34              		.global	help_command
  35              		.syntax unified
  36              		.thumb
  37              		.thumb_func
  39              	help_command:
  40              	.LVL0:
  41              	.LFB358:
  42              		.file 1 "Core/Src/main.c"
   1:Core/Src/main.c **** /* USER CODE BEGIN Header */
   2:Core/Src/main.c **** /**
   3:Core/Src/main.c ****   ******************************************************************************
   4:Core/Src/main.c ****   * @file           : main.c
   5:Core/Src/main.c ****   * @brief          : Main program body
   6:Core/Src/main.c ****   ******************************************************************************
   7:Core/Src/main.c ****   * @attention
   8:Core/Src/main.c ****   *
   9:Core/Src/main.c ****   * Copyright (c) 2022 STMicroelectronics.
ARM GAS  /tmp/ccVvGxMz.s 			page 2


  10:Core/Src/main.c ****   * All rights reserved.
  11:Core/Src/main.c ****   *
  12:Core/Src/main.c ****   * This software is licensed under terms that can be found in the LICENSE file
  13:Core/Src/main.c ****   * in the root directory of this software component.
  14:Core/Src/main.c ****   * If no LICENSE file comes with this software, it is provided AS-IS.
  15:Core/Src/main.c ****   *
  16:Core/Src/main.c ****   ******************************************************************************
  17:Core/Src/main.c ****   */
  18:Core/Src/main.c **** /* USER CODE END Header */
  19:Core/Src/main.c **** /* Includes ------------------------------------------------------------------*/
  20:Core/Src/main.c **** #include "main.h"
  21:Core/Src/main.c **** 
  22:Core/Src/main.c **** /* Private includes ----------------------------------------------------------*/
  23:Core/Src/main.c **** /* USER CODE BEGIN Includes */
  24:Core/Src/main.c **** #include <stdlib.h>
  25:Core/Src/main.c **** #include <stdio.h>
  26:Core/Src/main.c **** #include "stm32l4xx_ll_usart.h"
  27:Core/Src/main.c **** #include <string.h>
  28:Core/Src/main.c **** #include <retarget.h>
  29:Core/Src/main.c **** #include <command.h>
  30:Core/Src/main.c **** #include "queue.h"
  31:Core/Src/main.c **** /* USER CODE END Includes */
  32:Core/Src/main.c **** 
  33:Core/Src/main.c **** /* Private typedef -----------------------------------------------------------*/
  34:Core/Src/main.c **** /* USER CODE BEGIN PTD */
  35:Core/Src/main.c **** 
  36:Core/Src/main.c **** 
  37:Core/Src/main.c **** /* USER CODE END PTD */
  38:Core/Src/main.c **** 
  39:Core/Src/main.c **** /* Private define ------------------------------------------------------------*/
  40:Core/Src/main.c **** /* USER CODE BEGIN PD */
  41:Core/Src/main.c **** 
  42:Core/Src/main.c **** /* USER CODE END PD */
  43:Core/Src/main.c **** 
  44:Core/Src/main.c **** /* Private macro -------------------------------------------------------------*/
  45:Core/Src/main.c **** /* USER CODE BEGIN PM */
  46:Core/Src/main.c **** 
  47:Core/Src/main.c **** /* USER CODE END PM */
  48:Core/Src/main.c **** 
  49:Core/Src/main.c **** /* Private variables ---------------------------------------------------------*/
  50:Core/Src/main.c **** UART_HandleTypeDef huart2;
  51:Core/Src/main.c **** 
  52:Core/Src/main.c **** /* USER CODE BEGIN PV */
  53:Core/Src/main.c **** queue_t rx_queue;
  54:Core/Src/main.c **** int led_on = 0;
  55:Core/Src/main.c **** /* USER CODE END PV */
  56:Core/Src/main.c **** 
  57:Core/Src/main.c **** /* Private function prototypes -----------------------------------------------*/
  58:Core/Src/main.c **** void SystemClock_Config(void);
  59:Core/Src/main.c **** static void MX_GPIO_Init(void);
  60:Core/Src/main.c **** static void MX_USART2_UART_Init(void);
  61:Core/Src/main.c **** 
  62:Core/Src/main.c **** /* USER CODE BEGIN PFP */
  63:Core/Src/main.c **** void help_command(char *args);
  64:Core/Src/main.c **** void lof_command();
  65:Core/Src/main.c **** void lon_command();
  66:Core/Src/main.c **** void test_command(char *args);
ARM GAS  /tmp/ccVvGxMz.s 			page 3


  67:Core/Src/main.c **** int parse_command (uint8_t *line, uint8_t **command, uint8_t **args);
  68:Core/Src/main.c **** int execute_command(uint8_t * line);
  69:Core/Src/main.c **** /* USER CODE END PFP */
  70:Core/Src/main.c **** 
  71:Core/Src/main.c **** /* Private user code ---------------------------------------------------------*/
  72:Core/Src/main.c **** /* USER CODE BEGIN 0 */
  73:Core/Src/main.c **** command_t commands[] = {
  74:Core/Src/main.c ****   {"help",help_command},
  75:Core/Src/main.c ****   {"lof",lof_command},
  76:Core/Src/main.c ****   {"lon",lon_command},
  77:Core/Src/main.c ****   {"test",test_command},
  78:Core/Src/main.c ****   {0,0}
  79:Core/Src/main.c **** };
  80:Core/Src/main.c **** 
  81:Core/Src/main.c **** 
  82:Core/Src/main.c **** /* USER CODE END 0 */
  83:Core/Src/main.c **** 
  84:Core/Src/main.c **** /**
  85:Core/Src/main.c ****   * @brief  The application entry point.
  86:Core/Src/main.c ****   * @retval int
  87:Core/Src/main.c ****   */
  88:Core/Src/main.c **** int main(void)
  89:Core/Src/main.c **** {
  90:Core/Src/main.c ****   /* USER CODE BEGIN 1 */
  91:Core/Src/main.c **** 
  92:Core/Src/main.c ****   /* USER CODE END 1 */
  93:Core/Src/main.c **** 
  94:Core/Src/main.c ****   /* MCU Configuration--------------------------------------------------------*/
  95:Core/Src/main.c **** 
  96:Core/Src/main.c ****   /* Reset of all peripherals, Initializes the Flash interface and the Systick. */
  97:Core/Src/main.c ****   HAL_Init();
  98:Core/Src/main.c **** 
  99:Core/Src/main.c ****   /* USER CODE BEGIN Init */
 100:Core/Src/main.c ****   uint8_t command_line[QUEUE_SIZE];
 101:Core/Src/main.c ****   uint8_t ch;
 102:Core/Src/main.c ****   int n = 0;
 103:Core/Src/main.c ****   /* USER CODE END Init */
 104:Core/Src/main.c **** 
 105:Core/Src/main.c ****   /* Configure the system clock */
 106:Core/Src/main.c ****   SystemClock_Config();
 107:Core/Src/main.c **** 
 108:Core/Src/main.c ****   /* USER CODE BEGIN SysInit */
 109:Core/Src/main.c **** 
 110:Core/Src/main.c ****   /* USER CODE END SysInit */
 111:Core/Src/main.c **** 
 112:Core/Src/main.c ****   /* Initialize all configured peripherals */
 113:Core/Src/main.c ****   MX_GPIO_Init();
 114:Core/Src/main.c ****   MX_USART2_UART_Init();
 115:Core/Src/main.c ****  
 116:Core/Src/main.c ****   /* USER CODE BEGIN 2 */
 117:Core/Src/main.c ****   RetargetInit(&huart2);
 118:Core/Src/main.c ****   LL_USART_EnableIT_RXNE(USART2); 
 119:Core/Src/main.c ****   printf("\r\nSystem Running\n\r");
 120:Core/Src/main.c ****   printf("\r\nSTM$");
 121:Core/Src/main.c ****   /* USER CODE END 2 */
 122:Core/Src/main.c **** 
 123:Core/Src/main.c ****   /* Infinite loop */
ARM GAS  /tmp/ccVvGxMz.s 			page 4


 124:Core/Src/main.c ****   /* USER CODE BEGIN WHILE */
 125:Core/Src/main.c ****   while (1)
 126:Core/Src/main.c ****   {
 127:Core/Src/main.c **** 
 128:Core/Src/main.c ****     if ((ch = dequeue(&rx_queue))) {
 129:Core/Src/main.c ****       putchar(ch);
 130:Core/Src/main.c ****       command_line[n] = ch;
 131:Core/Src/main.c ****       if(ch == '\r' || ch == '\n'){
 132:Core/Src/main.c **** 	command_line[n] = '\0'; //end of string
 133:Core/Src/main.c ****       	if(!execute_command(command_line)){
 134:Core/Src/main.c **** 	  printf("\r\nOK");
 135:Core/Src/main.c **** 	}else{
 136:Core/Src/main.c **** 	  printf("\r\nNOK");
 137:Core/Src/main.c **** 	}
 138:Core/Src/main.c **** 	n = 0;
 139:Core/Src/main.c **** 	printf("\r\nSTM$");
 140:Core/Src/main.c ****       }else{
 141:Core/Src/main.c **** 	n++;
 142:Core/Src/main.c ****       }
 143:Core/Src/main.c ****       
 144:Core/Src/main.c ****     }
 145:Core/Src/main.c ****   }
 146:Core/Src/main.c ****    
 147:Core/Src/main.c ****     
 148:Core/Src/main.c ****     /* USER CODE END WHILE */
 149:Core/Src/main.c **** 
 150:Core/Src/main.c ****     /* USER CODE BEGIN 3 */
 151:Core/Src/main.c ****   
 152:Core/Src/main.c ****   /* USER CODE END 3 */
 153:Core/Src/main.c **** }
 154:Core/Src/main.c **** 
 155:Core/Src/main.c **** /**
 156:Core/Src/main.c ****   * @brief System Clock Configuration
 157:Core/Src/main.c ****   * @retval None
 158:Core/Src/main.c ****   */
 159:Core/Src/main.c **** void SystemClock_Config(void)
 160:Core/Src/main.c **** {
 161:Core/Src/main.c ****   RCC_OscInitTypeDef RCC_OscInitStruct = {0};
 162:Core/Src/main.c ****   RCC_ClkInitTypeDef RCC_ClkInitStruct = {0};
 163:Core/Src/main.c **** 
 164:Core/Src/main.c ****   /** Configure the main internal regulator output voltage
 165:Core/Src/main.c ****   */
 166:Core/Src/main.c ****   if (HAL_PWREx_ControlVoltageScaling(PWR_REGULATOR_VOLTAGE_SCALE1) != HAL_OK)
 167:Core/Src/main.c ****   {
 168:Core/Src/main.c ****     Error_Handler();
 169:Core/Src/main.c ****   }
 170:Core/Src/main.c ****   /** Configure LSE Drive Capability
 171:Core/Src/main.c ****   */
 172:Core/Src/main.c ****   HAL_PWR_EnableBkUpAccess();
 173:Core/Src/main.c ****   __HAL_RCC_LSEDRIVE_CONFIG(RCC_LSEDRIVE_LOW);
 174:Core/Src/main.c ****   /** Initializes the RCC Oscillators according to the specified parameters
 175:Core/Src/main.c ****   * in the RCC_OscInitTypeDef structure.
 176:Core/Src/main.c ****   */
 177:Core/Src/main.c ****   RCC_OscInitStruct.OscillatorType = RCC_OSCILLATORTYPE_LSE|RCC_OSCILLATORTYPE_MSI;
 178:Core/Src/main.c ****   RCC_OscInitStruct.LSEState = RCC_LSE_ON;
 179:Core/Src/main.c ****   RCC_OscInitStruct.MSIState = RCC_MSI_ON;
 180:Core/Src/main.c ****   RCC_OscInitStruct.MSICalibrationValue = 0;
ARM GAS  /tmp/ccVvGxMz.s 			page 5


 181:Core/Src/main.c ****   RCC_OscInitStruct.MSIClockRange = RCC_MSIRANGE_10;
 182:Core/Src/main.c ****   RCC_OscInitStruct.PLL.PLLState = RCC_PLL_NONE;
 183:Core/Src/main.c ****   if (HAL_RCC_OscConfig(&RCC_OscInitStruct) != HAL_OK)
 184:Core/Src/main.c ****   {
 185:Core/Src/main.c ****     Error_Handler();
 186:Core/Src/main.c ****   }
 187:Core/Src/main.c ****   /** Initializes the CPU, AHB and APB buses clocks
 188:Core/Src/main.c ****   */
 189:Core/Src/main.c ****   RCC_ClkInitStruct.ClockType = RCC_CLOCKTYPE_HCLK|RCC_CLOCKTYPE_SYSCLK
 190:Core/Src/main.c ****                               |RCC_CLOCKTYPE_PCLK1|RCC_CLOCKTYPE_PCLK2;
 191:Core/Src/main.c ****   RCC_ClkInitStruct.SYSCLKSource = RCC_SYSCLKSOURCE_MSI;
 192:Core/Src/main.c ****   RCC_ClkInitStruct.AHBCLKDivider = RCC_SYSCLK_DIV1;
 193:Core/Src/main.c ****   RCC_ClkInitStruct.APB1CLKDivider = RCC_HCLK_DIV1;
 194:Core/Src/main.c ****   RCC_ClkInitStruct.APB2CLKDivider = RCC_HCLK_DIV1;
 195:Core/Src/main.c **** 
 196:Core/Src/main.c ****   if (HAL_RCC_ClockConfig(&RCC_ClkInitStruct, FLASH_LATENCY_1) != HAL_OK)
 197:Core/Src/main.c ****   {
 198:Core/Src/main.c ****     Error_Handler();
 199:Core/Src/main.c ****   }
 200:Core/Src/main.c ****   /** Enable MSI Auto calibration
 201:Core/Src/main.c ****   */
 202:Core/Src/main.c ****   HAL_RCCEx_EnableMSIPLLMode();
 203:Core/Src/main.c **** }
 204:Core/Src/main.c **** 
 205:Core/Src/main.c **** /**
 206:Core/Src/main.c ****   * @brief USART2 Initialization Function
 207:Core/Src/main.c ****   * @param None
 208:Core/Src/main.c ****   * @retval None
 209:Core/Src/main.c ****   */
 210:Core/Src/main.c **** static void MX_USART2_UART_Init(void)
 211:Core/Src/main.c **** {
 212:Core/Src/main.c **** 
 213:Core/Src/main.c ****   /* USER CODE BEGIN USART2_Init 0 */
 214:Core/Src/main.c **** 
 215:Core/Src/main.c ****   /* USER CODE END USART2_Init 0 */
 216:Core/Src/main.c **** 
 217:Core/Src/main.c ****   /* USER CODE BEGIN USART2_Init 1 */
 218:Core/Src/main.c **** 
 219:Core/Src/main.c ****   /* USER CODE END USART2_Init 1 */
 220:Core/Src/main.c ****   huart2.Instance = USART2;
 221:Core/Src/main.c ****   huart2.Init.BaudRate = 9600;
 222:Core/Src/main.c ****   huart2.Init.WordLength = UART_WORDLENGTH_8B;
 223:Core/Src/main.c ****   huart2.Init.StopBits = UART_STOPBITS_1;
 224:Core/Src/main.c ****   huart2.Init.Parity = UART_PARITY_NONE;
 225:Core/Src/main.c ****   huart2.Init.Mode = UART_MODE_TX_RX;
 226:Core/Src/main.c ****   huart2.Init.HwFlowCtl = UART_HWCONTROL_NONE;
 227:Core/Src/main.c ****   huart2.Init.OverSampling = UART_OVERSAMPLING_16;
 228:Core/Src/main.c ****   huart2.Init.OneBitSampling = UART_ONE_BIT_SAMPLE_DISABLE;
 229:Core/Src/main.c ****   huart2.AdvancedInit.AdvFeatureInit = UART_ADVFEATURE_NO_INIT;
 230:Core/Src/main.c ****   if (HAL_UART_Init(&huart2) != HAL_OK)
 231:Core/Src/main.c ****   {
 232:Core/Src/main.c ****     Error_Handler();
 233:Core/Src/main.c ****   }
 234:Core/Src/main.c ****   /* USER CODE BEGIN USART2_Init 2 */
 235:Core/Src/main.c ****   /* USER CODE END USART2_Init 2 */
 236:Core/Src/main.c **** 
 237:Core/Src/main.c **** }
ARM GAS  /tmp/ccVvGxMz.s 			page 6


 238:Core/Src/main.c **** 
 239:Core/Src/main.c **** /**
 240:Core/Src/main.c ****   * @brief GPIO Initialization Function
 241:Core/Src/main.c ****   * @param None
 242:Core/Src/main.c ****   * @retval None
 243:Core/Src/main.c ****   */
 244:Core/Src/main.c **** static void MX_GPIO_Init(void)
 245:Core/Src/main.c **** {
 246:Core/Src/main.c ****   GPIO_InitTypeDef GPIO_InitStruct = {0};
 247:Core/Src/main.c **** 
 248:Core/Src/main.c ****   /* GPIO Ports Clock Enable */
 249:Core/Src/main.c ****   __HAL_RCC_GPIOC_CLK_ENABLE();
 250:Core/Src/main.c ****   __HAL_RCC_GPIOA_CLK_ENABLE();
 251:Core/Src/main.c ****   __HAL_RCC_GPIOB_CLK_ENABLE();
 252:Core/Src/main.c **** 
 253:Core/Src/main.c ****   /*Configure GPIO pin Output Level */
 254:Core/Src/main.c ****   HAL_GPIO_WritePin(LD3_GPIO_Port, LD3_Pin, GPIO_PIN_RESET);
 255:Core/Src/main.c **** 
 256:Core/Src/main.c ****   /*Configure GPIO pin : LD3_Pin */
 257:Core/Src/main.c ****   GPIO_InitStruct.Pin = LD3_Pin;
 258:Core/Src/main.c ****   GPIO_InitStruct.Mode = GPIO_MODE_OUTPUT_PP;
 259:Core/Src/main.c ****   GPIO_InitStruct.Pull = GPIO_NOPULL;
 260:Core/Src/main.c ****   GPIO_InitStruct.Speed = GPIO_SPEED_FREQ_LOW;
 261:Core/Src/main.c ****   HAL_GPIO_Init(LD3_GPIO_Port, &GPIO_InitStruct);
 262:Core/Src/main.c **** 
 263:Core/Src/main.c **** }
 264:Core/Src/main.c **** 
 265:Core/Src/main.c **** /* USER CODE BEGIN 4 */
 266:Core/Src/main.c **** int execute_command(uint8_t * line) {
 267:Core/Src/main.c ****   uint8_t *cmd;
 268:Core/Src/main.c ****   uint8_t *arg;
 269:Core/Src/main.c ****   command_t *p = commands;
 270:Core/Src/main.c ****   int success = 0;
 271:Core/Src/main.c **** 
 272:Core/Src/main.c ****   if (!line) {
 273:Core/Src/main.c ****     return (-1); // Passed a bad pointer 
 274:Core/Src/main.c ****   }
 275:Core/Src/main.c ****   if (parse_command(line,&cmd,&arg) == -1) {
 276:Core/Src/main.c ****     printf("Error with parse command\n\r");
 277:Core/Src/main.c ****     return (-1);
 278:Core/Src/main.c ****   }
 279:Core/Src/main.c ****   while (p->cmd_string) {
 280:Core/Src/main.c ****     if (!strcmp(p->cmd_string,(char *) cmd)) {
 281:Core/Src/main.c ****       if (!p->cmd_function) {
 282:Core/Src/main.c ****         return (-1);
 283:Core/Src/main.c ****       }
 284:Core/Src/main.c ****       (*p->cmd_function)((char *)arg);            // Run the command with the passed arguments
 285:Core/Src/main.c ****       success = 1;
 286:Core/Src/main.c ****       break;
 287:Core/Src/main.c ****     }
 288:Core/Src/main.c ****     p++;
 289:Core/Src/main.c ****   }
 290:Core/Src/main.c ****   if (success) {
 291:Core/Src/main.c ****     return (0);
 292:Core/Src/main.c ****   }
 293:Core/Src/main.c ****   else {
 294:Core/Src/main.c ****     return (-1);
ARM GAS  /tmp/ccVvGxMz.s 			page 7


 295:Core/Src/main.c ****   }
 296:Core/Src/main.c ****   }
 297:Core/Src/main.c **** int parse_command (uint8_t *line, uint8_t **command, uint8_t **args){
 298:Core/Src/main.c **** 
 299:Core/Src/main.c ****   uint8_t *line_temp;
 300:Core/Src/main.c ****   if((!line) || (!command) || (!args)){ //check for bad pointer
 301:Core/Src/main.c ****     return(-1); 
 302:Core/Src/main.c ****   }
 303:Core/Src/main.c ****   line_temp= line;
 304:Core/Src/main.c ****   *command = line;
 305:Core/Src/main.c ****   //strcpy(line_left, line);
 306:Core/Src/main.c ****   while(*line_temp != ','){ //increment through input to find end of command
 307:Core/Src/main.c ****     if(!*line_temp){
 308:Core/Src/main.c ****       *args = '\0'; //no arguments
 309:Core/Src/main.c ****       return(0);
 310:Core/Src/main.c ****     }
 311:Core/Src/main.c ****     line_temp++;
 312:Core/Src/main.c ****   }
 313:Core/Src/main.c **** 
 314:Core/Src/main.c ****   *line_temp = '\0'; //replace comma with null for end of command string
 315:Core/Src/main.c ****   *args = line_temp +1; //one char past null is beginning of arguments
 316:Core/Src/main.c ****   return 0;
 317:Core/Src/main.c **** }
 318:Core/Src/main.c **** void help_command(char *args){
  43              		.loc 1 318 30 view -0
  44              		.cfi_startproc
  45              		@ args = 0, pretend = 0, frame = 0
  46              		@ frame_needed = 0, uses_anonymous_args = 0
  47              		.loc 1 318 30 is_stmt 0 view .LVU1
  48 0000 08B5     		push	{r3, lr}
  49              	.LCFI0:
  50              		.cfi_def_cfa_offset 8
  51              		.cfi_offset 3, -8
  52              		.cfi_offset 14, -4
 319:Core/Src/main.c ****   printf("\r\nAvailable Commands:\n\r");
  53              		.loc 1 319 3 is_stmt 1 view .LVU2
  54 0002 0648     		ldr	r0, .L3
  55              	.LVL1:
  56              		.loc 1 319 3 is_stmt 0 view .LVU3
  57 0004 FFF7FEFF 		bl	printf
  58              	.LVL2:
 320:Core/Src/main.c ****   printf("lon\n\r");
  59              		.loc 1 320 3 is_stmt 1 view .LVU4
  60 0008 0548     		ldr	r0, .L3+4
  61 000a FFF7FEFF 		bl	printf
  62              	.LVL3:
 321:Core/Src/main.c ****   printf("lof\n\r");
  63              		.loc 1 321 3 view .LVU5
  64 000e 0548     		ldr	r0, .L3+8
  65 0010 FFF7FEFF 		bl	printf
  66              	.LVL4:
 322:Core/Src/main.c ****   printf("test\n\r");
  67              		.loc 1 322 3 view .LVU6
  68 0014 0448     		ldr	r0, .L3+12
  69 0016 FFF7FEFF 		bl	printf
  70              	.LVL5:
 323:Core/Src/main.c **** }
ARM GAS  /tmp/ccVvGxMz.s 			page 8


  71              		.loc 1 323 1 is_stmt 0 view .LVU7
  72 001a 08BD     		pop	{r3, pc}
  73              	.L4:
  74              		.align	2
  75              	.L3:
  76 001c 00000000 		.word	.LC0
  77 0020 18000000 		.word	.LC1
  78 0024 20000000 		.word	.LC2
  79 0028 28000000 		.word	.LC3
  80              		.cfi_endproc
  81              	.LFE358:
  83              		.section	.text.MX_GPIO_Init,"ax",%progbits
  84              		.align	1
  85              		.syntax unified
  86              		.thumb
  87              		.thumb_func
  89              	MX_GPIO_Init:
  90              	.LFB355:
 245:Core/Src/main.c ****   GPIO_InitTypeDef GPIO_InitStruct = {0};
  91              		.loc 1 245 1 is_stmt 1 view -0
  92              		.cfi_startproc
  93              		@ args = 0, pretend = 0, frame = 32
  94              		@ frame_needed = 0, uses_anonymous_args = 0
  95 0000 30B5     		push	{r4, r5, lr}
  96              	.LCFI1:
  97              		.cfi_def_cfa_offset 12
  98              		.cfi_offset 4, -12
  99              		.cfi_offset 5, -8
 100              		.cfi_offset 14, -4
 101 0002 89B0     		sub	sp, sp, #36
 102              	.LCFI2:
 103              		.cfi_def_cfa_offset 48
 246:Core/Src/main.c **** 
 104              		.loc 1 246 3 view .LVU9
 246:Core/Src/main.c **** 
 105              		.loc 1 246 20 is_stmt 0 view .LVU10
 106 0004 0024     		movs	r4, #0
 107 0006 0394     		str	r4, [sp, #12]
 108 0008 0494     		str	r4, [sp, #16]
 109 000a 0594     		str	r4, [sp, #20]
 110 000c 0694     		str	r4, [sp, #24]
 111 000e 0794     		str	r4, [sp, #28]
 249:Core/Src/main.c ****   __HAL_RCC_GPIOA_CLK_ENABLE();
 112              		.loc 1 249 3 is_stmt 1 view .LVU11
 113              	.LBB16:
 249:Core/Src/main.c ****   __HAL_RCC_GPIOA_CLK_ENABLE();
 114              		.loc 1 249 3 view .LVU12
 249:Core/Src/main.c ****   __HAL_RCC_GPIOA_CLK_ENABLE();
 115              		.loc 1 249 3 view .LVU13
 116 0010 164B     		ldr	r3, .L7
 117 0012 DA6C     		ldr	r2, [r3, #76]
 118 0014 42F00402 		orr	r2, r2, #4
 119 0018 DA64     		str	r2, [r3, #76]
 249:Core/Src/main.c ****   __HAL_RCC_GPIOA_CLK_ENABLE();
 120              		.loc 1 249 3 view .LVU14
 121 001a DA6C     		ldr	r2, [r3, #76]
 122 001c 02F00402 		and	r2, r2, #4
ARM GAS  /tmp/ccVvGxMz.s 			page 9


 123 0020 0092     		str	r2, [sp]
 249:Core/Src/main.c ****   __HAL_RCC_GPIOA_CLK_ENABLE();
 124              		.loc 1 249 3 view .LVU15
 125 0022 009A     		ldr	r2, [sp]
 126              	.LBE16:
 249:Core/Src/main.c ****   __HAL_RCC_GPIOA_CLK_ENABLE();
 127              		.loc 1 249 3 view .LVU16
 250:Core/Src/main.c ****   __HAL_RCC_GPIOB_CLK_ENABLE();
 128              		.loc 1 250 3 view .LVU17
 129              	.LBB17:
 250:Core/Src/main.c ****   __HAL_RCC_GPIOB_CLK_ENABLE();
 130              		.loc 1 250 3 view .LVU18
 250:Core/Src/main.c ****   __HAL_RCC_GPIOB_CLK_ENABLE();
 131              		.loc 1 250 3 view .LVU19
 132 0024 DA6C     		ldr	r2, [r3, #76]
 133 0026 42F00102 		orr	r2, r2, #1
 134 002a DA64     		str	r2, [r3, #76]
 250:Core/Src/main.c ****   __HAL_RCC_GPIOB_CLK_ENABLE();
 135              		.loc 1 250 3 view .LVU20
 136 002c DA6C     		ldr	r2, [r3, #76]
 137 002e 02F00102 		and	r2, r2, #1
 138 0032 0192     		str	r2, [sp, #4]
 250:Core/Src/main.c ****   __HAL_RCC_GPIOB_CLK_ENABLE();
 139              		.loc 1 250 3 view .LVU21
 140 0034 019A     		ldr	r2, [sp, #4]
 141              	.LBE17:
 250:Core/Src/main.c ****   __HAL_RCC_GPIOB_CLK_ENABLE();
 142              		.loc 1 250 3 view .LVU22
 251:Core/Src/main.c **** 
 143              		.loc 1 251 3 view .LVU23
 144              	.LBB18:
 251:Core/Src/main.c **** 
 145              		.loc 1 251 3 view .LVU24
 251:Core/Src/main.c **** 
 146              		.loc 1 251 3 view .LVU25
 147 0036 DA6C     		ldr	r2, [r3, #76]
 148 0038 42F00202 		orr	r2, r2, #2
 149 003c DA64     		str	r2, [r3, #76]
 251:Core/Src/main.c **** 
 150              		.loc 1 251 3 view .LVU26
 151 003e DB6C     		ldr	r3, [r3, #76]
 152 0040 03F00203 		and	r3, r3, #2
 153 0044 0293     		str	r3, [sp, #8]
 251:Core/Src/main.c **** 
 154              		.loc 1 251 3 view .LVU27
 155 0046 029B     		ldr	r3, [sp, #8]
 156              	.LBE18:
 251:Core/Src/main.c **** 
 157              		.loc 1 251 3 view .LVU28
 254:Core/Src/main.c **** 
 158              		.loc 1 254 3 view .LVU29
 159 0048 094D     		ldr	r5, .L7+4
 160 004a 2246     		mov	r2, r4
 161 004c 0821     		movs	r1, #8
 162 004e 2846     		mov	r0, r5
 163 0050 FFF7FEFF 		bl	HAL_GPIO_WritePin
 164              	.LVL6:
ARM GAS  /tmp/ccVvGxMz.s 			page 10


 257:Core/Src/main.c ****   GPIO_InitStruct.Mode = GPIO_MODE_OUTPUT_PP;
 165              		.loc 1 257 3 view .LVU30
 257:Core/Src/main.c ****   GPIO_InitStruct.Mode = GPIO_MODE_OUTPUT_PP;
 166              		.loc 1 257 23 is_stmt 0 view .LVU31
 167 0054 0823     		movs	r3, #8
 168 0056 0393     		str	r3, [sp, #12]
 258:Core/Src/main.c ****   GPIO_InitStruct.Pull = GPIO_NOPULL;
 169              		.loc 1 258 3 is_stmt 1 view .LVU32
 258:Core/Src/main.c ****   GPIO_InitStruct.Pull = GPIO_NOPULL;
 170              		.loc 1 258 24 is_stmt 0 view .LVU33
 171 0058 0123     		movs	r3, #1
 172 005a 0493     		str	r3, [sp, #16]
 259:Core/Src/main.c ****   GPIO_InitStruct.Speed = GPIO_SPEED_FREQ_LOW;
 173              		.loc 1 259 3 is_stmt 1 view .LVU34
 259:Core/Src/main.c ****   GPIO_InitStruct.Speed = GPIO_SPEED_FREQ_LOW;
 174              		.loc 1 259 24 is_stmt 0 view .LVU35
 175 005c 0594     		str	r4, [sp, #20]
 260:Core/Src/main.c ****   HAL_GPIO_Init(LD3_GPIO_Port, &GPIO_InitStruct);
 176              		.loc 1 260 3 is_stmt 1 view .LVU36
 260:Core/Src/main.c ****   HAL_GPIO_Init(LD3_GPIO_Port, &GPIO_InitStruct);
 177              		.loc 1 260 25 is_stmt 0 view .LVU37
 178 005e 0694     		str	r4, [sp, #24]
 261:Core/Src/main.c **** 
 179              		.loc 1 261 3 is_stmt 1 view .LVU38
 180 0060 03A9     		add	r1, sp, #12
 181 0062 2846     		mov	r0, r5
 182 0064 FFF7FEFF 		bl	HAL_GPIO_Init
 183              	.LVL7:
 263:Core/Src/main.c **** 
 184              		.loc 1 263 1 is_stmt 0 view .LVU39
 185 0068 09B0     		add	sp, sp, #36
 186              	.LCFI3:
 187              		.cfi_def_cfa_offset 12
 188              		@ sp needed
 189 006a 30BD     		pop	{r4, r5, pc}
 190              	.L8:
 191              		.align	2
 192              	.L7:
 193 006c 00100240 		.word	1073876992
 194 0070 00040048 		.word	1207960576
 195              		.cfi_endproc
 196              	.LFE355:
 198              		.section	.rodata.lon_command.str1.4,"aMS",%progbits,1
 199              		.align	2
 200              	.LC4:
 201 0000 0D0A4C45 		.ascii	"\015\012LED ON\012\015\000"
 201      44204F4E 
 201      0A0D00
 202 000b 00       		.align	2
 203              	.LC5:
 204 000c 0D0A4C45 		.ascii	"\015\012LED ALREADY ON\012\015\000"
 204      4420414C 
 204      52454144 
 204      59204F4E 
 204      0A0D00
 205              		.section	.text.lon_command,"ax",%progbits
 206              		.align	1
ARM GAS  /tmp/ccVvGxMz.s 			page 11


 207              		.global	lon_command
 208              		.syntax unified
 209              		.thumb
 210              		.thumb_func
 212              	lon_command:
 213              	.LFB359:
 324:Core/Src/main.c **** void lon_command(){
 214              		.loc 1 324 19 is_stmt 1 view -0
 215              		.cfi_startproc
 216              		@ args = 0, pretend = 0, frame = 0
 217              		@ frame_needed = 0, uses_anonymous_args = 0
 218 0000 08B5     		push	{r3, lr}
 219              	.LCFI4:
 220              		.cfi_def_cfa_offset 8
 221              		.cfi_offset 3, -8
 222              		.cfi_offset 14, -4
 325:Core/Src/main.c ****   if(led_on == 0){
 223              		.loc 1 325 3 view .LVU41
 224              		.loc 1 325 13 is_stmt 0 view .LVU42
 225 0002 094B     		ldr	r3, .L13
 226 0004 1B68     		ldr	r3, [r3]
 227              		.loc 1 325 5 view .LVU43
 228 0006 53B9     		cbnz	r3, .L10
 326:Core/Src/main.c ****     HAL_GPIO_TogglePin(LD3_GPIO_Port, LD3_Pin);
 229              		.loc 1 326 5 is_stmt 1 view .LVU44
 230 0008 0821     		movs	r1, #8
 231 000a 0848     		ldr	r0, .L13+4
 232 000c FFF7FEFF 		bl	HAL_GPIO_TogglePin
 233              	.LVL8:
 327:Core/Src/main.c ****     led_on = 1;
 234              		.loc 1 327 5 view .LVU45
 235              		.loc 1 327 12 is_stmt 0 view .LVU46
 236 0010 054B     		ldr	r3, .L13
 237 0012 0122     		movs	r2, #1
 238 0014 1A60     		str	r2, [r3]
 328:Core/Src/main.c ****     printf("\r\nLED ON\n\r");
 239              		.loc 1 328 5 is_stmt 1 view .LVU47
 240 0016 0648     		ldr	r0, .L13+8
 241 0018 FFF7FEFF 		bl	printf
 242              	.LVL9:
 243              	.L9:
 329:Core/Src/main.c ****   }else{
 330:Core/Src/main.c ****     printf("\r\nLED ALREADY ON\n\r");
 331:Core/Src/main.c ****   }
 332:Core/Src/main.c **** 		
 333:Core/Src/main.c **** }
 244              		.loc 1 333 1 is_stmt 0 view .LVU48
 245 001c 08BD     		pop	{r3, pc}
 246              	.L10:
 330:Core/Src/main.c ****   }
 247              		.loc 1 330 5 is_stmt 1 view .LVU49
 248 001e 0548     		ldr	r0, .L13+12
 249 0020 FFF7FEFF 		bl	printf
 250              	.LVL10:
 251              		.loc 1 333 1 is_stmt 0 view .LVU50
 252 0024 FAE7     		b	.L9
 253              	.L14:
ARM GAS  /tmp/ccVvGxMz.s 			page 12


 254 0026 00BF     		.align	2
 255              	.L13:
 256 0028 00000000 		.word	.LANCHOR0
 257 002c 00040048 		.word	1207960576
 258 0030 00000000 		.word	.LC4
 259 0034 0C000000 		.word	.LC5
 260              		.cfi_endproc
 261              	.LFE359:
 263              		.section	.rodata.lof_command.str1.4,"aMS",%progbits,1
 264              		.align	2
 265              	.LC6:
 266 0000 0D0A4C45 		.ascii	"\015\012LED OFF\012\015\000"
 266      44204F46 
 266      460A0D00 
 267              		.align	2
 268              	.LC7:
 269 000c 0D0A4C45 		.ascii	"\015\012LED ALREADY OFF\012\015\000"
 269      4420414C 
 269      52454144 
 269      59204F46 
 269      460A0D00 
 270              		.section	.text.lof_command,"ax",%progbits
 271              		.align	1
 272              		.global	lof_command
 273              		.syntax unified
 274              		.thumb
 275              		.thumb_func
 277              	lof_command:
 278              	.LFB360:
 334:Core/Src/main.c **** void lof_command(){
 279              		.loc 1 334 19 is_stmt 1 view -0
 280              		.cfi_startproc
 281              		@ args = 0, pretend = 0, frame = 0
 282              		@ frame_needed = 0, uses_anonymous_args = 0
 283 0000 08B5     		push	{r3, lr}
 284              	.LCFI5:
 285              		.cfi_def_cfa_offset 8
 286              		.cfi_offset 3, -8
 287              		.cfi_offset 14, -4
 335:Core/Src/main.c ****   if(led_on == 1){
 288              		.loc 1 335 3 view .LVU52
 289              		.loc 1 335 13 is_stmt 0 view .LVU53
 290 0002 094B     		ldr	r3, .L20
 291 0004 1B68     		ldr	r3, [r3]
 292              		.loc 1 335 5 view .LVU54
 293 0006 012B     		cmp	r3, #1
 294 0008 03D0     		beq	.L19
 336:Core/Src/main.c ****     HAL_GPIO_TogglePin(LD3_GPIO_Port, LD3_Pin);
 337:Core/Src/main.c ****     led_on = 0;
 338:Core/Src/main.c ****     printf("\r\nLED OFF\n\r");
 339:Core/Src/main.c ****   }else{
 340:Core/Src/main.c ****     printf("\r\nLED ALREADY OFF\n\r");
 295              		.loc 1 340 5 is_stmt 1 view .LVU55
 296 000a 0848     		ldr	r0, .L20+4
 297 000c FFF7FEFF 		bl	printf
 298              	.LVL11:
 299              	.L15:
ARM GAS  /tmp/ccVvGxMz.s 			page 13


 341:Core/Src/main.c ****   }
 342:Core/Src/main.c ****   
 343:Core/Src/main.c **** }
 300              		.loc 1 343 1 is_stmt 0 view .LVU56
 301 0010 08BD     		pop	{r3, pc}
 302              	.L19:
 336:Core/Src/main.c ****     HAL_GPIO_TogglePin(LD3_GPIO_Port, LD3_Pin);
 303              		.loc 1 336 5 is_stmt 1 view .LVU57
 304 0012 0821     		movs	r1, #8
 305 0014 0648     		ldr	r0, .L20+8
 306 0016 FFF7FEFF 		bl	HAL_GPIO_TogglePin
 307              	.LVL12:
 337:Core/Src/main.c ****     printf("\r\nLED OFF\n\r");
 308              		.loc 1 337 5 view .LVU58
 337:Core/Src/main.c ****     printf("\r\nLED OFF\n\r");
 309              		.loc 1 337 12 is_stmt 0 view .LVU59
 310 001a 034B     		ldr	r3, .L20
 311 001c 0022     		movs	r2, #0
 312 001e 1A60     		str	r2, [r3]
 338:Core/Src/main.c ****   }else{
 313              		.loc 1 338 5 is_stmt 1 view .LVU60
 314 0020 0448     		ldr	r0, .L20+12
 315 0022 FFF7FEFF 		bl	printf
 316              	.LVL13:
 317 0026 F3E7     		b	.L15
 318              	.L21:
 319              		.align	2
 320              	.L20:
 321 0028 00000000 		.word	.LANCHOR0
 322 002c 0C000000 		.word	.LC7
 323 0030 00040048 		.word	1207960576
 324 0034 00000000 		.word	.LC6
 325              		.cfi_endproc
 326              	.LFE360:
 328              		.section	.rodata.test_command.str1.4,"aMS",%progbits,1
 329              		.align	2
 330              	.LC8:
 331 0000 0D0A7465 		.ascii	"\015\012test\012\015\000"
 331      73740A0D 
 331      00
 332 0009 000000   		.align	2
 333              	.LC9:
 334 000c 0D00     		.ascii	"\015\000"
 335              		.section	.text.test_command,"ax",%progbits
 336              		.align	1
 337              		.global	test_command
 338              		.syntax unified
 339              		.thumb
 340              		.thumb_func
 342              	test_command:
 343              	.LVL14:
 344              	.LFB361:
 344:Core/Src/main.c **** void test_command(char *args){
 345              		.loc 1 344 30 view -0
 346              		.cfi_startproc
 347              		@ args = 0, pretend = 0, frame = 0
 348              		@ frame_needed = 0, uses_anonymous_args = 0
ARM GAS  /tmp/ccVvGxMz.s 			page 14


 349              		.loc 1 344 30 is_stmt 0 view .LVU62
 350 0000 10B5     		push	{r4, lr}
 351              	.LCFI6:
 352              		.cfi_def_cfa_offset 8
 353              		.cfi_offset 4, -8
 354              		.cfi_offset 14, -4
 355 0002 0446     		mov	r4, r0
 345:Core/Src/main.c ****   printf("\r\ntest\n\r");
 356              		.loc 1 345 3 is_stmt 1 view .LVU63
 357 0004 0748     		ldr	r0, .L29
 358              	.LVL15:
 359              		.loc 1 345 3 is_stmt 0 view .LVU64
 360 0006 FFF7FEFF 		bl	printf
 361              	.LVL16:
 346:Core/Src/main.c ****   while(*args!='\0'){
 362              		.loc 1 346 3 is_stmt 1 view .LVU65
 363              		.loc 1 346 8 is_stmt 0 view .LVU66
 364 000a 03E0     		b	.L23
 365              	.L24:
 347:Core/Src/main.c ****     if(*args!=','){
 348:Core/Src/main.c ****       putchar(*args);
 349:Core/Src/main.c ****     }else{
 350:Core/Src/main.c ****       printf("\r\n");
 366              		.loc 1 350 7 is_stmt 1 view .LVU67
 367 000c 0648     		ldr	r0, .L29+4
 368 000e FFF7FEFF 		bl	puts
 369              	.LVL17:
 370              	.L25:
 351:Core/Src/main.c ****     }
 352:Core/Src/main.c ****     args++;
 371              		.loc 1 352 5 view .LVU68
 372              		.loc 1 352 9 is_stmt 0 view .LVU69
 373 0012 0134     		adds	r4, r4, #1
 374              	.LVL18:
 375              	.L23:
 346:Core/Src/main.c ****     if(*args!=','){
 376              		.loc 1 346 8 is_stmt 1 view .LVU70
 346:Core/Src/main.c ****     if(*args!=','){
 377              		.loc 1 346 9 is_stmt 0 view .LVU71
 378 0014 2078     		ldrb	r0, [r4]	@ zero_extendqisi2
 346:Core/Src/main.c ****     if(*args!=','){
 379              		.loc 1 346 8 view .LVU72
 380 0016 20B1     		cbz	r0, .L28
 347:Core/Src/main.c ****     if(*args!=','){
 381              		.loc 1 347 5 is_stmt 1 view .LVU73
 347:Core/Src/main.c ****     if(*args!=','){
 382              		.loc 1 347 7 is_stmt 0 view .LVU74
 383 0018 2C28     		cmp	r0, #44
 384 001a F7D0     		beq	.L24
 348:Core/Src/main.c ****     }else{
 385              		.loc 1 348 7 is_stmt 1 view .LVU75
 386 001c FFF7FEFF 		bl	putchar
 387              	.LVL19:
 388 0020 F7E7     		b	.L25
 389              	.L28:
 353:Core/Src/main.c ****   }
 354:Core/Src/main.c **** }
ARM GAS  /tmp/ccVvGxMz.s 			page 15


 390              		.loc 1 354 1 is_stmt 0 view .LVU76
 391 0022 10BD     		pop	{r4, pc}
 392              	.LVL20:
 393              	.L30:
 394              		.loc 1 354 1 view .LVU77
 395              		.align	2
 396              	.L29:
 397 0024 00000000 		.word	.LC8
 398 0028 0C000000 		.word	.LC9
 399              		.cfi_endproc
 400              	.LFE361:
 402              		.section	.text.parse_command,"ax",%progbits
 403              		.align	1
 404              		.global	parse_command
 405              		.syntax unified
 406              		.thumb
 407              		.thumb_func
 409              	parse_command:
 410              	.LVL21:
 411              	.LFB357:
 297:Core/Src/main.c **** 
 412              		.loc 1 297 69 is_stmt 1 view -0
 413              		.cfi_startproc
 414              		@ args = 0, pretend = 0, frame = 0
 415              		@ frame_needed = 0, uses_anonymous_args = 0
 416              		@ link register save eliminated.
 299:Core/Src/main.c ****   if((!line) || (!command) || (!args)){ //check for bad pointer
 417              		.loc 1 299 3 view .LVU79
 300:Core/Src/main.c ****     return(-1); 
 418              		.loc 1 300 3 view .LVU80
 300:Core/Src/main.c ****     return(-1); 
 419              		.loc 1 300 5 is_stmt 0 view .LVU81
 420 0000 0346     		mov	r3, r0
 421 0002 88B1     		cbz	r0, .L36
 300:Core/Src/main.c ****     return(-1); 
 422              		.loc 1 300 14 discriminator 1 view .LVU82
 423 0004 99B1     		cbz	r1, .L37
 300:Core/Src/main.c ****     return(-1); 
 424              		.loc 1 300 28 discriminator 2 view .LVU83
 425 0006 AAB1     		cbz	r2, .L38
 303:Core/Src/main.c ****   *command = line;
 426              		.loc 1 303 3 is_stmt 1 view .LVU84
 427              	.LVL22:
 304:Core/Src/main.c ****   //strcpy(line_left, line);
 428              		.loc 1 304 3 view .LVU85
 304:Core/Src/main.c ****   //strcpy(line_left, line);
 429              		.loc 1 304 12 is_stmt 0 view .LVU86
 430 0008 0860     		str	r0, [r1]
 306:Core/Src/main.c ****     if(!*line_temp){
 431              		.loc 1 306 3 is_stmt 1 view .LVU87
 306:Core/Src/main.c ****     if(!*line_temp){
 432              		.loc 1 306 8 is_stmt 0 view .LVU88
 433 000a 00E0     		b	.L33
 434              	.LVL23:
 435              	.L34:
 311:Core/Src/main.c ****   }
 436              		.loc 1 311 5 is_stmt 1 view .LVU89
ARM GAS  /tmp/ccVvGxMz.s 			page 16


 311:Core/Src/main.c ****   }
 437              		.loc 1 311 14 is_stmt 0 view .LVU90
 438 000c 0133     		adds	r3, r3, #1
 439              	.LVL24:
 440              	.L33:
 306:Core/Src/main.c ****     if(!*line_temp){
 441              		.loc 1 306 8 is_stmt 1 view .LVU91
 306:Core/Src/main.c ****     if(!*line_temp){
 442              		.loc 1 306 9 is_stmt 0 view .LVU92
 443 000e 1978     		ldrb	r1, [r3]	@ zero_extendqisi2
 306:Core/Src/main.c ****     if(!*line_temp){
 444              		.loc 1 306 8 view .LVU93
 445 0010 2C29     		cmp	r1, #44
 446 0012 04D0     		beq	.L39
 307:Core/Src/main.c ****       *args = '\0'; //no arguments
 447              		.loc 1 307 5 is_stmt 1 view .LVU94
 307:Core/Src/main.c ****       *args = '\0'; //no arguments
 448              		.loc 1 307 7 is_stmt 0 view .LVU95
 449 0014 0029     		cmp	r1, #0
 450 0016 F9D1     		bne	.L34
 308:Core/Src/main.c ****       return(0);
 451              		.loc 1 308 7 is_stmt 1 view .LVU96
 308:Core/Src/main.c ****       return(0);
 452              		.loc 1 308 13 is_stmt 0 view .LVU97
 453 0018 0020     		movs	r0, #0
 454              	.LVL25:
 308:Core/Src/main.c ****       return(0);
 455              		.loc 1 308 13 view .LVU98
 456 001a 1060     		str	r0, [r2]
 457              	.LVL26:
 309:Core/Src/main.c ****     }
 458              		.loc 1 309 7 is_stmt 1 view .LVU99
 309:Core/Src/main.c ****     }
 459              		.loc 1 309 13 is_stmt 0 view .LVU100
 460 001c 7047     		bx	lr
 461              	.LVL27:
 462              	.L39:
 314:Core/Src/main.c ****   *args = line_temp +1; //one char past null is beginning of arguments
 463              		.loc 1 314 3 is_stmt 1 view .LVU101
 314:Core/Src/main.c ****   *args = line_temp +1; //one char past null is beginning of arguments
 464              		.loc 1 314 14 is_stmt 0 view .LVU102
 465 001e 0020     		movs	r0, #0
 466              	.LVL28:
 314:Core/Src/main.c ****   *args = line_temp +1; //one char past null is beginning of arguments
 467              		.loc 1 314 14 view .LVU103
 468 0020 03F8010B 		strb	r0, [r3], #1
 469              	.LVL29:
 315:Core/Src/main.c ****   return 0;
 470              		.loc 1 315 3 is_stmt 1 view .LVU104
 315:Core/Src/main.c ****   return 0;
 471              		.loc 1 315 9 is_stmt 0 view .LVU105
 472 0024 1360     		str	r3, [r2]
 316:Core/Src/main.c **** }
 473              		.loc 1 316 3 is_stmt 1 view .LVU106
 316:Core/Src/main.c **** }
 474              		.loc 1 316 10 is_stmt 0 view .LVU107
 475 0026 7047     		bx	lr
ARM GAS  /tmp/ccVvGxMz.s 			page 17


 476              	.LVL30:
 477              	.L36:
 301:Core/Src/main.c ****   }
 478              		.loc 1 301 11 view .LVU108
 479 0028 4FF0FF30 		mov	r0, #-1
 480              	.LVL31:
 301:Core/Src/main.c ****   }
 481              		.loc 1 301 11 view .LVU109
 482 002c 7047     		bx	lr
 483              	.LVL32:
 484              	.L37:
 301:Core/Src/main.c ****   }
 485              		.loc 1 301 11 view .LVU110
 486 002e 4FF0FF30 		mov	r0, #-1
 487              	.LVL33:
 301:Core/Src/main.c ****   }
 488              		.loc 1 301 11 view .LVU111
 489 0032 7047     		bx	lr
 490              	.LVL34:
 491              	.L38:
 301:Core/Src/main.c ****   }
 492              		.loc 1 301 11 view .LVU112
 493 0034 4FF0FF30 		mov	r0, #-1
 494              	.LVL35:
 317:Core/Src/main.c **** void help_command(char *args){
 495              		.loc 1 317 1 view .LVU113
 496 0038 7047     		bx	lr
 497              		.cfi_endproc
 498              	.LFE357:
 500              		.section	.rodata.execute_command.str1.4,"aMS",%progbits,1
 501              		.align	2
 502              	.LC10:
 503 0000 4572726F 		.ascii	"Error with parse command\012\015\000"
 503      72207769 
 503      74682070 
 503      61727365 
 503      20636F6D 
 504              		.section	.text.execute_command,"ax",%progbits
 505              		.align	1
 506              		.global	execute_command
 507              		.syntax unified
 508              		.thumb
 509              		.thumb_func
 511              	execute_command:
 512              	.LVL36:
 513              	.LFB356:
 266:Core/Src/main.c ****   uint8_t *cmd;
 514              		.loc 1 266 37 is_stmt 1 view -0
 515              		.cfi_startproc
 516              		@ args = 0, pretend = 0, frame = 8
 517              		@ frame_needed = 0, uses_anonymous_args = 0
 266:Core/Src/main.c ****   uint8_t *cmd;
 518              		.loc 1 266 37 is_stmt 0 view .LVU115
 519 0000 30B5     		push	{r4, r5, lr}
 520              	.LCFI7:
 521              		.cfi_def_cfa_offset 12
 522              		.cfi_offset 4, -12
ARM GAS  /tmp/ccVvGxMz.s 			page 18


 523              		.cfi_offset 5, -8
 524              		.cfi_offset 14, -4
 525 0002 83B0     		sub	sp, sp, #12
 526              	.LCFI8:
 527              		.cfi_def_cfa_offset 24
 267:Core/Src/main.c ****   uint8_t *arg;
 528              		.loc 1 267 3 is_stmt 1 view .LVU116
 268:Core/Src/main.c ****   command_t *p = commands;
 529              		.loc 1 268 3 view .LVU117
 269:Core/Src/main.c ****   int success = 0;
 530              		.loc 1 269 3 view .LVU118
 531              	.LVL37:
 270:Core/Src/main.c **** 
 532              		.loc 1 270 3 view .LVU119
 272:Core/Src/main.c ****     return (-1); // Passed a bad pointer 
 533              		.loc 1 272 3 view .LVU120
 272:Core/Src/main.c ****     return (-1); // Passed a bad pointer 
 534              		.loc 1 272 6 is_stmt 0 view .LVU121
 535 0004 F8B1     		cbz	r0, .L45
 275:Core/Src/main.c ****     printf("Error with parse command\n\r");
 536              		.loc 1 275 3 is_stmt 1 view .LVU122
 275:Core/Src/main.c ****     printf("Error with parse command\n\r");
 537              		.loc 1 275 7 is_stmt 0 view .LVU123
 538 0006 6A46     		mov	r2, sp
 539 0008 01A9     		add	r1, sp, #4
 540 000a FFF7FEFF 		bl	parse_command
 541              	.LVL38:
 275:Core/Src/main.c ****     printf("Error with parse command\n\r");
 542              		.loc 1 275 7 view .LVU124
 543 000e 0546     		mov	r5, r0
 275:Core/Src/main.c ****     printf("Error with parse command\n\r");
 544              		.loc 1 275 6 view .LVU125
 545 0010 B0F1FF3F 		cmp	r0, #-1
 546 0014 09D0     		beq	.L49
 269:Core/Src/main.c ****   int success = 0;
 547              		.loc 1 269 14 view .LVU126
 548 0016 0F4C     		ldr	r4, .L52
 549              	.LVL39:
 550              	.L42:
 279:Core/Src/main.c ****     if (!strcmp(p->cmd_string,(char *) cmd)) {
 551              		.loc 1 279 9 is_stmt 1 view .LVU127
 279:Core/Src/main.c ****     if (!strcmp(p->cmd_string,(char *) cmd)) {
 552              		.loc 1 279 11 is_stmt 0 view .LVU128
 553 0018 2068     		ldr	r0, [r4]
 279:Core/Src/main.c ****     if (!strcmp(p->cmd_string,(char *) cmd)) {
 554              		.loc 1 279 9 view .LVU129
 555 001a 78B1     		cbz	r0, .L50
 280:Core/Src/main.c ****       if (!p->cmd_function) {
 556              		.loc 1 280 5 is_stmt 1 view .LVU130
 280:Core/Src/main.c ****       if (!p->cmd_function) {
 557              		.loc 1 280 10 is_stmt 0 view .LVU131
 558 001c 0199     		ldr	r1, [sp, #4]
 559 001e FFF7FEFF 		bl	strcmp
 560              	.LVL40:
 280:Core/Src/main.c ****       if (!p->cmd_function) {
 561              		.loc 1 280 8 view .LVU132
 562 0022 0546     		mov	r5, r0
ARM GAS  /tmp/ccVvGxMz.s 			page 19


 563 0024 28B1     		cbz	r0, .L51
 288:Core/Src/main.c ****   }
 564              		.loc 1 288 5 is_stmt 1 view .LVU133
 288:Core/Src/main.c ****   }
 565              		.loc 1 288 6 is_stmt 0 view .LVU134
 566 0026 0834     		adds	r4, r4, #8
 567              	.LVL41:
 288:Core/Src/main.c ****   }
 568              		.loc 1 288 6 view .LVU135
 569 0028 F6E7     		b	.L42
 570              	.LVL42:
 571              	.L49:
 276:Core/Src/main.c ****     return (-1);
 572              		.loc 1 276 5 is_stmt 1 view .LVU136
 573 002a 0B48     		ldr	r0, .L52+4
 574 002c FFF7FEFF 		bl	printf
 575              	.LVL43:
 277:Core/Src/main.c ****   }
 576              		.loc 1 277 5 view .LVU137
 277:Core/Src/main.c ****   }
 577              		.loc 1 277 12 is_stmt 0 view .LVU138
 578 0030 06E0     		b	.L40
 579              	.LVL44:
 580              	.L51:
 281:Core/Src/main.c ****         return (-1);
 581              		.loc 1 281 7 is_stmt 1 view .LVU139
 281:Core/Src/main.c ****         return (-1);
 582              		.loc 1 281 13 is_stmt 0 view .LVU140
 583 0032 6368     		ldr	r3, [r4, #4]
 281:Core/Src/main.c ****         return (-1);
 584              		.loc 1 281 10 view .LVU141
 585 0034 53B1     		cbz	r3, .L47
 284:Core/Src/main.c ****       success = 1;
 586              		.loc 1 284 7 is_stmt 1 view .LVU142
 284:Core/Src/main.c ****       success = 1;
 587              		.loc 1 284 8 is_stmt 0 view .LVU143
 588 0036 0098     		ldr	r0, [sp]
 589 0038 9847     		blx	r3
 590              	.LVL45:
 285:Core/Src/main.c ****       break;
 591              		.loc 1 285 7 is_stmt 1 view .LVU144
 286:Core/Src/main.c ****     }
 592              		.loc 1 286 7 view .LVU145
 290:Core/Src/main.c ****     return (0);
 593              		.loc 1 290 3 view .LVU146
 291:Core/Src/main.c ****   }
 594              		.loc 1 291 5 view .LVU147
 291:Core/Src/main.c ****   }
 595              		.loc 1 291 12 is_stmt 0 view .LVU148
 596 003a 01E0     		b	.L40
 597              	.LVL46:
 598              	.L50:
 294:Core/Src/main.c ****   }
 599              		.loc 1 294 12 view .LVU149
 600 003c 4FF0FF35 		mov	r5, #-1
 601              	.LVL47:
 602              	.L40:
ARM GAS  /tmp/ccVvGxMz.s 			page 20


 296:Core/Src/main.c **** int parse_command (uint8_t *line, uint8_t **command, uint8_t **args){
 603              		.loc 1 296 3 view .LVU150
 604 0040 2846     		mov	r0, r5
 605 0042 03B0     		add	sp, sp, #12
 606              	.LCFI9:
 607              		.cfi_remember_state
 608              		.cfi_def_cfa_offset 12
 609              		@ sp needed
 610 0044 30BD     		pop	{r4, r5, pc}
 611              	.LVL48:
 612              	.L45:
 613              	.LCFI10:
 614              		.cfi_restore_state
 273:Core/Src/main.c ****   }
 615              		.loc 1 273 12 view .LVU151
 616 0046 4FF0FF35 		mov	r5, #-1
 617 004a F9E7     		b	.L40
 618              	.LVL49:
 619              	.L47:
 282:Core/Src/main.c ****       }
 620              		.loc 1 282 16 view .LVU152
 621 004c 4FF0FF35 		mov	r5, #-1
 622              	.LVL50:
 282:Core/Src/main.c ****       }
 623              		.loc 1 282 16 view .LVU153
 624 0050 F6E7     		b	.L40
 625              	.L53:
 626 0052 00BF     		.align	2
 627              	.L52:
 628 0054 00000000 		.word	.LANCHOR1
 629 0058 00000000 		.word	.LC10
 630              		.cfi_endproc
 631              	.LFE356:
 633              		.section	.text.Error_Handler,"ax",%progbits
 634              		.align	1
 635              		.global	Error_Handler
 636              		.syntax unified
 637              		.thumb
 638              		.thumb_func
 640              	Error_Handler:
 641              	.LFB362:
 355:Core/Src/main.c **** 
 356:Core/Src/main.c **** /* USER CODE END 4 */
 357:Core/Src/main.c **** 
 358:Core/Src/main.c **** /**
 359:Core/Src/main.c ****   * @brief  This function is executed in case of error occurrence.
 360:Core/Src/main.c ****   * @retval None
 361:Core/Src/main.c ****   */
 362:Core/Src/main.c **** void Error_Handler(void)
 363:Core/Src/main.c **** {
 642              		.loc 1 363 1 is_stmt 1 view -0
 643              		.cfi_startproc
 644              		@ Volatile: function does not return.
 645              		@ args = 0, pretend = 0, frame = 0
 646              		@ frame_needed = 0, uses_anonymous_args = 0
 647              		@ link register save eliminated.
 364:Core/Src/main.c ****   /* USER CODE BEGIN Error_Handler_Debug */
ARM GAS  /tmp/ccVvGxMz.s 			page 21


 365:Core/Src/main.c ****   /* User can add his own implementation to report the HAL error return state */
 366:Core/Src/main.c ****   __disable_irq();
 648              		.loc 1 366 3 view .LVU155
 649              	.LBB19:
 650              	.LBI19:
 651              		.file 2 "/home/barnecle/STM32Cube/Repository/STM32Cube_FW_L4_V1.17.1/Drivers/CMSIS/Include/cmsis_g
   1:/home/barnecle/STM32Cube/Repository/STM32Cube_FW_L4_V1.17.1/Drivers/CMSIS/Include/cmsis_gcc.h **** /**************************************************************************//**
   2:/home/barnecle/STM32Cube/Repository/STM32Cube_FW_L4_V1.17.1/Drivers/CMSIS/Include/cmsis_gcc.h ****  * @file     cmsis_gcc.h
   3:/home/barnecle/STM32Cube/Repository/STM32Cube_FW_L4_V1.17.1/Drivers/CMSIS/Include/cmsis_gcc.h ****  * @brief    CMSIS compiler GCC header file
   4:/home/barnecle/STM32Cube/Repository/STM32Cube_FW_L4_V1.17.1/Drivers/CMSIS/Include/cmsis_gcc.h ****  * @version  V5.2.0
   5:/home/barnecle/STM32Cube/Repository/STM32Cube_FW_L4_V1.17.1/Drivers/CMSIS/Include/cmsis_gcc.h ****  * @date     08. May 2019
   6:/home/barnecle/STM32Cube/Repository/STM32Cube_FW_L4_V1.17.1/Drivers/CMSIS/Include/cmsis_gcc.h ****  ******************************************************************************/
   7:/home/barnecle/STM32Cube/Repository/STM32Cube_FW_L4_V1.17.1/Drivers/CMSIS/Include/cmsis_gcc.h **** /*
   8:/home/barnecle/STM32Cube/Repository/STM32Cube_FW_L4_V1.17.1/Drivers/CMSIS/Include/cmsis_gcc.h ****  * Copyright (c) 2009-2019 Arm Limited. All rights reserved.
   9:/home/barnecle/STM32Cube/Repository/STM32Cube_FW_L4_V1.17.1/Drivers/CMSIS/Include/cmsis_gcc.h ****  *
  10:/home/barnecle/STM32Cube/Repository/STM32Cube_FW_L4_V1.17.1/Drivers/CMSIS/Include/cmsis_gcc.h ****  * SPDX-License-Identifier: Apache-2.0
  11:/home/barnecle/STM32Cube/Repository/STM32Cube_FW_L4_V1.17.1/Drivers/CMSIS/Include/cmsis_gcc.h ****  *
  12:/home/barnecle/STM32Cube/Repository/STM32Cube_FW_L4_V1.17.1/Drivers/CMSIS/Include/cmsis_gcc.h ****  * Licensed under the Apache License, Version 2.0 (the License); you may
  13:/home/barnecle/STM32Cube/Repository/STM32Cube_FW_L4_V1.17.1/Drivers/CMSIS/Include/cmsis_gcc.h ****  * not use this file except in compliance with the License.
  14:/home/barnecle/STM32Cube/Repository/STM32Cube_FW_L4_V1.17.1/Drivers/CMSIS/Include/cmsis_gcc.h ****  * You may obtain a copy of the License at
  15:/home/barnecle/STM32Cube/Repository/STM32Cube_FW_L4_V1.17.1/Drivers/CMSIS/Include/cmsis_gcc.h ****  *
  16:/home/barnecle/STM32Cube/Repository/STM32Cube_FW_L4_V1.17.1/Drivers/CMSIS/Include/cmsis_gcc.h ****  * www.apache.org/licenses/LICENSE-2.0
  17:/home/barnecle/STM32Cube/Repository/STM32Cube_FW_L4_V1.17.1/Drivers/CMSIS/Include/cmsis_gcc.h ****  *
  18:/home/barnecle/STM32Cube/Repository/STM32Cube_FW_L4_V1.17.1/Drivers/CMSIS/Include/cmsis_gcc.h ****  * Unless required by applicable law or agreed to in writing, software
  19:/home/barnecle/STM32Cube/Repository/STM32Cube_FW_L4_V1.17.1/Drivers/CMSIS/Include/cmsis_gcc.h ****  * distributed under the License is distributed on an AS IS BASIS, WITHOUT
  20:/home/barnecle/STM32Cube/Repository/STM32Cube_FW_L4_V1.17.1/Drivers/CMSIS/Include/cmsis_gcc.h ****  * WARRANTIES OR CONDITIONS OF ANY KIND, either express or implied.
  21:/home/barnecle/STM32Cube/Repository/STM32Cube_FW_L4_V1.17.1/Drivers/CMSIS/Include/cmsis_gcc.h ****  * See the License for the specific language governing permissions and
  22:/home/barnecle/STM32Cube/Repository/STM32Cube_FW_L4_V1.17.1/Drivers/CMSIS/Include/cmsis_gcc.h ****  * limitations under the License.
  23:/home/barnecle/STM32Cube/Repository/STM32Cube_FW_L4_V1.17.1/Drivers/CMSIS/Include/cmsis_gcc.h ****  */
  24:/home/barnecle/STM32Cube/Repository/STM32Cube_FW_L4_V1.17.1/Drivers/CMSIS/Include/cmsis_gcc.h **** 
  25:/home/barnecle/STM32Cube/Repository/STM32Cube_FW_L4_V1.17.1/Drivers/CMSIS/Include/cmsis_gcc.h **** #ifndef __CMSIS_GCC_H
  26:/home/barnecle/STM32Cube/Repository/STM32Cube_FW_L4_V1.17.1/Drivers/CMSIS/Include/cmsis_gcc.h **** #define __CMSIS_GCC_H
  27:/home/barnecle/STM32Cube/Repository/STM32Cube_FW_L4_V1.17.1/Drivers/CMSIS/Include/cmsis_gcc.h **** 
  28:/home/barnecle/STM32Cube/Repository/STM32Cube_FW_L4_V1.17.1/Drivers/CMSIS/Include/cmsis_gcc.h **** /* ignore some GCC warnings */
  29:/home/barnecle/STM32Cube/Repository/STM32Cube_FW_L4_V1.17.1/Drivers/CMSIS/Include/cmsis_gcc.h **** #pragma GCC diagnostic push
  30:/home/barnecle/STM32Cube/Repository/STM32Cube_FW_L4_V1.17.1/Drivers/CMSIS/Include/cmsis_gcc.h **** #pragma GCC diagnostic ignored "-Wsign-conversion"
  31:/home/barnecle/STM32Cube/Repository/STM32Cube_FW_L4_V1.17.1/Drivers/CMSIS/Include/cmsis_gcc.h **** #pragma GCC diagnostic ignored "-Wconversion"
  32:/home/barnecle/STM32Cube/Repository/STM32Cube_FW_L4_V1.17.1/Drivers/CMSIS/Include/cmsis_gcc.h **** #pragma GCC diagnostic ignored "-Wunused-parameter"
  33:/home/barnecle/STM32Cube/Repository/STM32Cube_FW_L4_V1.17.1/Drivers/CMSIS/Include/cmsis_gcc.h **** 
  34:/home/barnecle/STM32Cube/Repository/STM32Cube_FW_L4_V1.17.1/Drivers/CMSIS/Include/cmsis_gcc.h **** /* Fallback for __has_builtin */
  35:/home/barnecle/STM32Cube/Repository/STM32Cube_FW_L4_V1.17.1/Drivers/CMSIS/Include/cmsis_gcc.h **** #ifndef __has_builtin
  36:/home/barnecle/STM32Cube/Repository/STM32Cube_FW_L4_V1.17.1/Drivers/CMSIS/Include/cmsis_gcc.h ****   #define __has_builtin(x) (0)
  37:/home/barnecle/STM32Cube/Repository/STM32Cube_FW_L4_V1.17.1/Drivers/CMSIS/Include/cmsis_gcc.h **** #endif
  38:/home/barnecle/STM32Cube/Repository/STM32Cube_FW_L4_V1.17.1/Drivers/CMSIS/Include/cmsis_gcc.h **** 
  39:/home/barnecle/STM32Cube/Repository/STM32Cube_FW_L4_V1.17.1/Drivers/CMSIS/Include/cmsis_gcc.h **** /* CMSIS compiler specific defines */
  40:/home/barnecle/STM32Cube/Repository/STM32Cube_FW_L4_V1.17.1/Drivers/CMSIS/Include/cmsis_gcc.h **** #ifndef   __ASM
  41:/home/barnecle/STM32Cube/Repository/STM32Cube_FW_L4_V1.17.1/Drivers/CMSIS/Include/cmsis_gcc.h ****   #define __ASM                                  __asm
  42:/home/barnecle/STM32Cube/Repository/STM32Cube_FW_L4_V1.17.1/Drivers/CMSIS/Include/cmsis_gcc.h **** #endif
  43:/home/barnecle/STM32Cube/Repository/STM32Cube_FW_L4_V1.17.1/Drivers/CMSIS/Include/cmsis_gcc.h **** #ifndef   __INLINE
  44:/home/barnecle/STM32Cube/Repository/STM32Cube_FW_L4_V1.17.1/Drivers/CMSIS/Include/cmsis_gcc.h ****   #define __INLINE                               inline
  45:/home/barnecle/STM32Cube/Repository/STM32Cube_FW_L4_V1.17.1/Drivers/CMSIS/Include/cmsis_gcc.h **** #endif
  46:/home/barnecle/STM32Cube/Repository/STM32Cube_FW_L4_V1.17.1/Drivers/CMSIS/Include/cmsis_gcc.h **** #ifndef   __STATIC_INLINE
  47:/home/barnecle/STM32Cube/Repository/STM32Cube_FW_L4_V1.17.1/Drivers/CMSIS/Include/cmsis_gcc.h ****   #define __STATIC_INLINE                        static inline
  48:/home/barnecle/STM32Cube/Repository/STM32Cube_FW_L4_V1.17.1/Drivers/CMSIS/Include/cmsis_gcc.h **** #endif
  49:/home/barnecle/STM32Cube/Repository/STM32Cube_FW_L4_V1.17.1/Drivers/CMSIS/Include/cmsis_gcc.h **** #ifndef   __STATIC_FORCEINLINE                 
  50:/home/barnecle/STM32Cube/Repository/STM32Cube_FW_L4_V1.17.1/Drivers/CMSIS/Include/cmsis_gcc.h ****   #define __STATIC_FORCEINLINE                   __attribute__((always_inline)) static inline
  51:/home/barnecle/STM32Cube/Repository/STM32Cube_FW_L4_V1.17.1/Drivers/CMSIS/Include/cmsis_gcc.h **** #endif                                           
ARM GAS  /tmp/ccVvGxMz.s 			page 22


  52:/home/barnecle/STM32Cube/Repository/STM32Cube_FW_L4_V1.17.1/Drivers/CMSIS/Include/cmsis_gcc.h **** #ifndef   __NO_RETURN
  53:/home/barnecle/STM32Cube/Repository/STM32Cube_FW_L4_V1.17.1/Drivers/CMSIS/Include/cmsis_gcc.h ****   #define __NO_RETURN                            __attribute__((__noreturn__))
  54:/home/barnecle/STM32Cube/Repository/STM32Cube_FW_L4_V1.17.1/Drivers/CMSIS/Include/cmsis_gcc.h **** #endif
  55:/home/barnecle/STM32Cube/Repository/STM32Cube_FW_L4_V1.17.1/Drivers/CMSIS/Include/cmsis_gcc.h **** #ifndef   __USED
  56:/home/barnecle/STM32Cube/Repository/STM32Cube_FW_L4_V1.17.1/Drivers/CMSIS/Include/cmsis_gcc.h ****   #define __USED                                 __attribute__((used))
  57:/home/barnecle/STM32Cube/Repository/STM32Cube_FW_L4_V1.17.1/Drivers/CMSIS/Include/cmsis_gcc.h **** #endif
  58:/home/barnecle/STM32Cube/Repository/STM32Cube_FW_L4_V1.17.1/Drivers/CMSIS/Include/cmsis_gcc.h **** #ifndef   __WEAK
  59:/home/barnecle/STM32Cube/Repository/STM32Cube_FW_L4_V1.17.1/Drivers/CMSIS/Include/cmsis_gcc.h ****   #define __WEAK                                 __attribute__((weak))
  60:/home/barnecle/STM32Cube/Repository/STM32Cube_FW_L4_V1.17.1/Drivers/CMSIS/Include/cmsis_gcc.h **** #endif
  61:/home/barnecle/STM32Cube/Repository/STM32Cube_FW_L4_V1.17.1/Drivers/CMSIS/Include/cmsis_gcc.h **** #ifndef   __PACKED
  62:/home/barnecle/STM32Cube/Repository/STM32Cube_FW_L4_V1.17.1/Drivers/CMSIS/Include/cmsis_gcc.h ****   #define __PACKED                               __attribute__((packed, aligned(1)))
  63:/home/barnecle/STM32Cube/Repository/STM32Cube_FW_L4_V1.17.1/Drivers/CMSIS/Include/cmsis_gcc.h **** #endif
  64:/home/barnecle/STM32Cube/Repository/STM32Cube_FW_L4_V1.17.1/Drivers/CMSIS/Include/cmsis_gcc.h **** #ifndef   __PACKED_STRUCT
  65:/home/barnecle/STM32Cube/Repository/STM32Cube_FW_L4_V1.17.1/Drivers/CMSIS/Include/cmsis_gcc.h ****   #define __PACKED_STRUCT                        struct __attribute__((packed, aligned(1)))
  66:/home/barnecle/STM32Cube/Repository/STM32Cube_FW_L4_V1.17.1/Drivers/CMSIS/Include/cmsis_gcc.h **** #endif
  67:/home/barnecle/STM32Cube/Repository/STM32Cube_FW_L4_V1.17.1/Drivers/CMSIS/Include/cmsis_gcc.h **** #ifndef   __PACKED_UNION
  68:/home/barnecle/STM32Cube/Repository/STM32Cube_FW_L4_V1.17.1/Drivers/CMSIS/Include/cmsis_gcc.h ****   #define __PACKED_UNION                         union __attribute__((packed, aligned(1)))
  69:/home/barnecle/STM32Cube/Repository/STM32Cube_FW_L4_V1.17.1/Drivers/CMSIS/Include/cmsis_gcc.h **** #endif
  70:/home/barnecle/STM32Cube/Repository/STM32Cube_FW_L4_V1.17.1/Drivers/CMSIS/Include/cmsis_gcc.h **** #ifndef   __UNALIGNED_UINT32        /* deprecated */
  71:/home/barnecle/STM32Cube/Repository/STM32Cube_FW_L4_V1.17.1/Drivers/CMSIS/Include/cmsis_gcc.h ****   #pragma GCC diagnostic push
  72:/home/barnecle/STM32Cube/Repository/STM32Cube_FW_L4_V1.17.1/Drivers/CMSIS/Include/cmsis_gcc.h ****   #pragma GCC diagnostic ignored "-Wpacked"
  73:/home/barnecle/STM32Cube/Repository/STM32Cube_FW_L4_V1.17.1/Drivers/CMSIS/Include/cmsis_gcc.h ****   #pragma GCC diagnostic ignored "-Wattributes"
  74:/home/barnecle/STM32Cube/Repository/STM32Cube_FW_L4_V1.17.1/Drivers/CMSIS/Include/cmsis_gcc.h ****   struct __attribute__((packed)) T_UINT32 { uint32_t v; };
  75:/home/barnecle/STM32Cube/Repository/STM32Cube_FW_L4_V1.17.1/Drivers/CMSIS/Include/cmsis_gcc.h ****   #pragma GCC diagnostic pop
  76:/home/barnecle/STM32Cube/Repository/STM32Cube_FW_L4_V1.17.1/Drivers/CMSIS/Include/cmsis_gcc.h ****   #define __UNALIGNED_UINT32(x)                  (((struct T_UINT32 *)(x))->v)
  77:/home/barnecle/STM32Cube/Repository/STM32Cube_FW_L4_V1.17.1/Drivers/CMSIS/Include/cmsis_gcc.h **** #endif
  78:/home/barnecle/STM32Cube/Repository/STM32Cube_FW_L4_V1.17.1/Drivers/CMSIS/Include/cmsis_gcc.h **** #ifndef   __UNALIGNED_UINT16_WRITE
  79:/home/barnecle/STM32Cube/Repository/STM32Cube_FW_L4_V1.17.1/Drivers/CMSIS/Include/cmsis_gcc.h ****   #pragma GCC diagnostic push
  80:/home/barnecle/STM32Cube/Repository/STM32Cube_FW_L4_V1.17.1/Drivers/CMSIS/Include/cmsis_gcc.h ****   #pragma GCC diagnostic ignored "-Wpacked"
  81:/home/barnecle/STM32Cube/Repository/STM32Cube_FW_L4_V1.17.1/Drivers/CMSIS/Include/cmsis_gcc.h ****   #pragma GCC diagnostic ignored "-Wattributes"
  82:/home/barnecle/STM32Cube/Repository/STM32Cube_FW_L4_V1.17.1/Drivers/CMSIS/Include/cmsis_gcc.h ****   __PACKED_STRUCT T_UINT16_WRITE { uint16_t v; };
  83:/home/barnecle/STM32Cube/Repository/STM32Cube_FW_L4_V1.17.1/Drivers/CMSIS/Include/cmsis_gcc.h ****   #pragma GCC diagnostic pop
  84:/home/barnecle/STM32Cube/Repository/STM32Cube_FW_L4_V1.17.1/Drivers/CMSIS/Include/cmsis_gcc.h ****   #define __UNALIGNED_UINT16_WRITE(addr, val)    (void)((((struct T_UINT16_WRITE *)(void *)(addr))-
  85:/home/barnecle/STM32Cube/Repository/STM32Cube_FW_L4_V1.17.1/Drivers/CMSIS/Include/cmsis_gcc.h **** #endif
  86:/home/barnecle/STM32Cube/Repository/STM32Cube_FW_L4_V1.17.1/Drivers/CMSIS/Include/cmsis_gcc.h **** #ifndef   __UNALIGNED_UINT16_READ
  87:/home/barnecle/STM32Cube/Repository/STM32Cube_FW_L4_V1.17.1/Drivers/CMSIS/Include/cmsis_gcc.h ****   #pragma GCC diagnostic push
  88:/home/barnecle/STM32Cube/Repository/STM32Cube_FW_L4_V1.17.1/Drivers/CMSIS/Include/cmsis_gcc.h ****   #pragma GCC diagnostic ignored "-Wpacked"
  89:/home/barnecle/STM32Cube/Repository/STM32Cube_FW_L4_V1.17.1/Drivers/CMSIS/Include/cmsis_gcc.h ****   #pragma GCC diagnostic ignored "-Wattributes"
  90:/home/barnecle/STM32Cube/Repository/STM32Cube_FW_L4_V1.17.1/Drivers/CMSIS/Include/cmsis_gcc.h ****   __PACKED_STRUCT T_UINT16_READ { uint16_t v; };
  91:/home/barnecle/STM32Cube/Repository/STM32Cube_FW_L4_V1.17.1/Drivers/CMSIS/Include/cmsis_gcc.h ****   #pragma GCC diagnostic pop
  92:/home/barnecle/STM32Cube/Repository/STM32Cube_FW_L4_V1.17.1/Drivers/CMSIS/Include/cmsis_gcc.h ****   #define __UNALIGNED_UINT16_READ(addr)          (((const struct T_UINT16_READ *)(const void *)(add
  93:/home/barnecle/STM32Cube/Repository/STM32Cube_FW_L4_V1.17.1/Drivers/CMSIS/Include/cmsis_gcc.h **** #endif
  94:/home/barnecle/STM32Cube/Repository/STM32Cube_FW_L4_V1.17.1/Drivers/CMSIS/Include/cmsis_gcc.h **** #ifndef   __UNALIGNED_UINT32_WRITE
  95:/home/barnecle/STM32Cube/Repository/STM32Cube_FW_L4_V1.17.1/Drivers/CMSIS/Include/cmsis_gcc.h ****   #pragma GCC diagnostic push
  96:/home/barnecle/STM32Cube/Repository/STM32Cube_FW_L4_V1.17.1/Drivers/CMSIS/Include/cmsis_gcc.h ****   #pragma GCC diagnostic ignored "-Wpacked"
  97:/home/barnecle/STM32Cube/Repository/STM32Cube_FW_L4_V1.17.1/Drivers/CMSIS/Include/cmsis_gcc.h ****   #pragma GCC diagnostic ignored "-Wattributes"
  98:/home/barnecle/STM32Cube/Repository/STM32Cube_FW_L4_V1.17.1/Drivers/CMSIS/Include/cmsis_gcc.h ****   __PACKED_STRUCT T_UINT32_WRITE { uint32_t v; };
  99:/home/barnecle/STM32Cube/Repository/STM32Cube_FW_L4_V1.17.1/Drivers/CMSIS/Include/cmsis_gcc.h ****   #pragma GCC diagnostic pop
 100:/home/barnecle/STM32Cube/Repository/STM32Cube_FW_L4_V1.17.1/Drivers/CMSIS/Include/cmsis_gcc.h ****   #define __UNALIGNED_UINT32_WRITE(addr, val)    (void)((((struct T_UINT32_WRITE *)(void *)(addr))-
 101:/home/barnecle/STM32Cube/Repository/STM32Cube_FW_L4_V1.17.1/Drivers/CMSIS/Include/cmsis_gcc.h **** #endif
 102:/home/barnecle/STM32Cube/Repository/STM32Cube_FW_L4_V1.17.1/Drivers/CMSIS/Include/cmsis_gcc.h **** #ifndef   __UNALIGNED_UINT32_READ
 103:/home/barnecle/STM32Cube/Repository/STM32Cube_FW_L4_V1.17.1/Drivers/CMSIS/Include/cmsis_gcc.h ****   #pragma GCC diagnostic push
 104:/home/barnecle/STM32Cube/Repository/STM32Cube_FW_L4_V1.17.1/Drivers/CMSIS/Include/cmsis_gcc.h ****   #pragma GCC diagnostic ignored "-Wpacked"
 105:/home/barnecle/STM32Cube/Repository/STM32Cube_FW_L4_V1.17.1/Drivers/CMSIS/Include/cmsis_gcc.h ****   #pragma GCC diagnostic ignored "-Wattributes"
 106:/home/barnecle/STM32Cube/Repository/STM32Cube_FW_L4_V1.17.1/Drivers/CMSIS/Include/cmsis_gcc.h ****   __PACKED_STRUCT T_UINT32_READ { uint32_t v; };
 107:/home/barnecle/STM32Cube/Repository/STM32Cube_FW_L4_V1.17.1/Drivers/CMSIS/Include/cmsis_gcc.h ****   #pragma GCC diagnostic pop
 108:/home/barnecle/STM32Cube/Repository/STM32Cube_FW_L4_V1.17.1/Drivers/CMSIS/Include/cmsis_gcc.h ****   #define __UNALIGNED_UINT32_READ(addr)          (((const struct T_UINT32_READ *)(const void *)(add
ARM GAS  /tmp/ccVvGxMz.s 			page 23


 109:/home/barnecle/STM32Cube/Repository/STM32Cube_FW_L4_V1.17.1/Drivers/CMSIS/Include/cmsis_gcc.h **** #endif
 110:/home/barnecle/STM32Cube/Repository/STM32Cube_FW_L4_V1.17.1/Drivers/CMSIS/Include/cmsis_gcc.h **** #ifndef   __ALIGNED
 111:/home/barnecle/STM32Cube/Repository/STM32Cube_FW_L4_V1.17.1/Drivers/CMSIS/Include/cmsis_gcc.h ****   #define __ALIGNED(x)                           __attribute__((aligned(x)))
 112:/home/barnecle/STM32Cube/Repository/STM32Cube_FW_L4_V1.17.1/Drivers/CMSIS/Include/cmsis_gcc.h **** #endif
 113:/home/barnecle/STM32Cube/Repository/STM32Cube_FW_L4_V1.17.1/Drivers/CMSIS/Include/cmsis_gcc.h **** #ifndef   __RESTRICT
 114:/home/barnecle/STM32Cube/Repository/STM32Cube_FW_L4_V1.17.1/Drivers/CMSIS/Include/cmsis_gcc.h ****   #define __RESTRICT                             __restrict
 115:/home/barnecle/STM32Cube/Repository/STM32Cube_FW_L4_V1.17.1/Drivers/CMSIS/Include/cmsis_gcc.h **** #endif
 116:/home/barnecle/STM32Cube/Repository/STM32Cube_FW_L4_V1.17.1/Drivers/CMSIS/Include/cmsis_gcc.h **** #ifndef   __COMPILER_BARRIER
 117:/home/barnecle/STM32Cube/Repository/STM32Cube_FW_L4_V1.17.1/Drivers/CMSIS/Include/cmsis_gcc.h ****   #define __COMPILER_BARRIER()                   __ASM volatile("":::"memory")
 118:/home/barnecle/STM32Cube/Repository/STM32Cube_FW_L4_V1.17.1/Drivers/CMSIS/Include/cmsis_gcc.h **** #endif
 119:/home/barnecle/STM32Cube/Repository/STM32Cube_FW_L4_V1.17.1/Drivers/CMSIS/Include/cmsis_gcc.h **** 
 120:/home/barnecle/STM32Cube/Repository/STM32Cube_FW_L4_V1.17.1/Drivers/CMSIS/Include/cmsis_gcc.h **** /* #########################  Startup and Lowlevel Init  ######################## */
 121:/home/barnecle/STM32Cube/Repository/STM32Cube_FW_L4_V1.17.1/Drivers/CMSIS/Include/cmsis_gcc.h **** 
 122:/home/barnecle/STM32Cube/Repository/STM32Cube_FW_L4_V1.17.1/Drivers/CMSIS/Include/cmsis_gcc.h **** #ifndef __PROGRAM_START
 123:/home/barnecle/STM32Cube/Repository/STM32Cube_FW_L4_V1.17.1/Drivers/CMSIS/Include/cmsis_gcc.h **** 
 124:/home/barnecle/STM32Cube/Repository/STM32Cube_FW_L4_V1.17.1/Drivers/CMSIS/Include/cmsis_gcc.h **** /**
 125:/home/barnecle/STM32Cube/Repository/STM32Cube_FW_L4_V1.17.1/Drivers/CMSIS/Include/cmsis_gcc.h ****   \brief   Initializes data and bss sections
 126:/home/barnecle/STM32Cube/Repository/STM32Cube_FW_L4_V1.17.1/Drivers/CMSIS/Include/cmsis_gcc.h ****   \details This default implementations initialized all data and additional bss
 127:/home/barnecle/STM32Cube/Repository/STM32Cube_FW_L4_V1.17.1/Drivers/CMSIS/Include/cmsis_gcc.h ****            sections relying on .copy.table and .zero.table specified properly
 128:/home/barnecle/STM32Cube/Repository/STM32Cube_FW_L4_V1.17.1/Drivers/CMSIS/Include/cmsis_gcc.h ****            in the used linker script.
 129:/home/barnecle/STM32Cube/Repository/STM32Cube_FW_L4_V1.17.1/Drivers/CMSIS/Include/cmsis_gcc.h ****   
 130:/home/barnecle/STM32Cube/Repository/STM32Cube_FW_L4_V1.17.1/Drivers/CMSIS/Include/cmsis_gcc.h ****  */
 131:/home/barnecle/STM32Cube/Repository/STM32Cube_FW_L4_V1.17.1/Drivers/CMSIS/Include/cmsis_gcc.h **** __STATIC_FORCEINLINE __NO_RETURN void __cmsis_start(void)
 132:/home/barnecle/STM32Cube/Repository/STM32Cube_FW_L4_V1.17.1/Drivers/CMSIS/Include/cmsis_gcc.h **** {
 133:/home/barnecle/STM32Cube/Repository/STM32Cube_FW_L4_V1.17.1/Drivers/CMSIS/Include/cmsis_gcc.h ****   extern void _start(void) __NO_RETURN;
 134:/home/barnecle/STM32Cube/Repository/STM32Cube_FW_L4_V1.17.1/Drivers/CMSIS/Include/cmsis_gcc.h ****   
 135:/home/barnecle/STM32Cube/Repository/STM32Cube_FW_L4_V1.17.1/Drivers/CMSIS/Include/cmsis_gcc.h ****   typedef struct {
 136:/home/barnecle/STM32Cube/Repository/STM32Cube_FW_L4_V1.17.1/Drivers/CMSIS/Include/cmsis_gcc.h ****     uint32_t const* src;
 137:/home/barnecle/STM32Cube/Repository/STM32Cube_FW_L4_V1.17.1/Drivers/CMSIS/Include/cmsis_gcc.h ****     uint32_t* dest;
 138:/home/barnecle/STM32Cube/Repository/STM32Cube_FW_L4_V1.17.1/Drivers/CMSIS/Include/cmsis_gcc.h ****     uint32_t  wlen;
 139:/home/barnecle/STM32Cube/Repository/STM32Cube_FW_L4_V1.17.1/Drivers/CMSIS/Include/cmsis_gcc.h ****   } __copy_table_t;
 140:/home/barnecle/STM32Cube/Repository/STM32Cube_FW_L4_V1.17.1/Drivers/CMSIS/Include/cmsis_gcc.h ****   
 141:/home/barnecle/STM32Cube/Repository/STM32Cube_FW_L4_V1.17.1/Drivers/CMSIS/Include/cmsis_gcc.h ****   typedef struct {
 142:/home/barnecle/STM32Cube/Repository/STM32Cube_FW_L4_V1.17.1/Drivers/CMSIS/Include/cmsis_gcc.h ****     uint32_t* dest;
 143:/home/barnecle/STM32Cube/Repository/STM32Cube_FW_L4_V1.17.1/Drivers/CMSIS/Include/cmsis_gcc.h ****     uint32_t  wlen;
 144:/home/barnecle/STM32Cube/Repository/STM32Cube_FW_L4_V1.17.1/Drivers/CMSIS/Include/cmsis_gcc.h ****   } __zero_table_t;
 145:/home/barnecle/STM32Cube/Repository/STM32Cube_FW_L4_V1.17.1/Drivers/CMSIS/Include/cmsis_gcc.h ****   
 146:/home/barnecle/STM32Cube/Repository/STM32Cube_FW_L4_V1.17.1/Drivers/CMSIS/Include/cmsis_gcc.h ****   extern const __copy_table_t __copy_table_start__;
 147:/home/barnecle/STM32Cube/Repository/STM32Cube_FW_L4_V1.17.1/Drivers/CMSIS/Include/cmsis_gcc.h ****   extern const __copy_table_t __copy_table_end__;
 148:/home/barnecle/STM32Cube/Repository/STM32Cube_FW_L4_V1.17.1/Drivers/CMSIS/Include/cmsis_gcc.h ****   extern const __zero_table_t __zero_table_start__;
 149:/home/barnecle/STM32Cube/Repository/STM32Cube_FW_L4_V1.17.1/Drivers/CMSIS/Include/cmsis_gcc.h ****   extern const __zero_table_t __zero_table_end__;
 150:/home/barnecle/STM32Cube/Repository/STM32Cube_FW_L4_V1.17.1/Drivers/CMSIS/Include/cmsis_gcc.h **** 
 151:/home/barnecle/STM32Cube/Repository/STM32Cube_FW_L4_V1.17.1/Drivers/CMSIS/Include/cmsis_gcc.h ****   for (__copy_table_t const* pTable = &__copy_table_start__; pTable < &__copy_table_end__; ++pTable
 152:/home/barnecle/STM32Cube/Repository/STM32Cube_FW_L4_V1.17.1/Drivers/CMSIS/Include/cmsis_gcc.h ****     for(uint32_t i=0u; i<pTable->wlen; ++i) {
 153:/home/barnecle/STM32Cube/Repository/STM32Cube_FW_L4_V1.17.1/Drivers/CMSIS/Include/cmsis_gcc.h ****       pTable->dest[i] = pTable->src[i];
 154:/home/barnecle/STM32Cube/Repository/STM32Cube_FW_L4_V1.17.1/Drivers/CMSIS/Include/cmsis_gcc.h ****     }
 155:/home/barnecle/STM32Cube/Repository/STM32Cube_FW_L4_V1.17.1/Drivers/CMSIS/Include/cmsis_gcc.h ****   }
 156:/home/barnecle/STM32Cube/Repository/STM32Cube_FW_L4_V1.17.1/Drivers/CMSIS/Include/cmsis_gcc.h ****  
 157:/home/barnecle/STM32Cube/Repository/STM32Cube_FW_L4_V1.17.1/Drivers/CMSIS/Include/cmsis_gcc.h ****   for (__zero_table_t const* pTable = &__zero_table_start__; pTable < &__zero_table_end__; ++pTable
 158:/home/barnecle/STM32Cube/Repository/STM32Cube_FW_L4_V1.17.1/Drivers/CMSIS/Include/cmsis_gcc.h ****     for(uint32_t i=0u; i<pTable->wlen; ++i) {
 159:/home/barnecle/STM32Cube/Repository/STM32Cube_FW_L4_V1.17.1/Drivers/CMSIS/Include/cmsis_gcc.h ****       pTable->dest[i] = 0u;
 160:/home/barnecle/STM32Cube/Repository/STM32Cube_FW_L4_V1.17.1/Drivers/CMSIS/Include/cmsis_gcc.h ****     }
 161:/home/barnecle/STM32Cube/Repository/STM32Cube_FW_L4_V1.17.1/Drivers/CMSIS/Include/cmsis_gcc.h ****   }
 162:/home/barnecle/STM32Cube/Repository/STM32Cube_FW_L4_V1.17.1/Drivers/CMSIS/Include/cmsis_gcc.h ****  
 163:/home/barnecle/STM32Cube/Repository/STM32Cube_FW_L4_V1.17.1/Drivers/CMSIS/Include/cmsis_gcc.h ****   _start();
 164:/home/barnecle/STM32Cube/Repository/STM32Cube_FW_L4_V1.17.1/Drivers/CMSIS/Include/cmsis_gcc.h **** }
 165:/home/barnecle/STM32Cube/Repository/STM32Cube_FW_L4_V1.17.1/Drivers/CMSIS/Include/cmsis_gcc.h ****   
ARM GAS  /tmp/ccVvGxMz.s 			page 24


 166:/home/barnecle/STM32Cube/Repository/STM32Cube_FW_L4_V1.17.1/Drivers/CMSIS/Include/cmsis_gcc.h **** #define __PROGRAM_START           __cmsis_start
 167:/home/barnecle/STM32Cube/Repository/STM32Cube_FW_L4_V1.17.1/Drivers/CMSIS/Include/cmsis_gcc.h **** #endif
 168:/home/barnecle/STM32Cube/Repository/STM32Cube_FW_L4_V1.17.1/Drivers/CMSIS/Include/cmsis_gcc.h **** 
 169:/home/barnecle/STM32Cube/Repository/STM32Cube_FW_L4_V1.17.1/Drivers/CMSIS/Include/cmsis_gcc.h **** #ifndef __INITIAL_SP
 170:/home/barnecle/STM32Cube/Repository/STM32Cube_FW_L4_V1.17.1/Drivers/CMSIS/Include/cmsis_gcc.h **** #define __INITIAL_SP              __StackTop
 171:/home/barnecle/STM32Cube/Repository/STM32Cube_FW_L4_V1.17.1/Drivers/CMSIS/Include/cmsis_gcc.h **** #endif
 172:/home/barnecle/STM32Cube/Repository/STM32Cube_FW_L4_V1.17.1/Drivers/CMSIS/Include/cmsis_gcc.h **** 
 173:/home/barnecle/STM32Cube/Repository/STM32Cube_FW_L4_V1.17.1/Drivers/CMSIS/Include/cmsis_gcc.h **** #ifndef __STACK_LIMIT
 174:/home/barnecle/STM32Cube/Repository/STM32Cube_FW_L4_V1.17.1/Drivers/CMSIS/Include/cmsis_gcc.h **** #define __STACK_LIMIT             __StackLimit
 175:/home/barnecle/STM32Cube/Repository/STM32Cube_FW_L4_V1.17.1/Drivers/CMSIS/Include/cmsis_gcc.h **** #endif
 176:/home/barnecle/STM32Cube/Repository/STM32Cube_FW_L4_V1.17.1/Drivers/CMSIS/Include/cmsis_gcc.h **** 
 177:/home/barnecle/STM32Cube/Repository/STM32Cube_FW_L4_V1.17.1/Drivers/CMSIS/Include/cmsis_gcc.h **** #ifndef __VECTOR_TABLE
 178:/home/barnecle/STM32Cube/Repository/STM32Cube_FW_L4_V1.17.1/Drivers/CMSIS/Include/cmsis_gcc.h **** #define __VECTOR_TABLE            __Vectors
 179:/home/barnecle/STM32Cube/Repository/STM32Cube_FW_L4_V1.17.1/Drivers/CMSIS/Include/cmsis_gcc.h **** #endif
 180:/home/barnecle/STM32Cube/Repository/STM32Cube_FW_L4_V1.17.1/Drivers/CMSIS/Include/cmsis_gcc.h **** 
 181:/home/barnecle/STM32Cube/Repository/STM32Cube_FW_L4_V1.17.1/Drivers/CMSIS/Include/cmsis_gcc.h **** #ifndef __VECTOR_TABLE_ATTRIBUTE
 182:/home/barnecle/STM32Cube/Repository/STM32Cube_FW_L4_V1.17.1/Drivers/CMSIS/Include/cmsis_gcc.h **** #define __VECTOR_TABLE_ATTRIBUTE  __attribute((used, section(".vectors")))
 183:/home/barnecle/STM32Cube/Repository/STM32Cube_FW_L4_V1.17.1/Drivers/CMSIS/Include/cmsis_gcc.h **** #endif
 184:/home/barnecle/STM32Cube/Repository/STM32Cube_FW_L4_V1.17.1/Drivers/CMSIS/Include/cmsis_gcc.h **** 
 185:/home/barnecle/STM32Cube/Repository/STM32Cube_FW_L4_V1.17.1/Drivers/CMSIS/Include/cmsis_gcc.h **** /* ###########################  Core Function Access  ########################### */
 186:/home/barnecle/STM32Cube/Repository/STM32Cube_FW_L4_V1.17.1/Drivers/CMSIS/Include/cmsis_gcc.h **** /** \ingroup  CMSIS_Core_FunctionInterface
 187:/home/barnecle/STM32Cube/Repository/STM32Cube_FW_L4_V1.17.1/Drivers/CMSIS/Include/cmsis_gcc.h ****     \defgroup CMSIS_Core_RegAccFunctions CMSIS Core Register Access Functions
 188:/home/barnecle/STM32Cube/Repository/STM32Cube_FW_L4_V1.17.1/Drivers/CMSIS/Include/cmsis_gcc.h ****   @{
 189:/home/barnecle/STM32Cube/Repository/STM32Cube_FW_L4_V1.17.1/Drivers/CMSIS/Include/cmsis_gcc.h ****  */
 190:/home/barnecle/STM32Cube/Repository/STM32Cube_FW_L4_V1.17.1/Drivers/CMSIS/Include/cmsis_gcc.h **** 
 191:/home/barnecle/STM32Cube/Repository/STM32Cube_FW_L4_V1.17.1/Drivers/CMSIS/Include/cmsis_gcc.h **** /**
 192:/home/barnecle/STM32Cube/Repository/STM32Cube_FW_L4_V1.17.1/Drivers/CMSIS/Include/cmsis_gcc.h ****   \brief   Enable IRQ Interrupts
 193:/home/barnecle/STM32Cube/Repository/STM32Cube_FW_L4_V1.17.1/Drivers/CMSIS/Include/cmsis_gcc.h ****   \details Enables IRQ interrupts by clearing the I-bit in the CPSR.
 194:/home/barnecle/STM32Cube/Repository/STM32Cube_FW_L4_V1.17.1/Drivers/CMSIS/Include/cmsis_gcc.h ****            Can only be executed in Privileged modes.
 195:/home/barnecle/STM32Cube/Repository/STM32Cube_FW_L4_V1.17.1/Drivers/CMSIS/Include/cmsis_gcc.h ****  */
 196:/home/barnecle/STM32Cube/Repository/STM32Cube_FW_L4_V1.17.1/Drivers/CMSIS/Include/cmsis_gcc.h **** __STATIC_FORCEINLINE void __enable_irq(void)
 197:/home/barnecle/STM32Cube/Repository/STM32Cube_FW_L4_V1.17.1/Drivers/CMSIS/Include/cmsis_gcc.h **** {
 198:/home/barnecle/STM32Cube/Repository/STM32Cube_FW_L4_V1.17.1/Drivers/CMSIS/Include/cmsis_gcc.h ****   __ASM volatile ("cpsie i" : : : "memory");
 199:/home/barnecle/STM32Cube/Repository/STM32Cube_FW_L4_V1.17.1/Drivers/CMSIS/Include/cmsis_gcc.h **** }
 200:/home/barnecle/STM32Cube/Repository/STM32Cube_FW_L4_V1.17.1/Drivers/CMSIS/Include/cmsis_gcc.h **** 
 201:/home/barnecle/STM32Cube/Repository/STM32Cube_FW_L4_V1.17.1/Drivers/CMSIS/Include/cmsis_gcc.h **** 
 202:/home/barnecle/STM32Cube/Repository/STM32Cube_FW_L4_V1.17.1/Drivers/CMSIS/Include/cmsis_gcc.h **** /**
 203:/home/barnecle/STM32Cube/Repository/STM32Cube_FW_L4_V1.17.1/Drivers/CMSIS/Include/cmsis_gcc.h ****   \brief   Disable IRQ Interrupts
 204:/home/barnecle/STM32Cube/Repository/STM32Cube_FW_L4_V1.17.1/Drivers/CMSIS/Include/cmsis_gcc.h ****   \details Disables IRQ interrupts by setting the I-bit in the CPSR.
 205:/home/barnecle/STM32Cube/Repository/STM32Cube_FW_L4_V1.17.1/Drivers/CMSIS/Include/cmsis_gcc.h ****            Can only be executed in Privileged modes.
 206:/home/barnecle/STM32Cube/Repository/STM32Cube_FW_L4_V1.17.1/Drivers/CMSIS/Include/cmsis_gcc.h ****  */
 207:/home/barnecle/STM32Cube/Repository/STM32Cube_FW_L4_V1.17.1/Drivers/CMSIS/Include/cmsis_gcc.h **** __STATIC_FORCEINLINE void __disable_irq(void)
 652              		.loc 2 207 27 view .LVU156
 653              	.LBB20:
 208:/home/barnecle/STM32Cube/Repository/STM32Cube_FW_L4_V1.17.1/Drivers/CMSIS/Include/cmsis_gcc.h **** {
 209:/home/barnecle/STM32Cube/Repository/STM32Cube_FW_L4_V1.17.1/Drivers/CMSIS/Include/cmsis_gcc.h ****   __ASM volatile ("cpsid i" : : : "memory");
 654              		.loc 2 209 3 view .LVU157
 655              		.syntax unified
 656              	@ 209 "/home/barnecle/STM32Cube/Repository/STM32Cube_FW_L4_V1.17.1/Drivers/CMSIS/Include/cmsis_gcc.
 657 0000 72B6     		cpsid i
 658              	@ 0 "" 2
 659              		.thumb
 660              		.syntax unified
 661              	.L55:
 662              	.LBE20:
 663              	.LBE19:
 367:Core/Src/main.c ****   while (1)
ARM GAS  /tmp/ccVvGxMz.s 			page 25


 664              		.loc 1 367 3 discriminator 1 view .LVU158
 368:Core/Src/main.c ****   {
 369:Core/Src/main.c ****   }
 665              		.loc 1 369 3 discriminator 1 view .LVU159
 367:Core/Src/main.c ****   while (1)
 666              		.loc 1 367 9 discriminator 1 view .LVU160
 667 0002 FEE7     		b	.L55
 668              		.cfi_endproc
 669              	.LFE362:
 671              		.section	.text.MX_USART2_UART_Init,"ax",%progbits
 672              		.align	1
 673              		.syntax unified
 674              		.thumb
 675              		.thumb_func
 677              	MX_USART2_UART_Init:
 678              	.LFB354:
 211:Core/Src/main.c **** 
 679              		.loc 1 211 1 view -0
 680              		.cfi_startproc
 681              		@ args = 0, pretend = 0, frame = 0
 682              		@ frame_needed = 0, uses_anonymous_args = 0
 683 0000 08B5     		push	{r3, lr}
 684              	.LCFI11:
 685              		.cfi_def_cfa_offset 8
 686              		.cfi_offset 3, -8
 687              		.cfi_offset 14, -4
 220:Core/Src/main.c ****   huart2.Init.BaudRate = 9600;
 688              		.loc 1 220 3 view .LVU162
 220:Core/Src/main.c ****   huart2.Init.BaudRate = 9600;
 689              		.loc 1 220 19 is_stmt 0 view .LVU163
 690 0002 0B48     		ldr	r0, .L60
 691 0004 0B4B     		ldr	r3, .L60+4
 692 0006 0360     		str	r3, [r0]
 221:Core/Src/main.c ****   huart2.Init.WordLength = UART_WORDLENGTH_8B;
 693              		.loc 1 221 3 is_stmt 1 view .LVU164
 221:Core/Src/main.c ****   huart2.Init.WordLength = UART_WORDLENGTH_8B;
 694              		.loc 1 221 24 is_stmt 0 view .LVU165
 695 0008 4FF41653 		mov	r3, #9600
 696 000c 4360     		str	r3, [r0, #4]
 222:Core/Src/main.c ****   huart2.Init.StopBits = UART_STOPBITS_1;
 697              		.loc 1 222 3 is_stmt 1 view .LVU166
 222:Core/Src/main.c ****   huart2.Init.StopBits = UART_STOPBITS_1;
 698              		.loc 1 222 26 is_stmt 0 view .LVU167
 699 000e 0023     		movs	r3, #0
 700 0010 8360     		str	r3, [r0, #8]
 223:Core/Src/main.c ****   huart2.Init.Parity = UART_PARITY_NONE;
 701              		.loc 1 223 3 is_stmt 1 view .LVU168
 223:Core/Src/main.c ****   huart2.Init.Parity = UART_PARITY_NONE;
 702              		.loc 1 223 24 is_stmt 0 view .LVU169
 703 0012 C360     		str	r3, [r0, #12]
 224:Core/Src/main.c ****   huart2.Init.Mode = UART_MODE_TX_RX;
 704              		.loc 1 224 3 is_stmt 1 view .LVU170
 224:Core/Src/main.c ****   huart2.Init.Mode = UART_MODE_TX_RX;
 705              		.loc 1 224 22 is_stmt 0 view .LVU171
 706 0014 0361     		str	r3, [r0, #16]
 225:Core/Src/main.c ****   huart2.Init.HwFlowCtl = UART_HWCONTROL_NONE;
 707              		.loc 1 225 3 is_stmt 1 view .LVU172
ARM GAS  /tmp/ccVvGxMz.s 			page 26


 225:Core/Src/main.c ****   huart2.Init.HwFlowCtl = UART_HWCONTROL_NONE;
 708              		.loc 1 225 20 is_stmt 0 view .LVU173
 709 0016 0C22     		movs	r2, #12
 710 0018 4261     		str	r2, [r0, #20]
 226:Core/Src/main.c ****   huart2.Init.OverSampling = UART_OVERSAMPLING_16;
 711              		.loc 1 226 3 is_stmt 1 view .LVU174
 226:Core/Src/main.c ****   huart2.Init.OverSampling = UART_OVERSAMPLING_16;
 712              		.loc 1 226 25 is_stmt 0 view .LVU175
 713 001a 8361     		str	r3, [r0, #24]
 227:Core/Src/main.c ****   huart2.Init.OneBitSampling = UART_ONE_BIT_SAMPLE_DISABLE;
 714              		.loc 1 227 3 is_stmt 1 view .LVU176
 227:Core/Src/main.c ****   huart2.Init.OneBitSampling = UART_ONE_BIT_SAMPLE_DISABLE;
 715              		.loc 1 227 28 is_stmt 0 view .LVU177
 716 001c C361     		str	r3, [r0, #28]
 228:Core/Src/main.c ****   huart2.AdvancedInit.AdvFeatureInit = UART_ADVFEATURE_NO_INIT;
 717              		.loc 1 228 3 is_stmt 1 view .LVU178
 228:Core/Src/main.c ****   huart2.AdvancedInit.AdvFeatureInit = UART_ADVFEATURE_NO_INIT;
 718              		.loc 1 228 30 is_stmt 0 view .LVU179
 719 001e 0362     		str	r3, [r0, #32]
 229:Core/Src/main.c ****   if (HAL_UART_Init(&huart2) != HAL_OK)
 720              		.loc 1 229 3 is_stmt 1 view .LVU180
 229:Core/Src/main.c ****   if (HAL_UART_Init(&huart2) != HAL_OK)
 721              		.loc 1 229 38 is_stmt 0 view .LVU181
 722 0020 4362     		str	r3, [r0, #36]
 230:Core/Src/main.c ****   {
 723              		.loc 1 230 3 is_stmt 1 view .LVU182
 230:Core/Src/main.c ****   {
 724              		.loc 1 230 7 is_stmt 0 view .LVU183
 725 0022 FFF7FEFF 		bl	HAL_UART_Init
 726              	.LVL51:
 230:Core/Src/main.c ****   {
 727              		.loc 1 230 6 view .LVU184
 728 0026 00B9     		cbnz	r0, .L59
 237:Core/Src/main.c **** 
 729              		.loc 1 237 1 view .LVU185
 730 0028 08BD     		pop	{r3, pc}
 731              	.L59:
 232:Core/Src/main.c ****   }
 732              		.loc 1 232 5 is_stmt 1 view .LVU186
 733 002a FFF7FEFF 		bl	Error_Handler
 734              	.LVL52:
 735              	.L61:
 736 002e 00BF     		.align	2
 737              	.L60:
 738 0030 00000000 		.word	.LANCHOR2
 739 0034 00440040 		.word	1073759232
 740              		.cfi_endproc
 741              	.LFE354:
 743              		.section	.text.SystemClock_Config,"ax",%progbits
 744              		.align	1
 745              		.global	SystemClock_Config
 746              		.syntax unified
 747              		.thumb
 748              		.thumb_func
 750              	SystemClock_Config:
 751              	.LFB353:
 160:Core/Src/main.c ****   RCC_OscInitTypeDef RCC_OscInitStruct = {0};
ARM GAS  /tmp/ccVvGxMz.s 			page 27


 752              		.loc 1 160 1 view -0
 753              		.cfi_startproc
 754              		@ args = 0, pretend = 0, frame = 88
 755              		@ frame_needed = 0, uses_anonymous_args = 0
 756 0000 00B5     		push	{lr}
 757              	.LCFI12:
 758              		.cfi_def_cfa_offset 4
 759              		.cfi_offset 14, -4
 760 0002 97B0     		sub	sp, sp, #92
 761              	.LCFI13:
 762              		.cfi_def_cfa_offset 96
 161:Core/Src/main.c ****   RCC_ClkInitTypeDef RCC_ClkInitStruct = {0};
 763              		.loc 1 161 3 view .LVU188
 161:Core/Src/main.c ****   RCC_ClkInitTypeDef RCC_ClkInitStruct = {0};
 764              		.loc 1 161 22 is_stmt 0 view .LVU189
 765 0004 4422     		movs	r2, #68
 766 0006 0021     		movs	r1, #0
 767 0008 05A8     		add	r0, sp, #20
 768 000a FFF7FEFF 		bl	memset
 769              	.LVL53:
 162:Core/Src/main.c **** 
 770              		.loc 1 162 3 is_stmt 1 view .LVU190
 162:Core/Src/main.c **** 
 771              		.loc 1 162 22 is_stmt 0 view .LVU191
 772 000e 0023     		movs	r3, #0
 773 0010 0093     		str	r3, [sp]
 774 0012 0193     		str	r3, [sp, #4]
 775 0014 0293     		str	r3, [sp, #8]
 776 0016 0393     		str	r3, [sp, #12]
 777 0018 0493     		str	r3, [sp, #16]
 166:Core/Src/main.c ****   {
 778              		.loc 1 166 3 is_stmt 1 view .LVU192
 166:Core/Src/main.c ****   {
 779              		.loc 1 166 7 is_stmt 0 view .LVU193
 780 001a 4FF40070 		mov	r0, #512
 781 001e FFF7FEFF 		bl	HAL_PWREx_ControlVoltageScaling
 782              	.LVL54:
 166:Core/Src/main.c ****   {
 783              		.loc 1 166 6 view .LVU194
 784 0022 38BB     		cbnz	r0, .L67
 172:Core/Src/main.c ****   __HAL_RCC_LSEDRIVE_CONFIG(RCC_LSEDRIVE_LOW);
 785              		.loc 1 172 3 is_stmt 1 view .LVU195
 786 0024 FFF7FEFF 		bl	HAL_PWR_EnableBkUpAccess
 787              	.LVL55:
 173:Core/Src/main.c ****   /** Initializes the RCC Oscillators according to the specified parameters
 788              		.loc 1 173 3 view .LVU196
 789 0028 154A     		ldr	r2, .L70
 790 002a D2F89030 		ldr	r3, [r2, #144]
 791 002e 23F01803 		bic	r3, r3, #24
 792 0032 C2F89030 		str	r3, [r2, #144]
 177:Core/Src/main.c ****   RCC_OscInitStruct.LSEState = RCC_LSE_ON;
 793              		.loc 1 177 3 view .LVU197
 177:Core/Src/main.c ****   RCC_OscInitStruct.LSEState = RCC_LSE_ON;
 794              		.loc 1 177 36 is_stmt 0 view .LVU198
 795 0036 1423     		movs	r3, #20
 796 0038 0593     		str	r3, [sp, #20]
 178:Core/Src/main.c ****   RCC_OscInitStruct.MSIState = RCC_MSI_ON;
ARM GAS  /tmp/ccVvGxMz.s 			page 28


 797              		.loc 1 178 3 is_stmt 1 view .LVU199
 178:Core/Src/main.c ****   RCC_OscInitStruct.MSIState = RCC_MSI_ON;
 798              		.loc 1 178 30 is_stmt 0 view .LVU200
 799 003a 0123     		movs	r3, #1
 800 003c 0793     		str	r3, [sp, #28]
 179:Core/Src/main.c ****   RCC_OscInitStruct.MSICalibrationValue = 0;
 801              		.loc 1 179 3 is_stmt 1 view .LVU201
 179:Core/Src/main.c ****   RCC_OscInitStruct.MSICalibrationValue = 0;
 802              		.loc 1 179 30 is_stmt 0 view .LVU202
 803 003e 0C93     		str	r3, [sp, #48]
 180:Core/Src/main.c ****   RCC_OscInitStruct.MSIClockRange = RCC_MSIRANGE_10;
 804              		.loc 1 180 3 is_stmt 1 view .LVU203
 180:Core/Src/main.c ****   RCC_OscInitStruct.MSIClockRange = RCC_MSIRANGE_10;
 805              		.loc 1 180 41 is_stmt 0 view .LVU204
 806 0040 0023     		movs	r3, #0
 807 0042 0D93     		str	r3, [sp, #52]
 181:Core/Src/main.c ****   RCC_OscInitStruct.PLL.PLLState = RCC_PLL_NONE;
 808              		.loc 1 181 3 is_stmt 1 view .LVU205
 181:Core/Src/main.c ****   RCC_OscInitStruct.PLL.PLLState = RCC_PLL_NONE;
 809              		.loc 1 181 35 is_stmt 0 view .LVU206
 810 0044 A022     		movs	r2, #160
 811 0046 0E92     		str	r2, [sp, #56]
 182:Core/Src/main.c ****   if (HAL_RCC_OscConfig(&RCC_OscInitStruct) != HAL_OK)
 812              		.loc 1 182 3 is_stmt 1 view .LVU207
 182:Core/Src/main.c ****   if (HAL_RCC_OscConfig(&RCC_OscInitStruct) != HAL_OK)
 813              		.loc 1 182 34 is_stmt 0 view .LVU208
 814 0048 1093     		str	r3, [sp, #64]
 183:Core/Src/main.c ****   {
 815              		.loc 1 183 3 is_stmt 1 view .LVU209
 183:Core/Src/main.c ****   {
 816              		.loc 1 183 7 is_stmt 0 view .LVU210
 817 004a 05A8     		add	r0, sp, #20
 818 004c FFF7FEFF 		bl	HAL_RCC_OscConfig
 819              	.LVL56:
 183:Core/Src/main.c ****   {
 820              		.loc 1 183 6 view .LVU211
 821 0050 90B9     		cbnz	r0, .L68
 189:Core/Src/main.c ****                               |RCC_CLOCKTYPE_PCLK1|RCC_CLOCKTYPE_PCLK2;
 822              		.loc 1 189 3 is_stmt 1 view .LVU212
 189:Core/Src/main.c ****                               |RCC_CLOCKTYPE_PCLK1|RCC_CLOCKTYPE_PCLK2;
 823              		.loc 1 189 31 is_stmt 0 view .LVU213
 824 0052 0F23     		movs	r3, #15
 825 0054 0093     		str	r3, [sp]
 191:Core/Src/main.c ****   RCC_ClkInitStruct.AHBCLKDivider = RCC_SYSCLK_DIV1;
 826              		.loc 1 191 3 is_stmt 1 view .LVU214
 191:Core/Src/main.c ****   RCC_ClkInitStruct.AHBCLKDivider = RCC_SYSCLK_DIV1;
 827              		.loc 1 191 34 is_stmt 0 view .LVU215
 828 0056 0023     		movs	r3, #0
 829 0058 0193     		str	r3, [sp, #4]
 192:Core/Src/main.c ****   RCC_ClkInitStruct.APB1CLKDivider = RCC_HCLK_DIV1;
 830              		.loc 1 192 3 is_stmt 1 view .LVU216
 192:Core/Src/main.c ****   RCC_ClkInitStruct.APB1CLKDivider = RCC_HCLK_DIV1;
 831              		.loc 1 192 35 is_stmt 0 view .LVU217
 832 005a 0293     		str	r3, [sp, #8]
 193:Core/Src/main.c ****   RCC_ClkInitStruct.APB2CLKDivider = RCC_HCLK_DIV1;
 833              		.loc 1 193 3 is_stmt 1 view .LVU218
 193:Core/Src/main.c ****   RCC_ClkInitStruct.APB2CLKDivider = RCC_HCLK_DIV1;
ARM GAS  /tmp/ccVvGxMz.s 			page 29


 834              		.loc 1 193 36 is_stmt 0 view .LVU219
 835 005c 0393     		str	r3, [sp, #12]
 194:Core/Src/main.c **** 
 836              		.loc 1 194 3 is_stmt 1 view .LVU220
 194:Core/Src/main.c **** 
 837              		.loc 1 194 36 is_stmt 0 view .LVU221
 838 005e 0493     		str	r3, [sp, #16]
 196:Core/Src/main.c ****   {
 839              		.loc 1 196 3 is_stmt 1 view .LVU222
 196:Core/Src/main.c ****   {
 840              		.loc 1 196 7 is_stmt 0 view .LVU223
 841 0060 0121     		movs	r1, #1
 842 0062 6846     		mov	r0, sp
 843 0064 FFF7FEFF 		bl	HAL_RCC_ClockConfig
 844              	.LVL57:
 196:Core/Src/main.c ****   {
 845              		.loc 1 196 6 view .LVU224
 846 0068 40B9     		cbnz	r0, .L69
 202:Core/Src/main.c **** }
 847              		.loc 1 202 3 is_stmt 1 view .LVU225
 848 006a FFF7FEFF 		bl	HAL_RCCEx_EnableMSIPLLMode
 849              	.LVL58:
 203:Core/Src/main.c **** 
 850              		.loc 1 203 1 is_stmt 0 view .LVU226
 851 006e 17B0     		add	sp, sp, #92
 852              	.LCFI14:
 853              		.cfi_remember_state
 854              		.cfi_def_cfa_offset 4
 855              		@ sp needed
 856 0070 5DF804FB 		ldr	pc, [sp], #4
 857              	.L67:
 858              	.LCFI15:
 859              		.cfi_restore_state
 168:Core/Src/main.c ****   }
 860              		.loc 1 168 5 is_stmt 1 view .LVU227
 861 0074 FFF7FEFF 		bl	Error_Handler
 862              	.LVL59:
 863              	.L68:
 185:Core/Src/main.c ****   }
 864              		.loc 1 185 5 view .LVU228
 865 0078 FFF7FEFF 		bl	Error_Handler
 866              	.LVL60:
 867              	.L69:
 198:Core/Src/main.c ****   }
 868              		.loc 1 198 5 view .LVU229
 869 007c FFF7FEFF 		bl	Error_Handler
 870              	.LVL61:
 871              	.L71:
 872              		.align	2
 873              	.L70:
 874 0080 00100240 		.word	1073876992
 875              		.cfi_endproc
 876              	.LFE353:
 878              		.section	.rodata.main.str1.4,"aMS",%progbits,1
 879              		.align	2
 880              	.LC11:
 881 0000 0D0A5379 		.ascii	"\015\012System Running\012\015\000"
ARM GAS  /tmp/ccVvGxMz.s 			page 30


 881      7374656D 
 881      2052756E 
 881      6E696E67 
 881      0A0D00
 882 0013 00       		.align	2
 883              	.LC12:
 884 0014 0D0A5354 		.ascii	"\015\012STM$\000"
 884      4D2400
 885 001b 00       		.align	2
 886              	.LC13:
 887 001c 0D0A4F4B 		.ascii	"\015\012OK\000"
 887      00
 888 0021 000000   		.align	2
 889              	.LC14:
 890 0024 0D0A4E4F 		.ascii	"\015\012NOK\000"
 890      4B00
 891              		.section	.text.main,"ax",%progbits
 892              		.align	1
 893              		.global	main
 894              		.syntax unified
 895              		.thumb
 896              		.thumb_func
 898              	main:
 899              	.LFB352:
  89:Core/Src/main.c ****   /* USER CODE BEGIN 1 */
 900              		.loc 1 89 1 view -0
 901              		.cfi_startproc
 902              		@ args = 0, pretend = 0, frame = 32
 903              		@ frame_needed = 0, uses_anonymous_args = 0
 904 0000 30B5     		push	{r4, r5, lr}
 905              	.LCFI16:
 906              		.cfi_def_cfa_offset 12
 907              		.cfi_offset 4, -12
 908              		.cfi_offset 5, -8
 909              		.cfi_offset 14, -4
 910 0002 89B0     		sub	sp, sp, #36
 911              	.LCFI17:
 912              		.cfi_def_cfa_offset 48
  97:Core/Src/main.c **** 
 913              		.loc 1 97 3 view .LVU231
 914 0004 FFF7FEFF 		bl	HAL_Init
 915              	.LVL62:
 100:Core/Src/main.c ****   uint8_t ch;
 916              		.loc 1 100 3 view .LVU232
 101:Core/Src/main.c ****   int n = 0;
 917              		.loc 1 101 3 view .LVU233
 102:Core/Src/main.c ****   /* USER CODE END Init */
 918              		.loc 1 102 3 view .LVU234
 106:Core/Src/main.c **** 
 919              		.loc 1 106 3 view .LVU235
 920 0008 FFF7FEFF 		bl	SystemClock_Config
 921              	.LVL63:
 113:Core/Src/main.c ****   MX_USART2_UART_Init();
 922              		.loc 1 113 3 view .LVU236
 923 000c FFF7FEFF 		bl	MX_GPIO_Init
 924              	.LVL64:
 114:Core/Src/main.c ****  
ARM GAS  /tmp/ccVvGxMz.s 			page 31


 925              		.loc 1 114 3 view .LVU237
 926 0010 FFF7FEFF 		bl	MX_USART2_UART_Init
 927              	.LVL65:
 117:Core/Src/main.c ****   LL_USART_EnableIT_RXNE(USART2); 
 928              		.loc 1 117 3 view .LVU238
 929 0014 1E48     		ldr	r0, .L82
 930 0016 FFF7FEFF 		bl	RetargetInit
 931              	.LVL66:
 118:Core/Src/main.c ****   printf("\r\nSystem Running\n\r");
 932              		.loc 1 118 3 view .LVU239
 933              	.LBB21:
 934              	.LBI21:
 935              		.file 3 "/home/barnecle/STM32Cube/Repository/STM32Cube_FW_L4_V1.17.1/Drivers/STM32L4xx_HAL_Driver/
   1:/home/barnecle/STM32Cube/Repository/STM32Cube_FW_L4_V1.17.1/Drivers/STM32L4xx_HAL_Driver/Inc/stm32l4xx_ll_usart.h **** /**
   2:/home/barnecle/STM32Cube/Repository/STM32Cube_FW_L4_V1.17.1/Drivers/STM32L4xx_HAL_Driver/Inc/stm32l4xx_ll_usart.h ****   ******************************************************************************
   3:/home/barnecle/STM32Cube/Repository/STM32Cube_FW_L4_V1.17.1/Drivers/STM32L4xx_HAL_Driver/Inc/stm32l4xx_ll_usart.h ****   * @file    stm32l4xx_ll_usart.h
   4:/home/barnecle/STM32Cube/Repository/STM32Cube_FW_L4_V1.17.1/Drivers/STM32L4xx_HAL_Driver/Inc/stm32l4xx_ll_usart.h ****   * @author  MCD Application Team
   5:/home/barnecle/STM32Cube/Repository/STM32Cube_FW_L4_V1.17.1/Drivers/STM32L4xx_HAL_Driver/Inc/stm32l4xx_ll_usart.h ****   * @brief   Header file of USART LL module.
   6:/home/barnecle/STM32Cube/Repository/STM32Cube_FW_L4_V1.17.1/Drivers/STM32L4xx_HAL_Driver/Inc/stm32l4xx_ll_usart.h ****   ******************************************************************************
   7:/home/barnecle/STM32Cube/Repository/STM32Cube_FW_L4_V1.17.1/Drivers/STM32L4xx_HAL_Driver/Inc/stm32l4xx_ll_usart.h ****   * @attention
   8:/home/barnecle/STM32Cube/Repository/STM32Cube_FW_L4_V1.17.1/Drivers/STM32L4xx_HAL_Driver/Inc/stm32l4xx_ll_usart.h ****   *
   9:/home/barnecle/STM32Cube/Repository/STM32Cube_FW_L4_V1.17.1/Drivers/STM32L4xx_HAL_Driver/Inc/stm32l4xx_ll_usart.h ****   * Copyright (c) 2017 STMicroelectronics.
  10:/home/barnecle/STM32Cube/Repository/STM32Cube_FW_L4_V1.17.1/Drivers/STM32L4xx_HAL_Driver/Inc/stm32l4xx_ll_usart.h ****   * All rights reserved.
  11:/home/barnecle/STM32Cube/Repository/STM32Cube_FW_L4_V1.17.1/Drivers/STM32L4xx_HAL_Driver/Inc/stm32l4xx_ll_usart.h ****   *
  12:/home/barnecle/STM32Cube/Repository/STM32Cube_FW_L4_V1.17.1/Drivers/STM32L4xx_HAL_Driver/Inc/stm32l4xx_ll_usart.h ****   * This software is licensed under terms that can be found in the LICENSE file
  13:/home/barnecle/STM32Cube/Repository/STM32Cube_FW_L4_V1.17.1/Drivers/STM32L4xx_HAL_Driver/Inc/stm32l4xx_ll_usart.h ****   * in the root directory of this software component.
  14:/home/barnecle/STM32Cube/Repository/STM32Cube_FW_L4_V1.17.1/Drivers/STM32L4xx_HAL_Driver/Inc/stm32l4xx_ll_usart.h ****   * If no LICENSE file comes with this software, it is provided AS-IS.
  15:/home/barnecle/STM32Cube/Repository/STM32Cube_FW_L4_V1.17.1/Drivers/STM32L4xx_HAL_Driver/Inc/stm32l4xx_ll_usart.h ****   *
  16:/home/barnecle/STM32Cube/Repository/STM32Cube_FW_L4_V1.17.1/Drivers/STM32L4xx_HAL_Driver/Inc/stm32l4xx_ll_usart.h ****   ******************************************************************************
  17:/home/barnecle/STM32Cube/Repository/STM32Cube_FW_L4_V1.17.1/Drivers/STM32L4xx_HAL_Driver/Inc/stm32l4xx_ll_usart.h ****   */
  18:/home/barnecle/STM32Cube/Repository/STM32Cube_FW_L4_V1.17.1/Drivers/STM32L4xx_HAL_Driver/Inc/stm32l4xx_ll_usart.h **** 
  19:/home/barnecle/STM32Cube/Repository/STM32Cube_FW_L4_V1.17.1/Drivers/STM32L4xx_HAL_Driver/Inc/stm32l4xx_ll_usart.h **** /* Define to prevent recursive inclusion -------------------------------------*/
  20:/home/barnecle/STM32Cube/Repository/STM32Cube_FW_L4_V1.17.1/Drivers/STM32L4xx_HAL_Driver/Inc/stm32l4xx_ll_usart.h **** #ifndef STM32L4xx_LL_USART_H
  21:/home/barnecle/STM32Cube/Repository/STM32Cube_FW_L4_V1.17.1/Drivers/STM32L4xx_HAL_Driver/Inc/stm32l4xx_ll_usart.h **** #define STM32L4xx_LL_USART_H
  22:/home/barnecle/STM32Cube/Repository/STM32Cube_FW_L4_V1.17.1/Drivers/STM32L4xx_HAL_Driver/Inc/stm32l4xx_ll_usart.h **** 
  23:/home/barnecle/STM32Cube/Repository/STM32Cube_FW_L4_V1.17.1/Drivers/STM32L4xx_HAL_Driver/Inc/stm32l4xx_ll_usart.h **** #ifdef __cplusplus
  24:/home/barnecle/STM32Cube/Repository/STM32Cube_FW_L4_V1.17.1/Drivers/STM32L4xx_HAL_Driver/Inc/stm32l4xx_ll_usart.h **** extern "C" {
  25:/home/barnecle/STM32Cube/Repository/STM32Cube_FW_L4_V1.17.1/Drivers/STM32L4xx_HAL_Driver/Inc/stm32l4xx_ll_usart.h **** #endif
  26:/home/barnecle/STM32Cube/Repository/STM32Cube_FW_L4_V1.17.1/Drivers/STM32L4xx_HAL_Driver/Inc/stm32l4xx_ll_usart.h **** 
  27:/home/barnecle/STM32Cube/Repository/STM32Cube_FW_L4_V1.17.1/Drivers/STM32L4xx_HAL_Driver/Inc/stm32l4xx_ll_usart.h **** /* Includes ------------------------------------------------------------------*/
  28:/home/barnecle/STM32Cube/Repository/STM32Cube_FW_L4_V1.17.1/Drivers/STM32L4xx_HAL_Driver/Inc/stm32l4xx_ll_usart.h **** #include "stm32l4xx.h"
  29:/home/barnecle/STM32Cube/Repository/STM32Cube_FW_L4_V1.17.1/Drivers/STM32L4xx_HAL_Driver/Inc/stm32l4xx_ll_usart.h **** 
  30:/home/barnecle/STM32Cube/Repository/STM32Cube_FW_L4_V1.17.1/Drivers/STM32L4xx_HAL_Driver/Inc/stm32l4xx_ll_usart.h **** /** @addtogroup STM32L4xx_LL_Driver
  31:/home/barnecle/STM32Cube/Repository/STM32Cube_FW_L4_V1.17.1/Drivers/STM32L4xx_HAL_Driver/Inc/stm32l4xx_ll_usart.h ****   * @{
  32:/home/barnecle/STM32Cube/Repository/STM32Cube_FW_L4_V1.17.1/Drivers/STM32L4xx_HAL_Driver/Inc/stm32l4xx_ll_usart.h ****   */
  33:/home/barnecle/STM32Cube/Repository/STM32Cube_FW_L4_V1.17.1/Drivers/STM32L4xx_HAL_Driver/Inc/stm32l4xx_ll_usart.h **** 
  34:/home/barnecle/STM32Cube/Repository/STM32Cube_FW_L4_V1.17.1/Drivers/STM32L4xx_HAL_Driver/Inc/stm32l4xx_ll_usart.h **** #if defined (USART1) || defined (USART2) || defined (USART3) || defined (UART4) || defined (UART5)
  35:/home/barnecle/STM32Cube/Repository/STM32Cube_FW_L4_V1.17.1/Drivers/STM32L4xx_HAL_Driver/Inc/stm32l4xx_ll_usart.h **** 
  36:/home/barnecle/STM32Cube/Repository/STM32Cube_FW_L4_V1.17.1/Drivers/STM32L4xx_HAL_Driver/Inc/stm32l4xx_ll_usart.h **** /** @defgroup USART_LL USART
  37:/home/barnecle/STM32Cube/Repository/STM32Cube_FW_L4_V1.17.1/Drivers/STM32L4xx_HAL_Driver/Inc/stm32l4xx_ll_usart.h ****   * @{
  38:/home/barnecle/STM32Cube/Repository/STM32Cube_FW_L4_V1.17.1/Drivers/STM32L4xx_HAL_Driver/Inc/stm32l4xx_ll_usart.h ****   */
  39:/home/barnecle/STM32Cube/Repository/STM32Cube_FW_L4_V1.17.1/Drivers/STM32L4xx_HAL_Driver/Inc/stm32l4xx_ll_usart.h **** 
  40:/home/barnecle/STM32Cube/Repository/STM32Cube_FW_L4_V1.17.1/Drivers/STM32L4xx_HAL_Driver/Inc/stm32l4xx_ll_usart.h **** /* Private types -------------------------------------------------------------*/
  41:/home/barnecle/STM32Cube/Repository/STM32Cube_FW_L4_V1.17.1/Drivers/STM32L4xx_HAL_Driver/Inc/stm32l4xx_ll_usart.h **** /* Private variables ---------------------------------------------------------*/
  42:/home/barnecle/STM32Cube/Repository/STM32Cube_FW_L4_V1.17.1/Drivers/STM32L4xx_HAL_Driver/Inc/stm32l4xx_ll_usart.h **** #if defined(USART_PRESC_PRESCALER)
  43:/home/barnecle/STM32Cube/Repository/STM32Cube_FW_L4_V1.17.1/Drivers/STM32L4xx_HAL_Driver/Inc/stm32l4xx_ll_usart.h **** /** @defgroup USART_LL_Private_Variables USART Private Variables
  44:/home/barnecle/STM32Cube/Repository/STM32Cube_FW_L4_V1.17.1/Drivers/STM32L4xx_HAL_Driver/Inc/stm32l4xx_ll_usart.h ****   * @{
ARM GAS  /tmp/ccVvGxMz.s 			page 32


  45:/home/barnecle/STM32Cube/Repository/STM32Cube_FW_L4_V1.17.1/Drivers/STM32L4xx_HAL_Driver/Inc/stm32l4xx_ll_usart.h ****   */
  46:/home/barnecle/STM32Cube/Repository/STM32Cube_FW_L4_V1.17.1/Drivers/STM32L4xx_HAL_Driver/Inc/stm32l4xx_ll_usart.h **** /* Array used to get the USART prescaler division decimal values versus @ref USART_LL_EC_PRESCALER 
  47:/home/barnecle/STM32Cube/Repository/STM32Cube_FW_L4_V1.17.1/Drivers/STM32L4xx_HAL_Driver/Inc/stm32l4xx_ll_usart.h **** static const uint32_t USART_PRESCALER_TAB[] =
  48:/home/barnecle/STM32Cube/Repository/STM32Cube_FW_L4_V1.17.1/Drivers/STM32L4xx_HAL_Driver/Inc/stm32l4xx_ll_usart.h **** {
  49:/home/barnecle/STM32Cube/Repository/STM32Cube_FW_L4_V1.17.1/Drivers/STM32L4xx_HAL_Driver/Inc/stm32l4xx_ll_usart.h ****   1UL,
  50:/home/barnecle/STM32Cube/Repository/STM32Cube_FW_L4_V1.17.1/Drivers/STM32L4xx_HAL_Driver/Inc/stm32l4xx_ll_usart.h ****   2UL,
  51:/home/barnecle/STM32Cube/Repository/STM32Cube_FW_L4_V1.17.1/Drivers/STM32L4xx_HAL_Driver/Inc/stm32l4xx_ll_usart.h ****   4UL,
  52:/home/barnecle/STM32Cube/Repository/STM32Cube_FW_L4_V1.17.1/Drivers/STM32L4xx_HAL_Driver/Inc/stm32l4xx_ll_usart.h ****   6UL,
  53:/home/barnecle/STM32Cube/Repository/STM32Cube_FW_L4_V1.17.1/Drivers/STM32L4xx_HAL_Driver/Inc/stm32l4xx_ll_usart.h ****   8UL,
  54:/home/barnecle/STM32Cube/Repository/STM32Cube_FW_L4_V1.17.1/Drivers/STM32L4xx_HAL_Driver/Inc/stm32l4xx_ll_usart.h ****   10UL,
  55:/home/barnecle/STM32Cube/Repository/STM32Cube_FW_L4_V1.17.1/Drivers/STM32L4xx_HAL_Driver/Inc/stm32l4xx_ll_usart.h ****   12UL,
  56:/home/barnecle/STM32Cube/Repository/STM32Cube_FW_L4_V1.17.1/Drivers/STM32L4xx_HAL_Driver/Inc/stm32l4xx_ll_usart.h ****   16UL,
  57:/home/barnecle/STM32Cube/Repository/STM32Cube_FW_L4_V1.17.1/Drivers/STM32L4xx_HAL_Driver/Inc/stm32l4xx_ll_usart.h ****   32UL,
  58:/home/barnecle/STM32Cube/Repository/STM32Cube_FW_L4_V1.17.1/Drivers/STM32L4xx_HAL_Driver/Inc/stm32l4xx_ll_usart.h ****   64UL,
  59:/home/barnecle/STM32Cube/Repository/STM32Cube_FW_L4_V1.17.1/Drivers/STM32L4xx_HAL_Driver/Inc/stm32l4xx_ll_usart.h ****   128UL,
  60:/home/barnecle/STM32Cube/Repository/STM32Cube_FW_L4_V1.17.1/Drivers/STM32L4xx_HAL_Driver/Inc/stm32l4xx_ll_usart.h ****   256UL
  61:/home/barnecle/STM32Cube/Repository/STM32Cube_FW_L4_V1.17.1/Drivers/STM32L4xx_HAL_Driver/Inc/stm32l4xx_ll_usart.h **** };
  62:/home/barnecle/STM32Cube/Repository/STM32Cube_FW_L4_V1.17.1/Drivers/STM32L4xx_HAL_Driver/Inc/stm32l4xx_ll_usart.h **** /**
  63:/home/barnecle/STM32Cube/Repository/STM32Cube_FW_L4_V1.17.1/Drivers/STM32L4xx_HAL_Driver/Inc/stm32l4xx_ll_usart.h ****   * @}
  64:/home/barnecle/STM32Cube/Repository/STM32Cube_FW_L4_V1.17.1/Drivers/STM32L4xx_HAL_Driver/Inc/stm32l4xx_ll_usart.h ****   */
  65:/home/barnecle/STM32Cube/Repository/STM32Cube_FW_L4_V1.17.1/Drivers/STM32L4xx_HAL_Driver/Inc/stm32l4xx_ll_usart.h **** #endif /* USART_PRESC_PRESCALER */
  66:/home/barnecle/STM32Cube/Repository/STM32Cube_FW_L4_V1.17.1/Drivers/STM32L4xx_HAL_Driver/Inc/stm32l4xx_ll_usart.h **** 
  67:/home/barnecle/STM32Cube/Repository/STM32Cube_FW_L4_V1.17.1/Drivers/STM32L4xx_HAL_Driver/Inc/stm32l4xx_ll_usart.h **** /* Private constants ---------------------------------------------------------*/
  68:/home/barnecle/STM32Cube/Repository/STM32Cube_FW_L4_V1.17.1/Drivers/STM32L4xx_HAL_Driver/Inc/stm32l4xx_ll_usart.h **** /* Private macros ------------------------------------------------------------*/
  69:/home/barnecle/STM32Cube/Repository/STM32Cube_FW_L4_V1.17.1/Drivers/STM32L4xx_HAL_Driver/Inc/stm32l4xx_ll_usart.h **** #if defined(USE_FULL_LL_DRIVER)
  70:/home/barnecle/STM32Cube/Repository/STM32Cube_FW_L4_V1.17.1/Drivers/STM32L4xx_HAL_Driver/Inc/stm32l4xx_ll_usart.h **** /** @defgroup USART_LL_Private_Macros USART Private Macros
  71:/home/barnecle/STM32Cube/Repository/STM32Cube_FW_L4_V1.17.1/Drivers/STM32L4xx_HAL_Driver/Inc/stm32l4xx_ll_usart.h ****   * @{
  72:/home/barnecle/STM32Cube/Repository/STM32Cube_FW_L4_V1.17.1/Drivers/STM32L4xx_HAL_Driver/Inc/stm32l4xx_ll_usart.h ****   */
  73:/home/barnecle/STM32Cube/Repository/STM32Cube_FW_L4_V1.17.1/Drivers/STM32L4xx_HAL_Driver/Inc/stm32l4xx_ll_usart.h **** /**
  74:/home/barnecle/STM32Cube/Repository/STM32Cube_FW_L4_V1.17.1/Drivers/STM32L4xx_HAL_Driver/Inc/stm32l4xx_ll_usart.h ****   * @}
  75:/home/barnecle/STM32Cube/Repository/STM32Cube_FW_L4_V1.17.1/Drivers/STM32L4xx_HAL_Driver/Inc/stm32l4xx_ll_usart.h ****   */
  76:/home/barnecle/STM32Cube/Repository/STM32Cube_FW_L4_V1.17.1/Drivers/STM32L4xx_HAL_Driver/Inc/stm32l4xx_ll_usart.h **** #endif /*USE_FULL_LL_DRIVER*/
  77:/home/barnecle/STM32Cube/Repository/STM32Cube_FW_L4_V1.17.1/Drivers/STM32L4xx_HAL_Driver/Inc/stm32l4xx_ll_usart.h **** 
  78:/home/barnecle/STM32Cube/Repository/STM32Cube_FW_L4_V1.17.1/Drivers/STM32L4xx_HAL_Driver/Inc/stm32l4xx_ll_usart.h **** /* Exported types ------------------------------------------------------------*/
  79:/home/barnecle/STM32Cube/Repository/STM32Cube_FW_L4_V1.17.1/Drivers/STM32L4xx_HAL_Driver/Inc/stm32l4xx_ll_usart.h **** #if defined(USE_FULL_LL_DRIVER)
  80:/home/barnecle/STM32Cube/Repository/STM32Cube_FW_L4_V1.17.1/Drivers/STM32L4xx_HAL_Driver/Inc/stm32l4xx_ll_usart.h **** /** @defgroup USART_LL_ES_INIT USART Exported Init structures
  81:/home/barnecle/STM32Cube/Repository/STM32Cube_FW_L4_V1.17.1/Drivers/STM32L4xx_HAL_Driver/Inc/stm32l4xx_ll_usart.h ****   * @{
  82:/home/barnecle/STM32Cube/Repository/STM32Cube_FW_L4_V1.17.1/Drivers/STM32L4xx_HAL_Driver/Inc/stm32l4xx_ll_usart.h ****   */
  83:/home/barnecle/STM32Cube/Repository/STM32Cube_FW_L4_V1.17.1/Drivers/STM32L4xx_HAL_Driver/Inc/stm32l4xx_ll_usart.h **** 
  84:/home/barnecle/STM32Cube/Repository/STM32Cube_FW_L4_V1.17.1/Drivers/STM32L4xx_HAL_Driver/Inc/stm32l4xx_ll_usart.h **** /**
  85:/home/barnecle/STM32Cube/Repository/STM32Cube_FW_L4_V1.17.1/Drivers/STM32L4xx_HAL_Driver/Inc/stm32l4xx_ll_usart.h ****   * @brief LL USART Init Structure definition
  86:/home/barnecle/STM32Cube/Repository/STM32Cube_FW_L4_V1.17.1/Drivers/STM32L4xx_HAL_Driver/Inc/stm32l4xx_ll_usart.h ****   */
  87:/home/barnecle/STM32Cube/Repository/STM32Cube_FW_L4_V1.17.1/Drivers/STM32L4xx_HAL_Driver/Inc/stm32l4xx_ll_usart.h **** typedef struct
  88:/home/barnecle/STM32Cube/Repository/STM32Cube_FW_L4_V1.17.1/Drivers/STM32L4xx_HAL_Driver/Inc/stm32l4xx_ll_usart.h **** {
  89:/home/barnecle/STM32Cube/Repository/STM32Cube_FW_L4_V1.17.1/Drivers/STM32L4xx_HAL_Driver/Inc/stm32l4xx_ll_usart.h **** #if defined(USART_PRESC_PRESCALER)
  90:/home/barnecle/STM32Cube/Repository/STM32Cube_FW_L4_V1.17.1/Drivers/STM32L4xx_HAL_Driver/Inc/stm32l4xx_ll_usart.h ****   uint32_t PrescalerValue;            /*!< Specifies the Prescaler to compute the communication bau
  91:/home/barnecle/STM32Cube/Repository/STM32Cube_FW_L4_V1.17.1/Drivers/STM32L4xx_HAL_Driver/Inc/stm32l4xx_ll_usart.h ****                                            This parameter can be a value of @ref USART_LL_EC_PRESCA
  92:/home/barnecle/STM32Cube/Repository/STM32Cube_FW_L4_V1.17.1/Drivers/STM32L4xx_HAL_Driver/Inc/stm32l4xx_ll_usart.h **** 
  93:/home/barnecle/STM32Cube/Repository/STM32Cube_FW_L4_V1.17.1/Drivers/STM32L4xx_HAL_Driver/Inc/stm32l4xx_ll_usart.h ****                                            This feature can be modified afterwards using unitary
  94:/home/barnecle/STM32Cube/Repository/STM32Cube_FW_L4_V1.17.1/Drivers/STM32L4xx_HAL_Driver/Inc/stm32l4xx_ll_usart.h ****                                            function @ref LL_USART_SetPrescaler().*/
  95:/home/barnecle/STM32Cube/Repository/STM32Cube_FW_L4_V1.17.1/Drivers/STM32L4xx_HAL_Driver/Inc/stm32l4xx_ll_usart.h **** #endif /* USART_PRESC_PRESCALER */
  96:/home/barnecle/STM32Cube/Repository/STM32Cube_FW_L4_V1.17.1/Drivers/STM32L4xx_HAL_Driver/Inc/stm32l4xx_ll_usart.h **** 
  97:/home/barnecle/STM32Cube/Repository/STM32Cube_FW_L4_V1.17.1/Drivers/STM32L4xx_HAL_Driver/Inc/stm32l4xx_ll_usart.h ****   uint32_t BaudRate;                  /*!< This field defines expected Usart communication baud rat
  98:/home/barnecle/STM32Cube/Repository/STM32Cube_FW_L4_V1.17.1/Drivers/STM32L4xx_HAL_Driver/Inc/stm32l4xx_ll_usart.h **** 
  99:/home/barnecle/STM32Cube/Repository/STM32Cube_FW_L4_V1.17.1/Drivers/STM32L4xx_HAL_Driver/Inc/stm32l4xx_ll_usart.h ****                                            This feature can be modified afterwards using unitary
 100:/home/barnecle/STM32Cube/Repository/STM32Cube_FW_L4_V1.17.1/Drivers/STM32L4xx_HAL_Driver/Inc/stm32l4xx_ll_usart.h ****                                            function @ref LL_USART_SetBaudRate().*/
 101:/home/barnecle/STM32Cube/Repository/STM32Cube_FW_L4_V1.17.1/Drivers/STM32L4xx_HAL_Driver/Inc/stm32l4xx_ll_usart.h **** 
ARM GAS  /tmp/ccVvGxMz.s 			page 33


 102:/home/barnecle/STM32Cube/Repository/STM32Cube_FW_L4_V1.17.1/Drivers/STM32L4xx_HAL_Driver/Inc/stm32l4xx_ll_usart.h ****   uint32_t DataWidth;                 /*!< Specifies the number of data bits transmitted or receive
 103:/home/barnecle/STM32Cube/Repository/STM32Cube_FW_L4_V1.17.1/Drivers/STM32L4xx_HAL_Driver/Inc/stm32l4xx_ll_usart.h ****                                            This parameter can be a value of @ref USART_LL_EC_DATAWI
 104:/home/barnecle/STM32Cube/Repository/STM32Cube_FW_L4_V1.17.1/Drivers/STM32L4xx_HAL_Driver/Inc/stm32l4xx_ll_usart.h **** 
 105:/home/barnecle/STM32Cube/Repository/STM32Cube_FW_L4_V1.17.1/Drivers/STM32L4xx_HAL_Driver/Inc/stm32l4xx_ll_usart.h ****                                            This feature can be modified afterwards using unitary
 106:/home/barnecle/STM32Cube/Repository/STM32Cube_FW_L4_V1.17.1/Drivers/STM32L4xx_HAL_Driver/Inc/stm32l4xx_ll_usart.h ****                                            function @ref LL_USART_SetDataWidth().*/
 107:/home/barnecle/STM32Cube/Repository/STM32Cube_FW_L4_V1.17.1/Drivers/STM32L4xx_HAL_Driver/Inc/stm32l4xx_ll_usart.h **** 
 108:/home/barnecle/STM32Cube/Repository/STM32Cube_FW_L4_V1.17.1/Drivers/STM32L4xx_HAL_Driver/Inc/stm32l4xx_ll_usart.h ****   uint32_t StopBits;                  /*!< Specifies the number of stop bits transmitted.
 109:/home/barnecle/STM32Cube/Repository/STM32Cube_FW_L4_V1.17.1/Drivers/STM32L4xx_HAL_Driver/Inc/stm32l4xx_ll_usart.h ****                                            This parameter can be a value of @ref USART_LL_EC_STOPBI
 110:/home/barnecle/STM32Cube/Repository/STM32Cube_FW_L4_V1.17.1/Drivers/STM32L4xx_HAL_Driver/Inc/stm32l4xx_ll_usart.h **** 
 111:/home/barnecle/STM32Cube/Repository/STM32Cube_FW_L4_V1.17.1/Drivers/STM32L4xx_HAL_Driver/Inc/stm32l4xx_ll_usart.h ****                                            This feature can be modified afterwards using unitary
 112:/home/barnecle/STM32Cube/Repository/STM32Cube_FW_L4_V1.17.1/Drivers/STM32L4xx_HAL_Driver/Inc/stm32l4xx_ll_usart.h ****                                            function @ref LL_USART_SetStopBitsLength().*/
 113:/home/barnecle/STM32Cube/Repository/STM32Cube_FW_L4_V1.17.1/Drivers/STM32L4xx_HAL_Driver/Inc/stm32l4xx_ll_usart.h **** 
 114:/home/barnecle/STM32Cube/Repository/STM32Cube_FW_L4_V1.17.1/Drivers/STM32L4xx_HAL_Driver/Inc/stm32l4xx_ll_usart.h ****   uint32_t Parity;                    /*!< Specifies the parity mode.
 115:/home/barnecle/STM32Cube/Repository/STM32Cube_FW_L4_V1.17.1/Drivers/STM32L4xx_HAL_Driver/Inc/stm32l4xx_ll_usart.h ****                                            This parameter can be a value of @ref USART_LL_EC_PARITY
 116:/home/barnecle/STM32Cube/Repository/STM32Cube_FW_L4_V1.17.1/Drivers/STM32L4xx_HAL_Driver/Inc/stm32l4xx_ll_usart.h **** 
 117:/home/barnecle/STM32Cube/Repository/STM32Cube_FW_L4_V1.17.1/Drivers/STM32L4xx_HAL_Driver/Inc/stm32l4xx_ll_usart.h ****                                            This feature can be modified afterwards using unitary
 118:/home/barnecle/STM32Cube/Repository/STM32Cube_FW_L4_V1.17.1/Drivers/STM32L4xx_HAL_Driver/Inc/stm32l4xx_ll_usart.h ****                                            function @ref LL_USART_SetParity().*/
 119:/home/barnecle/STM32Cube/Repository/STM32Cube_FW_L4_V1.17.1/Drivers/STM32L4xx_HAL_Driver/Inc/stm32l4xx_ll_usart.h **** 
 120:/home/barnecle/STM32Cube/Repository/STM32Cube_FW_L4_V1.17.1/Drivers/STM32L4xx_HAL_Driver/Inc/stm32l4xx_ll_usart.h ****   uint32_t TransferDirection;         /*!< Specifies whether the Receive and/or Transmit mode is en
 121:/home/barnecle/STM32Cube/Repository/STM32Cube_FW_L4_V1.17.1/Drivers/STM32L4xx_HAL_Driver/Inc/stm32l4xx_ll_usart.h ****                                            This parameter can be a value of @ref USART_LL_EC_DIRECT
 122:/home/barnecle/STM32Cube/Repository/STM32Cube_FW_L4_V1.17.1/Drivers/STM32L4xx_HAL_Driver/Inc/stm32l4xx_ll_usart.h **** 
 123:/home/barnecle/STM32Cube/Repository/STM32Cube_FW_L4_V1.17.1/Drivers/STM32L4xx_HAL_Driver/Inc/stm32l4xx_ll_usart.h ****                                            This feature can be modified afterwards using unitary
 124:/home/barnecle/STM32Cube/Repository/STM32Cube_FW_L4_V1.17.1/Drivers/STM32L4xx_HAL_Driver/Inc/stm32l4xx_ll_usart.h ****                                            function @ref LL_USART_SetTransferDirection().*/
 125:/home/barnecle/STM32Cube/Repository/STM32Cube_FW_L4_V1.17.1/Drivers/STM32L4xx_HAL_Driver/Inc/stm32l4xx_ll_usart.h **** 
 126:/home/barnecle/STM32Cube/Repository/STM32Cube_FW_L4_V1.17.1/Drivers/STM32L4xx_HAL_Driver/Inc/stm32l4xx_ll_usart.h ****   uint32_t HardwareFlowControl;       /*!< Specifies whether the hardware flow control mode is enab
 127:/home/barnecle/STM32Cube/Repository/STM32Cube_FW_L4_V1.17.1/Drivers/STM32L4xx_HAL_Driver/Inc/stm32l4xx_ll_usart.h ****                                            This parameter can be a value of @ref USART_LL_EC_HWCONT
 128:/home/barnecle/STM32Cube/Repository/STM32Cube_FW_L4_V1.17.1/Drivers/STM32L4xx_HAL_Driver/Inc/stm32l4xx_ll_usart.h **** 
 129:/home/barnecle/STM32Cube/Repository/STM32Cube_FW_L4_V1.17.1/Drivers/STM32L4xx_HAL_Driver/Inc/stm32l4xx_ll_usart.h ****                                            This feature can be modified afterwards using unitary
 130:/home/barnecle/STM32Cube/Repository/STM32Cube_FW_L4_V1.17.1/Drivers/STM32L4xx_HAL_Driver/Inc/stm32l4xx_ll_usart.h ****                                            function @ref LL_USART_SetHWFlowCtrl().*/
 131:/home/barnecle/STM32Cube/Repository/STM32Cube_FW_L4_V1.17.1/Drivers/STM32L4xx_HAL_Driver/Inc/stm32l4xx_ll_usart.h **** 
 132:/home/barnecle/STM32Cube/Repository/STM32Cube_FW_L4_V1.17.1/Drivers/STM32L4xx_HAL_Driver/Inc/stm32l4xx_ll_usart.h ****   uint32_t OverSampling;              /*!< Specifies whether USART oversampling mode is 16 or 8.
 133:/home/barnecle/STM32Cube/Repository/STM32Cube_FW_L4_V1.17.1/Drivers/STM32L4xx_HAL_Driver/Inc/stm32l4xx_ll_usart.h ****                                            This parameter can be a value of @ref USART_LL_EC_OVERSA
 134:/home/barnecle/STM32Cube/Repository/STM32Cube_FW_L4_V1.17.1/Drivers/STM32L4xx_HAL_Driver/Inc/stm32l4xx_ll_usart.h **** 
 135:/home/barnecle/STM32Cube/Repository/STM32Cube_FW_L4_V1.17.1/Drivers/STM32L4xx_HAL_Driver/Inc/stm32l4xx_ll_usart.h ****                                            This feature can be modified afterwards using unitary
 136:/home/barnecle/STM32Cube/Repository/STM32Cube_FW_L4_V1.17.1/Drivers/STM32L4xx_HAL_Driver/Inc/stm32l4xx_ll_usart.h ****                                            function @ref LL_USART_SetOverSampling().*/
 137:/home/barnecle/STM32Cube/Repository/STM32Cube_FW_L4_V1.17.1/Drivers/STM32L4xx_HAL_Driver/Inc/stm32l4xx_ll_usart.h **** 
 138:/home/barnecle/STM32Cube/Repository/STM32Cube_FW_L4_V1.17.1/Drivers/STM32L4xx_HAL_Driver/Inc/stm32l4xx_ll_usart.h **** } LL_USART_InitTypeDef;
 139:/home/barnecle/STM32Cube/Repository/STM32Cube_FW_L4_V1.17.1/Drivers/STM32L4xx_HAL_Driver/Inc/stm32l4xx_ll_usart.h **** 
 140:/home/barnecle/STM32Cube/Repository/STM32Cube_FW_L4_V1.17.1/Drivers/STM32L4xx_HAL_Driver/Inc/stm32l4xx_ll_usart.h **** /**
 141:/home/barnecle/STM32Cube/Repository/STM32Cube_FW_L4_V1.17.1/Drivers/STM32L4xx_HAL_Driver/Inc/stm32l4xx_ll_usart.h ****   * @brief LL USART Clock Init Structure definition
 142:/home/barnecle/STM32Cube/Repository/STM32Cube_FW_L4_V1.17.1/Drivers/STM32L4xx_HAL_Driver/Inc/stm32l4xx_ll_usart.h ****   */
 143:/home/barnecle/STM32Cube/Repository/STM32Cube_FW_L4_V1.17.1/Drivers/STM32L4xx_HAL_Driver/Inc/stm32l4xx_ll_usart.h **** typedef struct
 144:/home/barnecle/STM32Cube/Repository/STM32Cube_FW_L4_V1.17.1/Drivers/STM32L4xx_HAL_Driver/Inc/stm32l4xx_ll_usart.h **** {
 145:/home/barnecle/STM32Cube/Repository/STM32Cube_FW_L4_V1.17.1/Drivers/STM32L4xx_HAL_Driver/Inc/stm32l4xx_ll_usart.h ****   uint32_t ClockOutput;               /*!< Specifies whether the USART clock is enabled or disabled
 146:/home/barnecle/STM32Cube/Repository/STM32Cube_FW_L4_V1.17.1/Drivers/STM32L4xx_HAL_Driver/Inc/stm32l4xx_ll_usart.h ****                                            This parameter can be a value of @ref USART_LL_EC_CLOCK.
 147:/home/barnecle/STM32Cube/Repository/STM32Cube_FW_L4_V1.17.1/Drivers/STM32L4xx_HAL_Driver/Inc/stm32l4xx_ll_usart.h **** 
 148:/home/barnecle/STM32Cube/Repository/STM32Cube_FW_L4_V1.17.1/Drivers/STM32L4xx_HAL_Driver/Inc/stm32l4xx_ll_usart.h ****                                            USART HW configuration can be modified afterwards using 
 149:/home/barnecle/STM32Cube/Repository/STM32Cube_FW_L4_V1.17.1/Drivers/STM32L4xx_HAL_Driver/Inc/stm32l4xx_ll_usart.h ****                                            @ref LL_USART_EnableSCLKOutput() or @ref LL_USART_Disabl
 150:/home/barnecle/STM32Cube/Repository/STM32Cube_FW_L4_V1.17.1/Drivers/STM32L4xx_HAL_Driver/Inc/stm32l4xx_ll_usart.h ****                                            For more details, refer to description of this function.
 151:/home/barnecle/STM32Cube/Repository/STM32Cube_FW_L4_V1.17.1/Drivers/STM32L4xx_HAL_Driver/Inc/stm32l4xx_ll_usart.h **** 
 152:/home/barnecle/STM32Cube/Repository/STM32Cube_FW_L4_V1.17.1/Drivers/STM32L4xx_HAL_Driver/Inc/stm32l4xx_ll_usart.h ****   uint32_t ClockPolarity;             /*!< Specifies the steady state of the serial clock.
 153:/home/barnecle/STM32Cube/Repository/STM32Cube_FW_L4_V1.17.1/Drivers/STM32L4xx_HAL_Driver/Inc/stm32l4xx_ll_usart.h ****                                            This parameter can be a value of @ref USART_LL_EC_POLARI
 154:/home/barnecle/STM32Cube/Repository/STM32Cube_FW_L4_V1.17.1/Drivers/STM32L4xx_HAL_Driver/Inc/stm32l4xx_ll_usart.h **** 
 155:/home/barnecle/STM32Cube/Repository/STM32Cube_FW_L4_V1.17.1/Drivers/STM32L4xx_HAL_Driver/Inc/stm32l4xx_ll_usart.h ****                                            USART HW configuration can be modified afterwards using 
 156:/home/barnecle/STM32Cube/Repository/STM32Cube_FW_L4_V1.17.1/Drivers/STM32L4xx_HAL_Driver/Inc/stm32l4xx_ll_usart.h ****                                            functions @ref LL_USART_SetClockPolarity().
 157:/home/barnecle/STM32Cube/Repository/STM32Cube_FW_L4_V1.17.1/Drivers/STM32L4xx_HAL_Driver/Inc/stm32l4xx_ll_usart.h ****                                            For more details, refer to description of this function.
 158:/home/barnecle/STM32Cube/Repository/STM32Cube_FW_L4_V1.17.1/Drivers/STM32L4xx_HAL_Driver/Inc/stm32l4xx_ll_usart.h **** 
ARM GAS  /tmp/ccVvGxMz.s 			page 34


 159:/home/barnecle/STM32Cube/Repository/STM32Cube_FW_L4_V1.17.1/Drivers/STM32L4xx_HAL_Driver/Inc/stm32l4xx_ll_usart.h ****   uint32_t ClockPhase;                /*!< Specifies the clock transition on which the bit capture 
 160:/home/barnecle/STM32Cube/Repository/STM32Cube_FW_L4_V1.17.1/Drivers/STM32L4xx_HAL_Driver/Inc/stm32l4xx_ll_usart.h ****                                            This parameter can be a value of @ref USART_LL_EC_PHASE.
 161:/home/barnecle/STM32Cube/Repository/STM32Cube_FW_L4_V1.17.1/Drivers/STM32L4xx_HAL_Driver/Inc/stm32l4xx_ll_usart.h **** 
 162:/home/barnecle/STM32Cube/Repository/STM32Cube_FW_L4_V1.17.1/Drivers/STM32L4xx_HAL_Driver/Inc/stm32l4xx_ll_usart.h ****                                            USART HW configuration can be modified afterwards using 
 163:/home/barnecle/STM32Cube/Repository/STM32Cube_FW_L4_V1.17.1/Drivers/STM32L4xx_HAL_Driver/Inc/stm32l4xx_ll_usart.h ****                                            functions @ref LL_USART_SetClockPhase().
 164:/home/barnecle/STM32Cube/Repository/STM32Cube_FW_L4_V1.17.1/Drivers/STM32L4xx_HAL_Driver/Inc/stm32l4xx_ll_usart.h ****                                            For more details, refer to description of this function.
 165:/home/barnecle/STM32Cube/Repository/STM32Cube_FW_L4_V1.17.1/Drivers/STM32L4xx_HAL_Driver/Inc/stm32l4xx_ll_usart.h **** 
 166:/home/barnecle/STM32Cube/Repository/STM32Cube_FW_L4_V1.17.1/Drivers/STM32L4xx_HAL_Driver/Inc/stm32l4xx_ll_usart.h ****   uint32_t LastBitClockPulse;         /*!< Specifies whether the clock pulse corresponding to the l
 167:/home/barnecle/STM32Cube/Repository/STM32Cube_FW_L4_V1.17.1/Drivers/STM32L4xx_HAL_Driver/Inc/stm32l4xx_ll_usart.h ****                                            data bit (MSB) has to be output on the SCLK pin in synch
 168:/home/barnecle/STM32Cube/Repository/STM32Cube_FW_L4_V1.17.1/Drivers/STM32L4xx_HAL_Driver/Inc/stm32l4xx_ll_usart.h ****                                            This parameter can be a value of @ref USART_LL_EC_LASTCL
 169:/home/barnecle/STM32Cube/Repository/STM32Cube_FW_L4_V1.17.1/Drivers/STM32L4xx_HAL_Driver/Inc/stm32l4xx_ll_usart.h **** 
 170:/home/barnecle/STM32Cube/Repository/STM32Cube_FW_L4_V1.17.1/Drivers/STM32L4xx_HAL_Driver/Inc/stm32l4xx_ll_usart.h ****                                            USART HW configuration can be modified afterwards using 
 171:/home/barnecle/STM32Cube/Repository/STM32Cube_FW_L4_V1.17.1/Drivers/STM32L4xx_HAL_Driver/Inc/stm32l4xx_ll_usart.h ****                                            functions @ref LL_USART_SetLastClkPulseOutput().
 172:/home/barnecle/STM32Cube/Repository/STM32Cube_FW_L4_V1.17.1/Drivers/STM32L4xx_HAL_Driver/Inc/stm32l4xx_ll_usart.h ****                                            For more details, refer to description of this function.
 173:/home/barnecle/STM32Cube/Repository/STM32Cube_FW_L4_V1.17.1/Drivers/STM32L4xx_HAL_Driver/Inc/stm32l4xx_ll_usart.h **** 
 174:/home/barnecle/STM32Cube/Repository/STM32Cube_FW_L4_V1.17.1/Drivers/STM32L4xx_HAL_Driver/Inc/stm32l4xx_ll_usart.h **** } LL_USART_ClockInitTypeDef;
 175:/home/barnecle/STM32Cube/Repository/STM32Cube_FW_L4_V1.17.1/Drivers/STM32L4xx_HAL_Driver/Inc/stm32l4xx_ll_usart.h **** 
 176:/home/barnecle/STM32Cube/Repository/STM32Cube_FW_L4_V1.17.1/Drivers/STM32L4xx_HAL_Driver/Inc/stm32l4xx_ll_usart.h **** /**
 177:/home/barnecle/STM32Cube/Repository/STM32Cube_FW_L4_V1.17.1/Drivers/STM32L4xx_HAL_Driver/Inc/stm32l4xx_ll_usart.h ****   * @}
 178:/home/barnecle/STM32Cube/Repository/STM32Cube_FW_L4_V1.17.1/Drivers/STM32L4xx_HAL_Driver/Inc/stm32l4xx_ll_usart.h ****   */
 179:/home/barnecle/STM32Cube/Repository/STM32Cube_FW_L4_V1.17.1/Drivers/STM32L4xx_HAL_Driver/Inc/stm32l4xx_ll_usart.h **** #endif /* USE_FULL_LL_DRIVER */
 180:/home/barnecle/STM32Cube/Repository/STM32Cube_FW_L4_V1.17.1/Drivers/STM32L4xx_HAL_Driver/Inc/stm32l4xx_ll_usart.h **** 
 181:/home/barnecle/STM32Cube/Repository/STM32Cube_FW_L4_V1.17.1/Drivers/STM32L4xx_HAL_Driver/Inc/stm32l4xx_ll_usart.h **** /* Exported constants --------------------------------------------------------*/
 182:/home/barnecle/STM32Cube/Repository/STM32Cube_FW_L4_V1.17.1/Drivers/STM32L4xx_HAL_Driver/Inc/stm32l4xx_ll_usart.h **** /** @defgroup USART_LL_Exported_Constants USART Exported Constants
 183:/home/barnecle/STM32Cube/Repository/STM32Cube_FW_L4_V1.17.1/Drivers/STM32L4xx_HAL_Driver/Inc/stm32l4xx_ll_usart.h ****   * @{
 184:/home/barnecle/STM32Cube/Repository/STM32Cube_FW_L4_V1.17.1/Drivers/STM32L4xx_HAL_Driver/Inc/stm32l4xx_ll_usart.h ****   */
 185:/home/barnecle/STM32Cube/Repository/STM32Cube_FW_L4_V1.17.1/Drivers/STM32L4xx_HAL_Driver/Inc/stm32l4xx_ll_usart.h **** 
 186:/home/barnecle/STM32Cube/Repository/STM32Cube_FW_L4_V1.17.1/Drivers/STM32L4xx_HAL_Driver/Inc/stm32l4xx_ll_usart.h **** /** @defgroup USART_LL_EC_CLEAR_FLAG Clear Flags Defines
 187:/home/barnecle/STM32Cube/Repository/STM32Cube_FW_L4_V1.17.1/Drivers/STM32L4xx_HAL_Driver/Inc/stm32l4xx_ll_usart.h ****   * @brief    Flags defines which can be used with LL_USART_WriteReg function
 188:/home/barnecle/STM32Cube/Repository/STM32Cube_FW_L4_V1.17.1/Drivers/STM32L4xx_HAL_Driver/Inc/stm32l4xx_ll_usart.h ****   * @{
 189:/home/barnecle/STM32Cube/Repository/STM32Cube_FW_L4_V1.17.1/Drivers/STM32L4xx_HAL_Driver/Inc/stm32l4xx_ll_usart.h ****   */
 190:/home/barnecle/STM32Cube/Repository/STM32Cube_FW_L4_V1.17.1/Drivers/STM32L4xx_HAL_Driver/Inc/stm32l4xx_ll_usart.h **** #define LL_USART_ICR_PECF                       USART_ICR_PECF                /*!< Parity error cle
 191:/home/barnecle/STM32Cube/Repository/STM32Cube_FW_L4_V1.17.1/Drivers/STM32L4xx_HAL_Driver/Inc/stm32l4xx_ll_usart.h **** #define LL_USART_ICR_FECF                       USART_ICR_FECF                /*!< Framing error cl
 192:/home/barnecle/STM32Cube/Repository/STM32Cube_FW_L4_V1.17.1/Drivers/STM32L4xx_HAL_Driver/Inc/stm32l4xx_ll_usart.h **** #define LL_USART_ICR_NECF                       USART_ICR_NECF                /*!< Noise error dete
 193:/home/barnecle/STM32Cube/Repository/STM32Cube_FW_L4_V1.17.1/Drivers/STM32L4xx_HAL_Driver/Inc/stm32l4xx_ll_usart.h **** #define LL_USART_ICR_ORECF                      USART_ICR_ORECF               /*!< Overrun error cl
 194:/home/barnecle/STM32Cube/Repository/STM32Cube_FW_L4_V1.17.1/Drivers/STM32L4xx_HAL_Driver/Inc/stm32l4xx_ll_usart.h **** #define LL_USART_ICR_IDLECF                     USART_ICR_IDLECF              /*!< Idle line detect
 195:/home/barnecle/STM32Cube/Repository/STM32Cube_FW_L4_V1.17.1/Drivers/STM32L4xx_HAL_Driver/Inc/stm32l4xx_ll_usart.h **** #if defined(USART_CR1_FIFOEN)
 196:/home/barnecle/STM32Cube/Repository/STM32Cube_FW_L4_V1.17.1/Drivers/STM32L4xx_HAL_Driver/Inc/stm32l4xx_ll_usart.h **** #define LL_USART_ICR_TXFECF                     USART_ICR_TXFECF              /*!< TX FIFO Empty cl
 197:/home/barnecle/STM32Cube/Repository/STM32Cube_FW_L4_V1.17.1/Drivers/STM32L4xx_HAL_Driver/Inc/stm32l4xx_ll_usart.h **** #endif /* USART_CR1_FIFOEN */
 198:/home/barnecle/STM32Cube/Repository/STM32Cube_FW_L4_V1.17.1/Drivers/STM32L4xx_HAL_Driver/Inc/stm32l4xx_ll_usart.h **** #define LL_USART_ICR_TCCF                       USART_ICR_TCCF                /*!< Transmission com
 199:/home/barnecle/STM32Cube/Repository/STM32Cube_FW_L4_V1.17.1/Drivers/STM32L4xx_HAL_Driver/Inc/stm32l4xx_ll_usart.h **** #if defined(USART_TCBGT_SUPPORT)
 200:/home/barnecle/STM32Cube/Repository/STM32Cube_FW_L4_V1.17.1/Drivers/STM32L4xx_HAL_Driver/Inc/stm32l4xx_ll_usart.h **** #define LL_USART_ICR_TCBGTCF                    USART_ICR_TCBGTCF             /*!< Transmission com
 201:/home/barnecle/STM32Cube/Repository/STM32Cube_FW_L4_V1.17.1/Drivers/STM32L4xx_HAL_Driver/Inc/stm32l4xx_ll_usart.h **** #endif /* USART_TCBGT_SUPPORT */
 202:/home/barnecle/STM32Cube/Repository/STM32Cube_FW_L4_V1.17.1/Drivers/STM32L4xx_HAL_Driver/Inc/stm32l4xx_ll_usart.h **** #define LL_USART_ICR_LBDCF                      USART_ICR_LBDCF               /*!< LIN break detect
 203:/home/barnecle/STM32Cube/Repository/STM32Cube_FW_L4_V1.17.1/Drivers/STM32L4xx_HAL_Driver/Inc/stm32l4xx_ll_usart.h **** #define LL_USART_ICR_CTSCF                      USART_ICR_CTSCF               /*!< CTS clear flag *
 204:/home/barnecle/STM32Cube/Repository/STM32Cube_FW_L4_V1.17.1/Drivers/STM32L4xx_HAL_Driver/Inc/stm32l4xx_ll_usart.h **** #define LL_USART_ICR_RTOCF                      USART_ICR_RTOCF               /*!< Receiver timeout
 205:/home/barnecle/STM32Cube/Repository/STM32Cube_FW_L4_V1.17.1/Drivers/STM32L4xx_HAL_Driver/Inc/stm32l4xx_ll_usart.h **** #define LL_USART_ICR_EOBCF                      USART_ICR_EOBCF               /*!< End of block cle
 206:/home/barnecle/STM32Cube/Repository/STM32Cube_FW_L4_V1.17.1/Drivers/STM32L4xx_HAL_Driver/Inc/stm32l4xx_ll_usart.h **** #if defined(USART_CR2_SLVEN)
 207:/home/barnecle/STM32Cube/Repository/STM32Cube_FW_L4_V1.17.1/Drivers/STM32L4xx_HAL_Driver/Inc/stm32l4xx_ll_usart.h **** #define LL_USART_ICR_UDRCF                      USART_ICR_UDRCF               /*!< SPI Slave Underr
 208:/home/barnecle/STM32Cube/Repository/STM32Cube_FW_L4_V1.17.1/Drivers/STM32L4xx_HAL_Driver/Inc/stm32l4xx_ll_usart.h **** #endif /* USART_CR2_SLVEN */
 209:/home/barnecle/STM32Cube/Repository/STM32Cube_FW_L4_V1.17.1/Drivers/STM32L4xx_HAL_Driver/Inc/stm32l4xx_ll_usart.h **** #define LL_USART_ICR_CMCF                       USART_ICR_CMCF                /*!< Character match 
 210:/home/barnecle/STM32Cube/Repository/STM32Cube_FW_L4_V1.17.1/Drivers/STM32L4xx_HAL_Driver/Inc/stm32l4xx_ll_usart.h **** #define LL_USART_ICR_WUCF                       USART_ICR_WUCF                /*!< Wakeup from Stop
 211:/home/barnecle/STM32Cube/Repository/STM32Cube_FW_L4_V1.17.1/Drivers/STM32L4xx_HAL_Driver/Inc/stm32l4xx_ll_usart.h **** /**
 212:/home/barnecle/STM32Cube/Repository/STM32Cube_FW_L4_V1.17.1/Drivers/STM32L4xx_HAL_Driver/Inc/stm32l4xx_ll_usart.h ****   * @}
 213:/home/barnecle/STM32Cube/Repository/STM32Cube_FW_L4_V1.17.1/Drivers/STM32L4xx_HAL_Driver/Inc/stm32l4xx_ll_usart.h ****   */
 214:/home/barnecle/STM32Cube/Repository/STM32Cube_FW_L4_V1.17.1/Drivers/STM32L4xx_HAL_Driver/Inc/stm32l4xx_ll_usart.h **** 
 215:/home/barnecle/STM32Cube/Repository/STM32Cube_FW_L4_V1.17.1/Drivers/STM32L4xx_HAL_Driver/Inc/stm32l4xx_ll_usart.h **** /** @defgroup USART_LL_EC_GET_FLAG Get Flags Defines
ARM GAS  /tmp/ccVvGxMz.s 			page 35


 216:/home/barnecle/STM32Cube/Repository/STM32Cube_FW_L4_V1.17.1/Drivers/STM32L4xx_HAL_Driver/Inc/stm32l4xx_ll_usart.h ****   * @brief    Flags defines which can be used with LL_USART_ReadReg function
 217:/home/barnecle/STM32Cube/Repository/STM32Cube_FW_L4_V1.17.1/Drivers/STM32L4xx_HAL_Driver/Inc/stm32l4xx_ll_usart.h ****   * @{
 218:/home/barnecle/STM32Cube/Repository/STM32Cube_FW_L4_V1.17.1/Drivers/STM32L4xx_HAL_Driver/Inc/stm32l4xx_ll_usart.h ****   */
 219:/home/barnecle/STM32Cube/Repository/STM32Cube_FW_L4_V1.17.1/Drivers/STM32L4xx_HAL_Driver/Inc/stm32l4xx_ll_usart.h **** #define LL_USART_ISR_PE                         USART_ISR_PE                  /*!< Parity error fla
 220:/home/barnecle/STM32Cube/Repository/STM32Cube_FW_L4_V1.17.1/Drivers/STM32L4xx_HAL_Driver/Inc/stm32l4xx_ll_usart.h **** #define LL_USART_ISR_FE                         USART_ISR_FE                  /*!< Framing error fl
 221:/home/barnecle/STM32Cube/Repository/STM32Cube_FW_L4_V1.17.1/Drivers/STM32L4xx_HAL_Driver/Inc/stm32l4xx_ll_usart.h **** #define LL_USART_ISR_NE                         USART_ISR_NE                  /*!< Noise detected f
 222:/home/barnecle/STM32Cube/Repository/STM32Cube_FW_L4_V1.17.1/Drivers/STM32L4xx_HAL_Driver/Inc/stm32l4xx_ll_usart.h **** #define LL_USART_ISR_ORE                        USART_ISR_ORE                 /*!< Overrun error fl
 223:/home/barnecle/STM32Cube/Repository/STM32Cube_FW_L4_V1.17.1/Drivers/STM32L4xx_HAL_Driver/Inc/stm32l4xx_ll_usart.h **** #define LL_USART_ISR_IDLE                       USART_ISR_IDLE                /*!< Idle line detect
 224:/home/barnecle/STM32Cube/Repository/STM32Cube_FW_L4_V1.17.1/Drivers/STM32L4xx_HAL_Driver/Inc/stm32l4xx_ll_usart.h **** #if defined(USART_CR1_FIFOEN)
 225:/home/barnecle/STM32Cube/Repository/STM32Cube_FW_L4_V1.17.1/Drivers/STM32L4xx_HAL_Driver/Inc/stm32l4xx_ll_usart.h **** #define LL_USART_ISR_RXNE_RXFNE                 USART_ISR_RXNE_RXFNE          /*!< Read data regist
 226:/home/barnecle/STM32Cube/Repository/STM32Cube_FW_L4_V1.17.1/Drivers/STM32L4xx_HAL_Driver/Inc/stm32l4xx_ll_usart.h **** #else
 227:/home/barnecle/STM32Cube/Repository/STM32Cube_FW_L4_V1.17.1/Drivers/STM32L4xx_HAL_Driver/Inc/stm32l4xx_ll_usart.h **** #define LL_USART_ISR_RXNE                       USART_ISR_RXNE                /*!< Read data regist
 228:/home/barnecle/STM32Cube/Repository/STM32Cube_FW_L4_V1.17.1/Drivers/STM32L4xx_HAL_Driver/Inc/stm32l4xx_ll_usart.h **** #endif /* USART_CR1_FIFOEN */
 229:/home/barnecle/STM32Cube/Repository/STM32Cube_FW_L4_V1.17.1/Drivers/STM32L4xx_HAL_Driver/Inc/stm32l4xx_ll_usart.h **** #define LL_USART_ISR_TC                         USART_ISR_TC                  /*!< Transmission com
 230:/home/barnecle/STM32Cube/Repository/STM32Cube_FW_L4_V1.17.1/Drivers/STM32L4xx_HAL_Driver/Inc/stm32l4xx_ll_usart.h **** #if defined(USART_CR1_FIFOEN)
 231:/home/barnecle/STM32Cube/Repository/STM32Cube_FW_L4_V1.17.1/Drivers/STM32L4xx_HAL_Driver/Inc/stm32l4xx_ll_usart.h **** #define LL_USART_ISR_TXE_TXFNF                  USART_ISR_TXE_TXFNF           /*!< Transmit data re
 232:/home/barnecle/STM32Cube/Repository/STM32Cube_FW_L4_V1.17.1/Drivers/STM32L4xx_HAL_Driver/Inc/stm32l4xx_ll_usart.h **** #else
 233:/home/barnecle/STM32Cube/Repository/STM32Cube_FW_L4_V1.17.1/Drivers/STM32L4xx_HAL_Driver/Inc/stm32l4xx_ll_usart.h **** #define LL_USART_ISR_TXE                        USART_ISR_TXE                 /*!< Transmit data re
 234:/home/barnecle/STM32Cube/Repository/STM32Cube_FW_L4_V1.17.1/Drivers/STM32L4xx_HAL_Driver/Inc/stm32l4xx_ll_usart.h **** #endif /* USART_CR1_FIFOEN */
 235:/home/barnecle/STM32Cube/Repository/STM32Cube_FW_L4_V1.17.1/Drivers/STM32L4xx_HAL_Driver/Inc/stm32l4xx_ll_usart.h **** #define LL_USART_ISR_LBDF                       USART_ISR_LBDF                /*!< LIN break detect
 236:/home/barnecle/STM32Cube/Repository/STM32Cube_FW_L4_V1.17.1/Drivers/STM32L4xx_HAL_Driver/Inc/stm32l4xx_ll_usart.h **** #define LL_USART_ISR_CTSIF                      USART_ISR_CTSIF               /*!< CTS interrupt fl
 237:/home/barnecle/STM32Cube/Repository/STM32Cube_FW_L4_V1.17.1/Drivers/STM32L4xx_HAL_Driver/Inc/stm32l4xx_ll_usart.h **** #define LL_USART_ISR_CTS                        USART_ISR_CTS                 /*!< CTS flag */
 238:/home/barnecle/STM32Cube/Repository/STM32Cube_FW_L4_V1.17.1/Drivers/STM32L4xx_HAL_Driver/Inc/stm32l4xx_ll_usart.h **** #define LL_USART_ISR_RTOF                       USART_ISR_RTOF                /*!< Receiver timeout
 239:/home/barnecle/STM32Cube/Repository/STM32Cube_FW_L4_V1.17.1/Drivers/STM32L4xx_HAL_Driver/Inc/stm32l4xx_ll_usart.h **** #define LL_USART_ISR_EOBF                       USART_ISR_EOBF                /*!< End of block fla
 240:/home/barnecle/STM32Cube/Repository/STM32Cube_FW_L4_V1.17.1/Drivers/STM32L4xx_HAL_Driver/Inc/stm32l4xx_ll_usart.h **** #if defined(USART_CR2_SLVEN)
 241:/home/barnecle/STM32Cube/Repository/STM32Cube_FW_L4_V1.17.1/Drivers/STM32L4xx_HAL_Driver/Inc/stm32l4xx_ll_usart.h **** #define LL_USART_ISR_UDR                        USART_ISR_UDR                 /*!< SPI Slave underr
 242:/home/barnecle/STM32Cube/Repository/STM32Cube_FW_L4_V1.17.1/Drivers/STM32L4xx_HAL_Driver/Inc/stm32l4xx_ll_usart.h **** #endif /* USART_CR2_SLVEN */
 243:/home/barnecle/STM32Cube/Repository/STM32Cube_FW_L4_V1.17.1/Drivers/STM32L4xx_HAL_Driver/Inc/stm32l4xx_ll_usart.h **** #define LL_USART_ISR_ABRE                       USART_ISR_ABRE                /*!< Auto baud rate e
 244:/home/barnecle/STM32Cube/Repository/STM32Cube_FW_L4_V1.17.1/Drivers/STM32L4xx_HAL_Driver/Inc/stm32l4xx_ll_usart.h **** #define LL_USART_ISR_ABRF                       USART_ISR_ABRF                /*!< Auto baud rate f
 245:/home/barnecle/STM32Cube/Repository/STM32Cube_FW_L4_V1.17.1/Drivers/STM32L4xx_HAL_Driver/Inc/stm32l4xx_ll_usart.h **** #define LL_USART_ISR_BUSY                       USART_ISR_BUSY                /*!< Busy flag */
 246:/home/barnecle/STM32Cube/Repository/STM32Cube_FW_L4_V1.17.1/Drivers/STM32L4xx_HAL_Driver/Inc/stm32l4xx_ll_usart.h **** #define LL_USART_ISR_CMF                        USART_ISR_CMF                 /*!< Character match 
 247:/home/barnecle/STM32Cube/Repository/STM32Cube_FW_L4_V1.17.1/Drivers/STM32L4xx_HAL_Driver/Inc/stm32l4xx_ll_usart.h **** #define LL_USART_ISR_SBKF                       USART_ISR_SBKF                /*!< Send break flag 
 248:/home/barnecle/STM32Cube/Repository/STM32Cube_FW_L4_V1.17.1/Drivers/STM32L4xx_HAL_Driver/Inc/stm32l4xx_ll_usart.h **** #define LL_USART_ISR_RWU                        USART_ISR_RWU                 /*!< Receiver wakeup 
 249:/home/barnecle/STM32Cube/Repository/STM32Cube_FW_L4_V1.17.1/Drivers/STM32L4xx_HAL_Driver/Inc/stm32l4xx_ll_usart.h **** #define LL_USART_ISR_WUF                        USART_ISR_WUF                 /*!< Wakeup from Stop
 250:/home/barnecle/STM32Cube/Repository/STM32Cube_FW_L4_V1.17.1/Drivers/STM32L4xx_HAL_Driver/Inc/stm32l4xx_ll_usart.h **** #define LL_USART_ISR_TEACK                      USART_ISR_TEACK               /*!< Transmit enable 
 251:/home/barnecle/STM32Cube/Repository/STM32Cube_FW_L4_V1.17.1/Drivers/STM32L4xx_HAL_Driver/Inc/stm32l4xx_ll_usart.h **** #define LL_USART_ISR_REACK                      USART_ISR_REACK               /*!< Receive enable a
 252:/home/barnecle/STM32Cube/Repository/STM32Cube_FW_L4_V1.17.1/Drivers/STM32L4xx_HAL_Driver/Inc/stm32l4xx_ll_usart.h **** #if defined(USART_CR1_FIFOEN)
 253:/home/barnecle/STM32Cube/Repository/STM32Cube_FW_L4_V1.17.1/Drivers/STM32L4xx_HAL_Driver/Inc/stm32l4xx_ll_usart.h **** #define LL_USART_ISR_TXFE                       USART_ISR_TXFE                /*!< TX FIFO empty fl
 254:/home/barnecle/STM32Cube/Repository/STM32Cube_FW_L4_V1.17.1/Drivers/STM32L4xx_HAL_Driver/Inc/stm32l4xx_ll_usart.h **** #define LL_USART_ISR_RXFF                       USART_ISR_RXFF                /*!< RX FIFO full fla
 255:/home/barnecle/STM32Cube/Repository/STM32Cube_FW_L4_V1.17.1/Drivers/STM32L4xx_HAL_Driver/Inc/stm32l4xx_ll_usart.h **** #endif /* USART_CR1_FIFOEN */
 256:/home/barnecle/STM32Cube/Repository/STM32Cube_FW_L4_V1.17.1/Drivers/STM32L4xx_HAL_Driver/Inc/stm32l4xx_ll_usart.h **** #if defined(USART_TCBGT_SUPPORT)
 257:/home/barnecle/STM32Cube/Repository/STM32Cube_FW_L4_V1.17.1/Drivers/STM32L4xx_HAL_Driver/Inc/stm32l4xx_ll_usart.h **** #define LL_USART_ISR_TCBGT                      USART_ISR_TCBGT               /*!< Transmission com
 258:/home/barnecle/STM32Cube/Repository/STM32Cube_FW_L4_V1.17.1/Drivers/STM32L4xx_HAL_Driver/Inc/stm32l4xx_ll_usart.h **** #endif /* USART_TCBGT_SUPPORT */
 259:/home/barnecle/STM32Cube/Repository/STM32Cube_FW_L4_V1.17.1/Drivers/STM32L4xx_HAL_Driver/Inc/stm32l4xx_ll_usart.h **** #if defined(USART_CR1_FIFOEN)
 260:/home/barnecle/STM32Cube/Repository/STM32Cube_FW_L4_V1.17.1/Drivers/STM32L4xx_HAL_Driver/Inc/stm32l4xx_ll_usart.h **** #define LL_USART_ISR_RXFT                       USART_ISR_RXFT                /*!< RX FIFO threshol
 261:/home/barnecle/STM32Cube/Repository/STM32Cube_FW_L4_V1.17.1/Drivers/STM32L4xx_HAL_Driver/Inc/stm32l4xx_ll_usart.h **** #define LL_USART_ISR_TXFT                       USART_ISR_TXFT                /*!< TX FIFO threshol
 262:/home/barnecle/STM32Cube/Repository/STM32Cube_FW_L4_V1.17.1/Drivers/STM32L4xx_HAL_Driver/Inc/stm32l4xx_ll_usart.h **** #endif /* USART_CR1_FIFOEN */
 263:/home/barnecle/STM32Cube/Repository/STM32Cube_FW_L4_V1.17.1/Drivers/STM32L4xx_HAL_Driver/Inc/stm32l4xx_ll_usart.h **** /**
 264:/home/barnecle/STM32Cube/Repository/STM32Cube_FW_L4_V1.17.1/Drivers/STM32L4xx_HAL_Driver/Inc/stm32l4xx_ll_usart.h ****   * @}
 265:/home/barnecle/STM32Cube/Repository/STM32Cube_FW_L4_V1.17.1/Drivers/STM32L4xx_HAL_Driver/Inc/stm32l4xx_ll_usart.h ****   */
 266:/home/barnecle/STM32Cube/Repository/STM32Cube_FW_L4_V1.17.1/Drivers/STM32L4xx_HAL_Driver/Inc/stm32l4xx_ll_usart.h **** 
 267:/home/barnecle/STM32Cube/Repository/STM32Cube_FW_L4_V1.17.1/Drivers/STM32L4xx_HAL_Driver/Inc/stm32l4xx_ll_usart.h **** /** @defgroup USART_LL_EC_IT IT Defines
 268:/home/barnecle/STM32Cube/Repository/STM32Cube_FW_L4_V1.17.1/Drivers/STM32L4xx_HAL_Driver/Inc/stm32l4xx_ll_usart.h ****   * @brief    IT defines which can be used with LL_USART_ReadReg and  LL_USART_WriteReg functions
 269:/home/barnecle/STM32Cube/Repository/STM32Cube_FW_L4_V1.17.1/Drivers/STM32L4xx_HAL_Driver/Inc/stm32l4xx_ll_usart.h ****   * @{
 270:/home/barnecle/STM32Cube/Repository/STM32Cube_FW_L4_V1.17.1/Drivers/STM32L4xx_HAL_Driver/Inc/stm32l4xx_ll_usart.h ****   */
 271:/home/barnecle/STM32Cube/Repository/STM32Cube_FW_L4_V1.17.1/Drivers/STM32L4xx_HAL_Driver/Inc/stm32l4xx_ll_usart.h **** #define LL_USART_CR1_IDLEIE                     USART_CR1_IDLEIE              /*!< IDLE interrupt e
 272:/home/barnecle/STM32Cube/Repository/STM32Cube_FW_L4_V1.17.1/Drivers/STM32L4xx_HAL_Driver/Inc/stm32l4xx_ll_usart.h **** #if defined(USART_CR1_FIFOEN)
ARM GAS  /tmp/ccVvGxMz.s 			page 36


 273:/home/barnecle/STM32Cube/Repository/STM32Cube_FW_L4_V1.17.1/Drivers/STM32L4xx_HAL_Driver/Inc/stm32l4xx_ll_usart.h **** #define LL_USART_CR1_RXNEIE_RXFNEIE             USART_CR1_RXNEIE_RXFNEIE      /*!< Read data regist
 274:/home/barnecle/STM32Cube/Repository/STM32Cube_FW_L4_V1.17.1/Drivers/STM32L4xx_HAL_Driver/Inc/stm32l4xx_ll_usart.h **** #else
 275:/home/barnecle/STM32Cube/Repository/STM32Cube_FW_L4_V1.17.1/Drivers/STM32L4xx_HAL_Driver/Inc/stm32l4xx_ll_usart.h **** #define LL_USART_CR1_RXNEIE                     USART_CR1_RXNEIE              /*!< Read data regist
 276:/home/barnecle/STM32Cube/Repository/STM32Cube_FW_L4_V1.17.1/Drivers/STM32L4xx_HAL_Driver/Inc/stm32l4xx_ll_usart.h **** #endif /* USART_CR1_FIFOEN */
 277:/home/barnecle/STM32Cube/Repository/STM32Cube_FW_L4_V1.17.1/Drivers/STM32L4xx_HAL_Driver/Inc/stm32l4xx_ll_usart.h **** #define LL_USART_CR1_TCIE                       USART_CR1_TCIE                /*!< Transmission com
 278:/home/barnecle/STM32Cube/Repository/STM32Cube_FW_L4_V1.17.1/Drivers/STM32L4xx_HAL_Driver/Inc/stm32l4xx_ll_usart.h **** #if defined(USART_CR1_FIFOEN)
 279:/home/barnecle/STM32Cube/Repository/STM32Cube_FW_L4_V1.17.1/Drivers/STM32L4xx_HAL_Driver/Inc/stm32l4xx_ll_usart.h **** #define LL_USART_CR1_TXEIE_TXFNFIE              USART_CR1_TXEIE_TXFNFIE       /*!< Transmit data re
 280:/home/barnecle/STM32Cube/Repository/STM32Cube_FW_L4_V1.17.1/Drivers/STM32L4xx_HAL_Driver/Inc/stm32l4xx_ll_usart.h **** #else
 281:/home/barnecle/STM32Cube/Repository/STM32Cube_FW_L4_V1.17.1/Drivers/STM32L4xx_HAL_Driver/Inc/stm32l4xx_ll_usart.h **** #define LL_USART_CR1_TXEIE                      USART_CR1_TXEIE               /*!< Transmit data re
 282:/home/barnecle/STM32Cube/Repository/STM32Cube_FW_L4_V1.17.1/Drivers/STM32L4xx_HAL_Driver/Inc/stm32l4xx_ll_usart.h **** #endif /* USART_CR1_FIFOEN */
 283:/home/barnecle/STM32Cube/Repository/STM32Cube_FW_L4_V1.17.1/Drivers/STM32L4xx_HAL_Driver/Inc/stm32l4xx_ll_usart.h **** #define LL_USART_CR1_PEIE                       USART_CR1_PEIE                /*!< Parity error */
 284:/home/barnecle/STM32Cube/Repository/STM32Cube_FW_L4_V1.17.1/Drivers/STM32L4xx_HAL_Driver/Inc/stm32l4xx_ll_usart.h **** #define LL_USART_CR1_CMIE                       USART_CR1_CMIE                /*!< Character match 
 285:/home/barnecle/STM32Cube/Repository/STM32Cube_FW_L4_V1.17.1/Drivers/STM32L4xx_HAL_Driver/Inc/stm32l4xx_ll_usart.h **** #define LL_USART_CR1_RTOIE                      USART_CR1_RTOIE               /*!< Receiver timeout
 286:/home/barnecle/STM32Cube/Repository/STM32Cube_FW_L4_V1.17.1/Drivers/STM32L4xx_HAL_Driver/Inc/stm32l4xx_ll_usart.h **** #define LL_USART_CR1_EOBIE                      USART_CR1_EOBIE               /*!< End of Block int
 287:/home/barnecle/STM32Cube/Repository/STM32Cube_FW_L4_V1.17.1/Drivers/STM32L4xx_HAL_Driver/Inc/stm32l4xx_ll_usart.h **** #if defined(USART_CR1_FIFOEN)
 288:/home/barnecle/STM32Cube/Repository/STM32Cube_FW_L4_V1.17.1/Drivers/STM32L4xx_HAL_Driver/Inc/stm32l4xx_ll_usart.h **** #define LL_USART_CR1_TXFEIE                     USART_CR1_TXFEIE              /*!< TX FIFO empty in
 289:/home/barnecle/STM32Cube/Repository/STM32Cube_FW_L4_V1.17.1/Drivers/STM32L4xx_HAL_Driver/Inc/stm32l4xx_ll_usart.h **** #define LL_USART_CR1_RXFFIE                     USART_CR1_RXFFIE              /*!< RX FIFO full int
 290:/home/barnecle/STM32Cube/Repository/STM32Cube_FW_L4_V1.17.1/Drivers/STM32L4xx_HAL_Driver/Inc/stm32l4xx_ll_usart.h **** #endif /* USART_CR1_FIFOEN */
 291:/home/barnecle/STM32Cube/Repository/STM32Cube_FW_L4_V1.17.1/Drivers/STM32L4xx_HAL_Driver/Inc/stm32l4xx_ll_usart.h **** #define LL_USART_CR2_LBDIE                      USART_CR2_LBDIE               /*!< LIN break detect
 292:/home/barnecle/STM32Cube/Repository/STM32Cube_FW_L4_V1.17.1/Drivers/STM32L4xx_HAL_Driver/Inc/stm32l4xx_ll_usart.h **** #define LL_USART_CR3_EIE                        USART_CR3_EIE                 /*!< Error interrupt 
 293:/home/barnecle/STM32Cube/Repository/STM32Cube_FW_L4_V1.17.1/Drivers/STM32L4xx_HAL_Driver/Inc/stm32l4xx_ll_usart.h **** #define LL_USART_CR3_CTSIE                      USART_CR3_CTSIE               /*!< CTS interrupt en
 294:/home/barnecle/STM32Cube/Repository/STM32Cube_FW_L4_V1.17.1/Drivers/STM32L4xx_HAL_Driver/Inc/stm32l4xx_ll_usart.h **** #define LL_USART_CR3_WUFIE                      USART_CR3_WUFIE               /*!< Wakeup from Stop
 295:/home/barnecle/STM32Cube/Repository/STM32Cube_FW_L4_V1.17.1/Drivers/STM32L4xx_HAL_Driver/Inc/stm32l4xx_ll_usart.h **** #if defined(USART_CR1_FIFOEN)
 296:/home/barnecle/STM32Cube/Repository/STM32Cube_FW_L4_V1.17.1/Drivers/STM32L4xx_HAL_Driver/Inc/stm32l4xx_ll_usart.h **** #define LL_USART_CR3_TXFTIE                     USART_CR3_TXFTIE              /*!< TX FIFO threshol
 297:/home/barnecle/STM32Cube/Repository/STM32Cube_FW_L4_V1.17.1/Drivers/STM32L4xx_HAL_Driver/Inc/stm32l4xx_ll_usart.h **** #endif /* USART_CR1_FIFOEN */
 298:/home/barnecle/STM32Cube/Repository/STM32Cube_FW_L4_V1.17.1/Drivers/STM32L4xx_HAL_Driver/Inc/stm32l4xx_ll_usart.h **** #if defined(USART_TCBGT_SUPPORT)
 299:/home/barnecle/STM32Cube/Repository/STM32Cube_FW_L4_V1.17.1/Drivers/STM32L4xx_HAL_Driver/Inc/stm32l4xx_ll_usart.h **** #define LL_USART_CR3_TCBGTIE                    USART_CR3_TCBGTIE             /*!< Transmission com
 300:/home/barnecle/STM32Cube/Repository/STM32Cube_FW_L4_V1.17.1/Drivers/STM32L4xx_HAL_Driver/Inc/stm32l4xx_ll_usart.h **** #endif /* USART_TCBGT_SUPPORT */
 301:/home/barnecle/STM32Cube/Repository/STM32Cube_FW_L4_V1.17.1/Drivers/STM32L4xx_HAL_Driver/Inc/stm32l4xx_ll_usart.h **** #if defined(USART_CR1_FIFOEN)
 302:/home/barnecle/STM32Cube/Repository/STM32Cube_FW_L4_V1.17.1/Drivers/STM32L4xx_HAL_Driver/Inc/stm32l4xx_ll_usart.h **** #define LL_USART_CR3_RXFTIE                     USART_CR3_RXFTIE              /*!< RX FIFO threshol
 303:/home/barnecle/STM32Cube/Repository/STM32Cube_FW_L4_V1.17.1/Drivers/STM32L4xx_HAL_Driver/Inc/stm32l4xx_ll_usart.h **** #endif /* USART_CR1_FIFOEN */
 304:/home/barnecle/STM32Cube/Repository/STM32Cube_FW_L4_V1.17.1/Drivers/STM32L4xx_HAL_Driver/Inc/stm32l4xx_ll_usart.h **** /**
 305:/home/barnecle/STM32Cube/Repository/STM32Cube_FW_L4_V1.17.1/Drivers/STM32L4xx_HAL_Driver/Inc/stm32l4xx_ll_usart.h ****   * @}
 306:/home/barnecle/STM32Cube/Repository/STM32Cube_FW_L4_V1.17.1/Drivers/STM32L4xx_HAL_Driver/Inc/stm32l4xx_ll_usart.h ****   */
 307:/home/barnecle/STM32Cube/Repository/STM32Cube_FW_L4_V1.17.1/Drivers/STM32L4xx_HAL_Driver/Inc/stm32l4xx_ll_usart.h **** 
 308:/home/barnecle/STM32Cube/Repository/STM32Cube_FW_L4_V1.17.1/Drivers/STM32L4xx_HAL_Driver/Inc/stm32l4xx_ll_usart.h **** #if defined(USART_CR1_FIFOEN)
 309:/home/barnecle/STM32Cube/Repository/STM32Cube_FW_L4_V1.17.1/Drivers/STM32L4xx_HAL_Driver/Inc/stm32l4xx_ll_usart.h **** /** @defgroup USART_LL_EC_FIFOTHRESHOLD FIFO Threshold
 310:/home/barnecle/STM32Cube/Repository/STM32Cube_FW_L4_V1.17.1/Drivers/STM32L4xx_HAL_Driver/Inc/stm32l4xx_ll_usart.h ****   * @{
 311:/home/barnecle/STM32Cube/Repository/STM32Cube_FW_L4_V1.17.1/Drivers/STM32L4xx_HAL_Driver/Inc/stm32l4xx_ll_usart.h ****   */
 312:/home/barnecle/STM32Cube/Repository/STM32Cube_FW_L4_V1.17.1/Drivers/STM32L4xx_HAL_Driver/Inc/stm32l4xx_ll_usart.h **** #define LL_USART_FIFOTHRESHOLD_1_8              0x00000000U /*!< FIFO reaches 1/8 of its depth */
 313:/home/barnecle/STM32Cube/Repository/STM32Cube_FW_L4_V1.17.1/Drivers/STM32L4xx_HAL_Driver/Inc/stm32l4xx_ll_usart.h **** #define LL_USART_FIFOTHRESHOLD_1_4              0x00000001U /*!< FIFO reaches 1/4 of its depth */
 314:/home/barnecle/STM32Cube/Repository/STM32Cube_FW_L4_V1.17.1/Drivers/STM32L4xx_HAL_Driver/Inc/stm32l4xx_ll_usart.h **** #define LL_USART_FIFOTHRESHOLD_1_2              0x00000002U /*!< FIFO reaches 1/2 of its depth */
 315:/home/barnecle/STM32Cube/Repository/STM32Cube_FW_L4_V1.17.1/Drivers/STM32L4xx_HAL_Driver/Inc/stm32l4xx_ll_usart.h **** #define LL_USART_FIFOTHRESHOLD_3_4              0x00000003U /*!< FIFO reaches 3/4 of its depth */
 316:/home/barnecle/STM32Cube/Repository/STM32Cube_FW_L4_V1.17.1/Drivers/STM32L4xx_HAL_Driver/Inc/stm32l4xx_ll_usart.h **** #define LL_USART_FIFOTHRESHOLD_7_8              0x00000004U /*!< FIFO reaches 7/8 of its depth */
 317:/home/barnecle/STM32Cube/Repository/STM32Cube_FW_L4_V1.17.1/Drivers/STM32L4xx_HAL_Driver/Inc/stm32l4xx_ll_usart.h **** #define LL_USART_FIFOTHRESHOLD_8_8              0x00000005U /*!< FIFO becomes empty for TX and full
 318:/home/barnecle/STM32Cube/Repository/STM32Cube_FW_L4_V1.17.1/Drivers/STM32L4xx_HAL_Driver/Inc/stm32l4xx_ll_usart.h **** /**
 319:/home/barnecle/STM32Cube/Repository/STM32Cube_FW_L4_V1.17.1/Drivers/STM32L4xx_HAL_Driver/Inc/stm32l4xx_ll_usart.h ****   * @}
 320:/home/barnecle/STM32Cube/Repository/STM32Cube_FW_L4_V1.17.1/Drivers/STM32L4xx_HAL_Driver/Inc/stm32l4xx_ll_usart.h ****   */
 321:/home/barnecle/STM32Cube/Repository/STM32Cube_FW_L4_V1.17.1/Drivers/STM32L4xx_HAL_Driver/Inc/stm32l4xx_ll_usart.h **** 
 322:/home/barnecle/STM32Cube/Repository/STM32Cube_FW_L4_V1.17.1/Drivers/STM32L4xx_HAL_Driver/Inc/stm32l4xx_ll_usart.h **** #endif /* USART_CR1_FIFOEN */
 323:/home/barnecle/STM32Cube/Repository/STM32Cube_FW_L4_V1.17.1/Drivers/STM32L4xx_HAL_Driver/Inc/stm32l4xx_ll_usart.h **** /** @defgroup USART_LL_EC_DIRECTION Communication Direction
 324:/home/barnecle/STM32Cube/Repository/STM32Cube_FW_L4_V1.17.1/Drivers/STM32L4xx_HAL_Driver/Inc/stm32l4xx_ll_usart.h ****   * @{
 325:/home/barnecle/STM32Cube/Repository/STM32Cube_FW_L4_V1.17.1/Drivers/STM32L4xx_HAL_Driver/Inc/stm32l4xx_ll_usart.h ****   */
 326:/home/barnecle/STM32Cube/Repository/STM32Cube_FW_L4_V1.17.1/Drivers/STM32L4xx_HAL_Driver/Inc/stm32l4xx_ll_usart.h **** #define LL_USART_DIRECTION_NONE                 0x00000000U                        /*!< Transmitter
 327:/home/barnecle/STM32Cube/Repository/STM32Cube_FW_L4_V1.17.1/Drivers/STM32L4xx_HAL_Driver/Inc/stm32l4xx_ll_usart.h **** #define LL_USART_DIRECTION_RX                   USART_CR1_RE                       /*!< Transmitter
 328:/home/barnecle/STM32Cube/Repository/STM32Cube_FW_L4_V1.17.1/Drivers/STM32L4xx_HAL_Driver/Inc/stm32l4xx_ll_usart.h **** #define LL_USART_DIRECTION_TX                   USART_CR1_TE                       /*!< Transmitter
 329:/home/barnecle/STM32Cube/Repository/STM32Cube_FW_L4_V1.17.1/Drivers/STM32L4xx_HAL_Driver/Inc/stm32l4xx_ll_usart.h **** #define LL_USART_DIRECTION_TX_RX                (USART_CR1_TE |USART_CR1_RE)       /*!< Transmitter
ARM GAS  /tmp/ccVvGxMz.s 			page 37


 330:/home/barnecle/STM32Cube/Repository/STM32Cube_FW_L4_V1.17.1/Drivers/STM32L4xx_HAL_Driver/Inc/stm32l4xx_ll_usart.h **** /**
 331:/home/barnecle/STM32Cube/Repository/STM32Cube_FW_L4_V1.17.1/Drivers/STM32L4xx_HAL_Driver/Inc/stm32l4xx_ll_usart.h ****   * @}
 332:/home/barnecle/STM32Cube/Repository/STM32Cube_FW_L4_V1.17.1/Drivers/STM32L4xx_HAL_Driver/Inc/stm32l4xx_ll_usart.h ****   */
 333:/home/barnecle/STM32Cube/Repository/STM32Cube_FW_L4_V1.17.1/Drivers/STM32L4xx_HAL_Driver/Inc/stm32l4xx_ll_usart.h **** 
 334:/home/barnecle/STM32Cube/Repository/STM32Cube_FW_L4_V1.17.1/Drivers/STM32L4xx_HAL_Driver/Inc/stm32l4xx_ll_usart.h **** /** @defgroup USART_LL_EC_PARITY Parity Control
 335:/home/barnecle/STM32Cube/Repository/STM32Cube_FW_L4_V1.17.1/Drivers/STM32L4xx_HAL_Driver/Inc/stm32l4xx_ll_usart.h ****   * @{
 336:/home/barnecle/STM32Cube/Repository/STM32Cube_FW_L4_V1.17.1/Drivers/STM32L4xx_HAL_Driver/Inc/stm32l4xx_ll_usart.h ****   */
 337:/home/barnecle/STM32Cube/Repository/STM32Cube_FW_L4_V1.17.1/Drivers/STM32L4xx_HAL_Driver/Inc/stm32l4xx_ll_usart.h **** #define LL_USART_PARITY_NONE                    0x00000000U                          /*!< Parity co
 338:/home/barnecle/STM32Cube/Repository/STM32Cube_FW_L4_V1.17.1/Drivers/STM32L4xx_HAL_Driver/Inc/stm32l4xx_ll_usart.h **** #define LL_USART_PARITY_EVEN                    USART_CR1_PCE                        /*!< Parity co
 339:/home/barnecle/STM32Cube/Repository/STM32Cube_FW_L4_V1.17.1/Drivers/STM32L4xx_HAL_Driver/Inc/stm32l4xx_ll_usart.h **** #define LL_USART_PARITY_ODD                     (USART_CR1_PCE | USART_CR1_PS)       /*!< Parity co
 340:/home/barnecle/STM32Cube/Repository/STM32Cube_FW_L4_V1.17.1/Drivers/STM32L4xx_HAL_Driver/Inc/stm32l4xx_ll_usart.h **** /**
 341:/home/barnecle/STM32Cube/Repository/STM32Cube_FW_L4_V1.17.1/Drivers/STM32L4xx_HAL_Driver/Inc/stm32l4xx_ll_usart.h ****   * @}
 342:/home/barnecle/STM32Cube/Repository/STM32Cube_FW_L4_V1.17.1/Drivers/STM32L4xx_HAL_Driver/Inc/stm32l4xx_ll_usart.h ****   */
 343:/home/barnecle/STM32Cube/Repository/STM32Cube_FW_L4_V1.17.1/Drivers/STM32L4xx_HAL_Driver/Inc/stm32l4xx_ll_usart.h **** 
 344:/home/barnecle/STM32Cube/Repository/STM32Cube_FW_L4_V1.17.1/Drivers/STM32L4xx_HAL_Driver/Inc/stm32l4xx_ll_usart.h **** /** @defgroup USART_LL_EC_WAKEUP Wakeup
 345:/home/barnecle/STM32Cube/Repository/STM32Cube_FW_L4_V1.17.1/Drivers/STM32L4xx_HAL_Driver/Inc/stm32l4xx_ll_usart.h ****   * @{
 346:/home/barnecle/STM32Cube/Repository/STM32Cube_FW_L4_V1.17.1/Drivers/STM32L4xx_HAL_Driver/Inc/stm32l4xx_ll_usart.h ****   */
 347:/home/barnecle/STM32Cube/Repository/STM32Cube_FW_L4_V1.17.1/Drivers/STM32L4xx_HAL_Driver/Inc/stm32l4xx_ll_usart.h **** #define LL_USART_WAKEUP_IDLELINE                0x00000000U           /*!<  USART wake up from Mute
 348:/home/barnecle/STM32Cube/Repository/STM32Cube_FW_L4_V1.17.1/Drivers/STM32L4xx_HAL_Driver/Inc/stm32l4xx_ll_usart.h **** #define LL_USART_WAKEUP_ADDRESSMARK             USART_CR1_WAKE        /*!<  USART wake up from Mute
 349:/home/barnecle/STM32Cube/Repository/STM32Cube_FW_L4_V1.17.1/Drivers/STM32L4xx_HAL_Driver/Inc/stm32l4xx_ll_usart.h **** /**
 350:/home/barnecle/STM32Cube/Repository/STM32Cube_FW_L4_V1.17.1/Drivers/STM32L4xx_HAL_Driver/Inc/stm32l4xx_ll_usart.h ****   * @}
 351:/home/barnecle/STM32Cube/Repository/STM32Cube_FW_L4_V1.17.1/Drivers/STM32L4xx_HAL_Driver/Inc/stm32l4xx_ll_usart.h ****   */
 352:/home/barnecle/STM32Cube/Repository/STM32Cube_FW_L4_V1.17.1/Drivers/STM32L4xx_HAL_Driver/Inc/stm32l4xx_ll_usart.h **** 
 353:/home/barnecle/STM32Cube/Repository/STM32Cube_FW_L4_V1.17.1/Drivers/STM32L4xx_HAL_Driver/Inc/stm32l4xx_ll_usart.h **** /** @defgroup USART_LL_EC_DATAWIDTH Datawidth
 354:/home/barnecle/STM32Cube/Repository/STM32Cube_FW_L4_V1.17.1/Drivers/STM32L4xx_HAL_Driver/Inc/stm32l4xx_ll_usart.h ****   * @{
 355:/home/barnecle/STM32Cube/Repository/STM32Cube_FW_L4_V1.17.1/Drivers/STM32L4xx_HAL_Driver/Inc/stm32l4xx_ll_usart.h ****   */
 356:/home/barnecle/STM32Cube/Repository/STM32Cube_FW_L4_V1.17.1/Drivers/STM32L4xx_HAL_Driver/Inc/stm32l4xx_ll_usart.h **** #define LL_USART_DATAWIDTH_7B                   USART_CR1_M1            /*!< 7 bits word length : S
 357:/home/barnecle/STM32Cube/Repository/STM32Cube_FW_L4_V1.17.1/Drivers/STM32L4xx_HAL_Driver/Inc/stm32l4xx_ll_usart.h **** #define LL_USART_DATAWIDTH_8B                   0x00000000U             /*!< 8 bits word length : S
 358:/home/barnecle/STM32Cube/Repository/STM32Cube_FW_L4_V1.17.1/Drivers/STM32L4xx_HAL_Driver/Inc/stm32l4xx_ll_usart.h **** #define LL_USART_DATAWIDTH_9B                   USART_CR1_M0            /*!< 9 bits word length : S
 359:/home/barnecle/STM32Cube/Repository/STM32Cube_FW_L4_V1.17.1/Drivers/STM32L4xx_HAL_Driver/Inc/stm32l4xx_ll_usart.h **** /**
 360:/home/barnecle/STM32Cube/Repository/STM32Cube_FW_L4_V1.17.1/Drivers/STM32L4xx_HAL_Driver/Inc/stm32l4xx_ll_usart.h ****   * @}
 361:/home/barnecle/STM32Cube/Repository/STM32Cube_FW_L4_V1.17.1/Drivers/STM32L4xx_HAL_Driver/Inc/stm32l4xx_ll_usart.h ****   */
 362:/home/barnecle/STM32Cube/Repository/STM32Cube_FW_L4_V1.17.1/Drivers/STM32L4xx_HAL_Driver/Inc/stm32l4xx_ll_usart.h **** 
 363:/home/barnecle/STM32Cube/Repository/STM32Cube_FW_L4_V1.17.1/Drivers/STM32L4xx_HAL_Driver/Inc/stm32l4xx_ll_usart.h **** /** @defgroup USART_LL_EC_OVERSAMPLING Oversampling
 364:/home/barnecle/STM32Cube/Repository/STM32Cube_FW_L4_V1.17.1/Drivers/STM32L4xx_HAL_Driver/Inc/stm32l4xx_ll_usart.h ****   * @{
 365:/home/barnecle/STM32Cube/Repository/STM32Cube_FW_L4_V1.17.1/Drivers/STM32L4xx_HAL_Driver/Inc/stm32l4xx_ll_usart.h ****   */
 366:/home/barnecle/STM32Cube/Repository/STM32Cube_FW_L4_V1.17.1/Drivers/STM32L4xx_HAL_Driver/Inc/stm32l4xx_ll_usart.h **** #define LL_USART_OVERSAMPLING_16                0x00000000U            /*!< Oversampling by 16 */
 367:/home/barnecle/STM32Cube/Repository/STM32Cube_FW_L4_V1.17.1/Drivers/STM32L4xx_HAL_Driver/Inc/stm32l4xx_ll_usart.h **** #define LL_USART_OVERSAMPLING_8                 USART_CR1_OVER8        /*!< Oversampling by 8 */
 368:/home/barnecle/STM32Cube/Repository/STM32Cube_FW_L4_V1.17.1/Drivers/STM32L4xx_HAL_Driver/Inc/stm32l4xx_ll_usart.h **** /**
 369:/home/barnecle/STM32Cube/Repository/STM32Cube_FW_L4_V1.17.1/Drivers/STM32L4xx_HAL_Driver/Inc/stm32l4xx_ll_usart.h ****   * @}
 370:/home/barnecle/STM32Cube/Repository/STM32Cube_FW_L4_V1.17.1/Drivers/STM32L4xx_HAL_Driver/Inc/stm32l4xx_ll_usart.h ****   */
 371:/home/barnecle/STM32Cube/Repository/STM32Cube_FW_L4_V1.17.1/Drivers/STM32L4xx_HAL_Driver/Inc/stm32l4xx_ll_usart.h **** 
 372:/home/barnecle/STM32Cube/Repository/STM32Cube_FW_L4_V1.17.1/Drivers/STM32L4xx_HAL_Driver/Inc/stm32l4xx_ll_usart.h **** #if defined(USE_FULL_LL_DRIVER)
 373:/home/barnecle/STM32Cube/Repository/STM32Cube_FW_L4_V1.17.1/Drivers/STM32L4xx_HAL_Driver/Inc/stm32l4xx_ll_usart.h **** /** @defgroup USART_LL_EC_CLOCK Clock Signal
 374:/home/barnecle/STM32Cube/Repository/STM32Cube_FW_L4_V1.17.1/Drivers/STM32L4xx_HAL_Driver/Inc/stm32l4xx_ll_usart.h ****   * @{
 375:/home/barnecle/STM32Cube/Repository/STM32Cube_FW_L4_V1.17.1/Drivers/STM32L4xx_HAL_Driver/Inc/stm32l4xx_ll_usart.h ****   */
 376:/home/barnecle/STM32Cube/Repository/STM32Cube_FW_L4_V1.17.1/Drivers/STM32L4xx_HAL_Driver/Inc/stm32l4xx_ll_usart.h **** 
 377:/home/barnecle/STM32Cube/Repository/STM32Cube_FW_L4_V1.17.1/Drivers/STM32L4xx_HAL_Driver/Inc/stm32l4xx_ll_usart.h **** #define LL_USART_CLOCK_DISABLE                  0x00000000U            /*!< Clock signal not provid
 378:/home/barnecle/STM32Cube/Repository/STM32Cube_FW_L4_V1.17.1/Drivers/STM32L4xx_HAL_Driver/Inc/stm32l4xx_ll_usart.h **** #define LL_USART_CLOCK_ENABLE                   USART_CR2_CLKEN        /*!< Clock signal provided *
 379:/home/barnecle/STM32Cube/Repository/STM32Cube_FW_L4_V1.17.1/Drivers/STM32L4xx_HAL_Driver/Inc/stm32l4xx_ll_usart.h **** /**
 380:/home/barnecle/STM32Cube/Repository/STM32Cube_FW_L4_V1.17.1/Drivers/STM32L4xx_HAL_Driver/Inc/stm32l4xx_ll_usart.h ****   * @}
 381:/home/barnecle/STM32Cube/Repository/STM32Cube_FW_L4_V1.17.1/Drivers/STM32L4xx_HAL_Driver/Inc/stm32l4xx_ll_usart.h ****   */
 382:/home/barnecle/STM32Cube/Repository/STM32Cube_FW_L4_V1.17.1/Drivers/STM32L4xx_HAL_Driver/Inc/stm32l4xx_ll_usart.h **** #endif /*USE_FULL_LL_DRIVER*/
 383:/home/barnecle/STM32Cube/Repository/STM32Cube_FW_L4_V1.17.1/Drivers/STM32L4xx_HAL_Driver/Inc/stm32l4xx_ll_usart.h **** 
 384:/home/barnecle/STM32Cube/Repository/STM32Cube_FW_L4_V1.17.1/Drivers/STM32L4xx_HAL_Driver/Inc/stm32l4xx_ll_usart.h **** /** @defgroup USART_LL_EC_LASTCLKPULSE Last Clock Pulse
 385:/home/barnecle/STM32Cube/Repository/STM32Cube_FW_L4_V1.17.1/Drivers/STM32L4xx_HAL_Driver/Inc/stm32l4xx_ll_usart.h ****   * @{
 386:/home/barnecle/STM32Cube/Repository/STM32Cube_FW_L4_V1.17.1/Drivers/STM32L4xx_HAL_Driver/Inc/stm32l4xx_ll_usart.h ****   */
ARM GAS  /tmp/ccVvGxMz.s 			page 38


 387:/home/barnecle/STM32Cube/Repository/STM32Cube_FW_L4_V1.17.1/Drivers/STM32L4xx_HAL_Driver/Inc/stm32l4xx_ll_usart.h **** #define LL_USART_LASTCLKPULSE_NO_OUTPUT         0x00000000U           /*!< The clock pulse of the l
 388:/home/barnecle/STM32Cube/Repository/STM32Cube_FW_L4_V1.17.1/Drivers/STM32L4xx_HAL_Driver/Inc/stm32l4xx_ll_usart.h **** #define LL_USART_LASTCLKPULSE_OUTPUT            USART_CR2_LBCL        /*!< The clock pulse of the l
 389:/home/barnecle/STM32Cube/Repository/STM32Cube_FW_L4_V1.17.1/Drivers/STM32L4xx_HAL_Driver/Inc/stm32l4xx_ll_usart.h **** /**
 390:/home/barnecle/STM32Cube/Repository/STM32Cube_FW_L4_V1.17.1/Drivers/STM32L4xx_HAL_Driver/Inc/stm32l4xx_ll_usart.h ****   * @}
 391:/home/barnecle/STM32Cube/Repository/STM32Cube_FW_L4_V1.17.1/Drivers/STM32L4xx_HAL_Driver/Inc/stm32l4xx_ll_usart.h ****   */
 392:/home/barnecle/STM32Cube/Repository/STM32Cube_FW_L4_V1.17.1/Drivers/STM32L4xx_HAL_Driver/Inc/stm32l4xx_ll_usart.h **** 
 393:/home/barnecle/STM32Cube/Repository/STM32Cube_FW_L4_V1.17.1/Drivers/STM32L4xx_HAL_Driver/Inc/stm32l4xx_ll_usart.h **** /** @defgroup USART_LL_EC_PHASE Clock Phase
 394:/home/barnecle/STM32Cube/Repository/STM32Cube_FW_L4_V1.17.1/Drivers/STM32L4xx_HAL_Driver/Inc/stm32l4xx_ll_usart.h ****   * @{
 395:/home/barnecle/STM32Cube/Repository/STM32Cube_FW_L4_V1.17.1/Drivers/STM32L4xx_HAL_Driver/Inc/stm32l4xx_ll_usart.h ****   */
 396:/home/barnecle/STM32Cube/Repository/STM32Cube_FW_L4_V1.17.1/Drivers/STM32L4xx_HAL_Driver/Inc/stm32l4xx_ll_usart.h **** #define LL_USART_PHASE_1EDGE                    0x00000000U           /*!< The first clock transiti
 397:/home/barnecle/STM32Cube/Repository/STM32Cube_FW_L4_V1.17.1/Drivers/STM32L4xx_HAL_Driver/Inc/stm32l4xx_ll_usart.h **** #define LL_USART_PHASE_2EDGE                    USART_CR2_CPHA        /*!< The second clock transit
 398:/home/barnecle/STM32Cube/Repository/STM32Cube_FW_L4_V1.17.1/Drivers/STM32L4xx_HAL_Driver/Inc/stm32l4xx_ll_usart.h **** /**
 399:/home/barnecle/STM32Cube/Repository/STM32Cube_FW_L4_V1.17.1/Drivers/STM32L4xx_HAL_Driver/Inc/stm32l4xx_ll_usart.h ****   * @}
 400:/home/barnecle/STM32Cube/Repository/STM32Cube_FW_L4_V1.17.1/Drivers/STM32L4xx_HAL_Driver/Inc/stm32l4xx_ll_usart.h ****   */
 401:/home/barnecle/STM32Cube/Repository/STM32Cube_FW_L4_V1.17.1/Drivers/STM32L4xx_HAL_Driver/Inc/stm32l4xx_ll_usart.h **** 
 402:/home/barnecle/STM32Cube/Repository/STM32Cube_FW_L4_V1.17.1/Drivers/STM32L4xx_HAL_Driver/Inc/stm32l4xx_ll_usart.h **** /** @defgroup USART_LL_EC_POLARITY Clock Polarity
 403:/home/barnecle/STM32Cube/Repository/STM32Cube_FW_L4_V1.17.1/Drivers/STM32L4xx_HAL_Driver/Inc/stm32l4xx_ll_usart.h ****   * @{
 404:/home/barnecle/STM32Cube/Repository/STM32Cube_FW_L4_V1.17.1/Drivers/STM32L4xx_HAL_Driver/Inc/stm32l4xx_ll_usart.h ****   */
 405:/home/barnecle/STM32Cube/Repository/STM32Cube_FW_L4_V1.17.1/Drivers/STM32L4xx_HAL_Driver/Inc/stm32l4xx_ll_usart.h **** #define LL_USART_POLARITY_LOW                   0x00000000U           /*!< Steady low value on SCLK
 406:/home/barnecle/STM32Cube/Repository/STM32Cube_FW_L4_V1.17.1/Drivers/STM32L4xx_HAL_Driver/Inc/stm32l4xx_ll_usart.h **** #define LL_USART_POLARITY_HIGH                  USART_CR2_CPOL        /*!< Steady high value on SCL
 407:/home/barnecle/STM32Cube/Repository/STM32Cube_FW_L4_V1.17.1/Drivers/STM32L4xx_HAL_Driver/Inc/stm32l4xx_ll_usart.h **** /**
 408:/home/barnecle/STM32Cube/Repository/STM32Cube_FW_L4_V1.17.1/Drivers/STM32L4xx_HAL_Driver/Inc/stm32l4xx_ll_usart.h ****   * @}
 409:/home/barnecle/STM32Cube/Repository/STM32Cube_FW_L4_V1.17.1/Drivers/STM32L4xx_HAL_Driver/Inc/stm32l4xx_ll_usart.h ****   */
 410:/home/barnecle/STM32Cube/Repository/STM32Cube_FW_L4_V1.17.1/Drivers/STM32L4xx_HAL_Driver/Inc/stm32l4xx_ll_usart.h **** 
 411:/home/barnecle/STM32Cube/Repository/STM32Cube_FW_L4_V1.17.1/Drivers/STM32L4xx_HAL_Driver/Inc/stm32l4xx_ll_usart.h **** #if defined(USART_PRESC_PRESCALER)
 412:/home/barnecle/STM32Cube/Repository/STM32Cube_FW_L4_V1.17.1/Drivers/STM32L4xx_HAL_Driver/Inc/stm32l4xx_ll_usart.h **** /** @defgroup USART_LL_EC_PRESCALER Clock Source Prescaler
 413:/home/barnecle/STM32Cube/Repository/STM32Cube_FW_L4_V1.17.1/Drivers/STM32L4xx_HAL_Driver/Inc/stm32l4xx_ll_usart.h ****   * @{
 414:/home/barnecle/STM32Cube/Repository/STM32Cube_FW_L4_V1.17.1/Drivers/STM32L4xx_HAL_Driver/Inc/stm32l4xx_ll_usart.h ****   */
 415:/home/barnecle/STM32Cube/Repository/STM32Cube_FW_L4_V1.17.1/Drivers/STM32L4xx_HAL_Driver/Inc/stm32l4xx_ll_usart.h **** #define LL_USART_PRESCALER_DIV1                 0x00000000U                                        
 416:/home/barnecle/STM32Cube/Repository/STM32Cube_FW_L4_V1.17.1/Drivers/STM32L4xx_HAL_Driver/Inc/stm32l4xx_ll_usart.h **** #define LL_USART_PRESCALER_DIV2                 (USART_PRESC_PRESCALER_0)                          
 417:/home/barnecle/STM32Cube/Repository/STM32Cube_FW_L4_V1.17.1/Drivers/STM32L4xx_HAL_Driver/Inc/stm32l4xx_ll_usart.h **** #define LL_USART_PRESCALER_DIV4                 (USART_PRESC_PRESCALER_1)                          
 418:/home/barnecle/STM32Cube/Repository/STM32Cube_FW_L4_V1.17.1/Drivers/STM32L4xx_HAL_Driver/Inc/stm32l4xx_ll_usart.h **** #define LL_USART_PRESCALER_DIV6                 (USART_PRESC_PRESCALER_1 | USART_PRESC_PRESCALER_0)
 419:/home/barnecle/STM32Cube/Repository/STM32Cube_FW_L4_V1.17.1/Drivers/STM32L4xx_HAL_Driver/Inc/stm32l4xx_ll_usart.h **** #define LL_USART_PRESCALER_DIV8                 (USART_PRESC_PRESCALER_2)                          
 420:/home/barnecle/STM32Cube/Repository/STM32Cube_FW_L4_V1.17.1/Drivers/STM32L4xx_HAL_Driver/Inc/stm32l4xx_ll_usart.h **** #define LL_USART_PRESCALER_DIV10                (USART_PRESC_PRESCALER_2 | USART_PRESC_PRESCALER_0)
 421:/home/barnecle/STM32Cube/Repository/STM32Cube_FW_L4_V1.17.1/Drivers/STM32L4xx_HAL_Driver/Inc/stm32l4xx_ll_usart.h **** #define LL_USART_PRESCALER_DIV12                (USART_PRESC_PRESCALER_2 | USART_PRESC_PRESCALER_1)
 422:/home/barnecle/STM32Cube/Repository/STM32Cube_FW_L4_V1.17.1/Drivers/STM32L4xx_HAL_Driver/Inc/stm32l4xx_ll_usart.h **** #define LL_USART_PRESCALER_DIV16                (USART_PRESC_PRESCALER_2 | USART_PRESC_PRESCALER_1 
 423:/home/barnecle/STM32Cube/Repository/STM32Cube_FW_L4_V1.17.1/Drivers/STM32L4xx_HAL_Driver/Inc/stm32l4xx_ll_usart.h **** #define LL_USART_PRESCALER_DIV32                (USART_PRESC_PRESCALER_3)                          
 424:/home/barnecle/STM32Cube/Repository/STM32Cube_FW_L4_V1.17.1/Drivers/STM32L4xx_HAL_Driver/Inc/stm32l4xx_ll_usart.h **** #define LL_USART_PRESCALER_DIV64                (USART_PRESC_PRESCALER_3 | USART_PRESC_PRESCALER_0)
 425:/home/barnecle/STM32Cube/Repository/STM32Cube_FW_L4_V1.17.1/Drivers/STM32L4xx_HAL_Driver/Inc/stm32l4xx_ll_usart.h **** #define LL_USART_PRESCALER_DIV128               (USART_PRESC_PRESCALER_3 | USART_PRESC_PRESCALER_1)
 426:/home/barnecle/STM32Cube/Repository/STM32Cube_FW_L4_V1.17.1/Drivers/STM32L4xx_HAL_Driver/Inc/stm32l4xx_ll_usart.h **** #define LL_USART_PRESCALER_DIV256               (USART_PRESC_PRESCALER_3 | USART_PRESC_PRESCALER_1 
 427:/home/barnecle/STM32Cube/Repository/STM32Cube_FW_L4_V1.17.1/Drivers/STM32L4xx_HAL_Driver/Inc/stm32l4xx_ll_usart.h **** /**
 428:/home/barnecle/STM32Cube/Repository/STM32Cube_FW_L4_V1.17.1/Drivers/STM32L4xx_HAL_Driver/Inc/stm32l4xx_ll_usart.h ****   * @}
 429:/home/barnecle/STM32Cube/Repository/STM32Cube_FW_L4_V1.17.1/Drivers/STM32L4xx_HAL_Driver/Inc/stm32l4xx_ll_usart.h ****   */
 430:/home/barnecle/STM32Cube/Repository/STM32Cube_FW_L4_V1.17.1/Drivers/STM32L4xx_HAL_Driver/Inc/stm32l4xx_ll_usart.h **** 
 431:/home/barnecle/STM32Cube/Repository/STM32Cube_FW_L4_V1.17.1/Drivers/STM32L4xx_HAL_Driver/Inc/stm32l4xx_ll_usart.h **** #endif /* USART_PRESC_PRESCALER */
 432:/home/barnecle/STM32Cube/Repository/STM32Cube_FW_L4_V1.17.1/Drivers/STM32L4xx_HAL_Driver/Inc/stm32l4xx_ll_usart.h **** /** @defgroup USART_LL_EC_STOPBITS Stop Bits
 433:/home/barnecle/STM32Cube/Repository/STM32Cube_FW_L4_V1.17.1/Drivers/STM32L4xx_HAL_Driver/Inc/stm32l4xx_ll_usart.h ****   * @{
 434:/home/barnecle/STM32Cube/Repository/STM32Cube_FW_L4_V1.17.1/Drivers/STM32L4xx_HAL_Driver/Inc/stm32l4xx_ll_usart.h ****   */
 435:/home/barnecle/STM32Cube/Repository/STM32Cube_FW_L4_V1.17.1/Drivers/STM32L4xx_HAL_Driver/Inc/stm32l4xx_ll_usart.h **** #define LL_USART_STOPBITS_0_5                   USART_CR2_STOP_0                           /*!< 0.5
 436:/home/barnecle/STM32Cube/Repository/STM32Cube_FW_L4_V1.17.1/Drivers/STM32L4xx_HAL_Driver/Inc/stm32l4xx_ll_usart.h **** #define LL_USART_STOPBITS_1                     0x00000000U                                /*!< 1 s
 437:/home/barnecle/STM32Cube/Repository/STM32Cube_FW_L4_V1.17.1/Drivers/STM32L4xx_HAL_Driver/Inc/stm32l4xx_ll_usart.h **** #define LL_USART_STOPBITS_1_5                   (USART_CR2_STOP_0 | USART_CR2_STOP_1)      /*!< 1.5
 438:/home/barnecle/STM32Cube/Repository/STM32Cube_FW_L4_V1.17.1/Drivers/STM32L4xx_HAL_Driver/Inc/stm32l4xx_ll_usart.h **** #define LL_USART_STOPBITS_2                     USART_CR2_STOP_1                           /*!< 2 s
 439:/home/barnecle/STM32Cube/Repository/STM32Cube_FW_L4_V1.17.1/Drivers/STM32L4xx_HAL_Driver/Inc/stm32l4xx_ll_usart.h **** /**
 440:/home/barnecle/STM32Cube/Repository/STM32Cube_FW_L4_V1.17.1/Drivers/STM32L4xx_HAL_Driver/Inc/stm32l4xx_ll_usart.h ****   * @}
 441:/home/barnecle/STM32Cube/Repository/STM32Cube_FW_L4_V1.17.1/Drivers/STM32L4xx_HAL_Driver/Inc/stm32l4xx_ll_usart.h ****   */
 442:/home/barnecle/STM32Cube/Repository/STM32Cube_FW_L4_V1.17.1/Drivers/STM32L4xx_HAL_Driver/Inc/stm32l4xx_ll_usart.h **** 
 443:/home/barnecle/STM32Cube/Repository/STM32Cube_FW_L4_V1.17.1/Drivers/STM32L4xx_HAL_Driver/Inc/stm32l4xx_ll_usart.h **** /** @defgroup USART_LL_EC_TXRX TX RX Pins Swap
ARM GAS  /tmp/ccVvGxMz.s 			page 39


 444:/home/barnecle/STM32Cube/Repository/STM32Cube_FW_L4_V1.17.1/Drivers/STM32L4xx_HAL_Driver/Inc/stm32l4xx_ll_usart.h ****   * @{
 445:/home/barnecle/STM32Cube/Repository/STM32Cube_FW_L4_V1.17.1/Drivers/STM32L4xx_HAL_Driver/Inc/stm32l4xx_ll_usart.h ****   */
 446:/home/barnecle/STM32Cube/Repository/STM32Cube_FW_L4_V1.17.1/Drivers/STM32L4xx_HAL_Driver/Inc/stm32l4xx_ll_usart.h **** #define LL_USART_TXRX_STANDARD                  0x00000000U           /*!< TX/RX pins are used as d
 447:/home/barnecle/STM32Cube/Repository/STM32Cube_FW_L4_V1.17.1/Drivers/STM32L4xx_HAL_Driver/Inc/stm32l4xx_ll_usart.h **** #define LL_USART_TXRX_SWAPPED                   (USART_CR2_SWAP)      /*!< TX and RX pins functions
 448:/home/barnecle/STM32Cube/Repository/STM32Cube_FW_L4_V1.17.1/Drivers/STM32L4xx_HAL_Driver/Inc/stm32l4xx_ll_usart.h **** /**
 449:/home/barnecle/STM32Cube/Repository/STM32Cube_FW_L4_V1.17.1/Drivers/STM32L4xx_HAL_Driver/Inc/stm32l4xx_ll_usart.h ****   * @}
 450:/home/barnecle/STM32Cube/Repository/STM32Cube_FW_L4_V1.17.1/Drivers/STM32L4xx_HAL_Driver/Inc/stm32l4xx_ll_usart.h ****   */
 451:/home/barnecle/STM32Cube/Repository/STM32Cube_FW_L4_V1.17.1/Drivers/STM32L4xx_HAL_Driver/Inc/stm32l4xx_ll_usart.h **** 
 452:/home/barnecle/STM32Cube/Repository/STM32Cube_FW_L4_V1.17.1/Drivers/STM32L4xx_HAL_Driver/Inc/stm32l4xx_ll_usart.h **** /** @defgroup USART_LL_EC_RXPIN_LEVEL RX Pin Active Level Inversion
 453:/home/barnecle/STM32Cube/Repository/STM32Cube_FW_L4_V1.17.1/Drivers/STM32L4xx_HAL_Driver/Inc/stm32l4xx_ll_usart.h ****   * @{
 454:/home/barnecle/STM32Cube/Repository/STM32Cube_FW_L4_V1.17.1/Drivers/STM32L4xx_HAL_Driver/Inc/stm32l4xx_ll_usart.h ****   */
 455:/home/barnecle/STM32Cube/Repository/STM32Cube_FW_L4_V1.17.1/Drivers/STM32L4xx_HAL_Driver/Inc/stm32l4xx_ll_usart.h **** #define LL_USART_RXPIN_LEVEL_STANDARD           0x00000000U           /*!< RX pin signal works usin
 456:/home/barnecle/STM32Cube/Repository/STM32Cube_FW_L4_V1.17.1/Drivers/STM32L4xx_HAL_Driver/Inc/stm32l4xx_ll_usart.h **** #define LL_USART_RXPIN_LEVEL_INVERTED           (USART_CR2_RXINV)     /*!< RX pin signal values are
 457:/home/barnecle/STM32Cube/Repository/STM32Cube_FW_L4_V1.17.1/Drivers/STM32L4xx_HAL_Driver/Inc/stm32l4xx_ll_usart.h **** /**
 458:/home/barnecle/STM32Cube/Repository/STM32Cube_FW_L4_V1.17.1/Drivers/STM32L4xx_HAL_Driver/Inc/stm32l4xx_ll_usart.h ****   * @}
 459:/home/barnecle/STM32Cube/Repository/STM32Cube_FW_L4_V1.17.1/Drivers/STM32L4xx_HAL_Driver/Inc/stm32l4xx_ll_usart.h ****   */
 460:/home/barnecle/STM32Cube/Repository/STM32Cube_FW_L4_V1.17.1/Drivers/STM32L4xx_HAL_Driver/Inc/stm32l4xx_ll_usart.h **** 
 461:/home/barnecle/STM32Cube/Repository/STM32Cube_FW_L4_V1.17.1/Drivers/STM32L4xx_HAL_Driver/Inc/stm32l4xx_ll_usart.h **** /** @defgroup USART_LL_EC_TXPIN_LEVEL TX Pin Active Level Inversion
 462:/home/barnecle/STM32Cube/Repository/STM32Cube_FW_L4_V1.17.1/Drivers/STM32L4xx_HAL_Driver/Inc/stm32l4xx_ll_usart.h ****   * @{
 463:/home/barnecle/STM32Cube/Repository/STM32Cube_FW_L4_V1.17.1/Drivers/STM32L4xx_HAL_Driver/Inc/stm32l4xx_ll_usart.h ****   */
 464:/home/barnecle/STM32Cube/Repository/STM32Cube_FW_L4_V1.17.1/Drivers/STM32L4xx_HAL_Driver/Inc/stm32l4xx_ll_usart.h **** #define LL_USART_TXPIN_LEVEL_STANDARD           0x00000000U           /*!< TX pin signal works usin
 465:/home/barnecle/STM32Cube/Repository/STM32Cube_FW_L4_V1.17.1/Drivers/STM32L4xx_HAL_Driver/Inc/stm32l4xx_ll_usart.h **** #define LL_USART_TXPIN_LEVEL_INVERTED           (USART_CR2_TXINV)     /*!< TX pin signal values are
 466:/home/barnecle/STM32Cube/Repository/STM32Cube_FW_L4_V1.17.1/Drivers/STM32L4xx_HAL_Driver/Inc/stm32l4xx_ll_usart.h **** /**
 467:/home/barnecle/STM32Cube/Repository/STM32Cube_FW_L4_V1.17.1/Drivers/STM32L4xx_HAL_Driver/Inc/stm32l4xx_ll_usart.h ****   * @}
 468:/home/barnecle/STM32Cube/Repository/STM32Cube_FW_L4_V1.17.1/Drivers/STM32L4xx_HAL_Driver/Inc/stm32l4xx_ll_usart.h ****   */
 469:/home/barnecle/STM32Cube/Repository/STM32Cube_FW_L4_V1.17.1/Drivers/STM32L4xx_HAL_Driver/Inc/stm32l4xx_ll_usart.h **** 
 470:/home/barnecle/STM32Cube/Repository/STM32Cube_FW_L4_V1.17.1/Drivers/STM32L4xx_HAL_Driver/Inc/stm32l4xx_ll_usart.h **** /** @defgroup USART_LL_EC_BINARY_LOGIC Binary Data Inversion
 471:/home/barnecle/STM32Cube/Repository/STM32Cube_FW_L4_V1.17.1/Drivers/STM32L4xx_HAL_Driver/Inc/stm32l4xx_ll_usart.h ****   * @{
 472:/home/barnecle/STM32Cube/Repository/STM32Cube_FW_L4_V1.17.1/Drivers/STM32L4xx_HAL_Driver/Inc/stm32l4xx_ll_usart.h ****   */
 473:/home/barnecle/STM32Cube/Repository/STM32Cube_FW_L4_V1.17.1/Drivers/STM32L4xx_HAL_Driver/Inc/stm32l4xx_ll_usart.h **** #define LL_USART_BINARY_LOGIC_POSITIVE          0x00000000U           /*!< Logical data from the da
 474:/home/barnecle/STM32Cube/Repository/STM32Cube_FW_L4_V1.17.1/Drivers/STM32L4xx_HAL_Driver/Inc/stm32l4xx_ll_usart.h **** #define LL_USART_BINARY_LOGIC_NEGATIVE          USART_CR2_DATAINV     /*!< Logical data from the da
 475:/home/barnecle/STM32Cube/Repository/STM32Cube_FW_L4_V1.17.1/Drivers/STM32L4xx_HAL_Driver/Inc/stm32l4xx_ll_usart.h **** /**
 476:/home/barnecle/STM32Cube/Repository/STM32Cube_FW_L4_V1.17.1/Drivers/STM32L4xx_HAL_Driver/Inc/stm32l4xx_ll_usart.h ****   * @}
 477:/home/barnecle/STM32Cube/Repository/STM32Cube_FW_L4_V1.17.1/Drivers/STM32L4xx_HAL_Driver/Inc/stm32l4xx_ll_usart.h ****   */
 478:/home/barnecle/STM32Cube/Repository/STM32Cube_FW_L4_V1.17.1/Drivers/STM32L4xx_HAL_Driver/Inc/stm32l4xx_ll_usart.h **** 
 479:/home/barnecle/STM32Cube/Repository/STM32Cube_FW_L4_V1.17.1/Drivers/STM32L4xx_HAL_Driver/Inc/stm32l4xx_ll_usart.h **** /** @defgroup USART_LL_EC_BITORDER Bit Order
 480:/home/barnecle/STM32Cube/Repository/STM32Cube_FW_L4_V1.17.1/Drivers/STM32L4xx_HAL_Driver/Inc/stm32l4xx_ll_usart.h ****   * @{
 481:/home/barnecle/STM32Cube/Repository/STM32Cube_FW_L4_V1.17.1/Drivers/STM32L4xx_HAL_Driver/Inc/stm32l4xx_ll_usart.h ****   */
 482:/home/barnecle/STM32Cube/Repository/STM32Cube_FW_L4_V1.17.1/Drivers/STM32L4xx_HAL_Driver/Inc/stm32l4xx_ll_usart.h **** #define LL_USART_BITORDER_LSBFIRST              0x00000000U           /*!< data is transmitted/rece
 483:/home/barnecle/STM32Cube/Repository/STM32Cube_FW_L4_V1.17.1/Drivers/STM32L4xx_HAL_Driver/Inc/stm32l4xx_ll_usart.h **** #define LL_USART_BITORDER_MSBFIRST              USART_CR2_MSBFIRST    /*!< data is transmitted/rece
 484:/home/barnecle/STM32Cube/Repository/STM32Cube_FW_L4_V1.17.1/Drivers/STM32L4xx_HAL_Driver/Inc/stm32l4xx_ll_usart.h **** /**
 485:/home/barnecle/STM32Cube/Repository/STM32Cube_FW_L4_V1.17.1/Drivers/STM32L4xx_HAL_Driver/Inc/stm32l4xx_ll_usart.h ****   * @}
 486:/home/barnecle/STM32Cube/Repository/STM32Cube_FW_L4_V1.17.1/Drivers/STM32L4xx_HAL_Driver/Inc/stm32l4xx_ll_usart.h ****   */
 487:/home/barnecle/STM32Cube/Repository/STM32Cube_FW_L4_V1.17.1/Drivers/STM32L4xx_HAL_Driver/Inc/stm32l4xx_ll_usart.h **** 
 488:/home/barnecle/STM32Cube/Repository/STM32Cube_FW_L4_V1.17.1/Drivers/STM32L4xx_HAL_Driver/Inc/stm32l4xx_ll_usart.h **** /** @defgroup USART_LL_EC_AUTOBAUD_DETECT_ON Autobaud Detection
 489:/home/barnecle/STM32Cube/Repository/STM32Cube_FW_L4_V1.17.1/Drivers/STM32L4xx_HAL_Driver/Inc/stm32l4xx_ll_usart.h ****   * @{
 490:/home/barnecle/STM32Cube/Repository/STM32Cube_FW_L4_V1.17.1/Drivers/STM32L4xx_HAL_Driver/Inc/stm32l4xx_ll_usart.h ****   */
 491:/home/barnecle/STM32Cube/Repository/STM32Cube_FW_L4_V1.17.1/Drivers/STM32L4xx_HAL_Driver/Inc/stm32l4xx_ll_usart.h **** #define LL_USART_AUTOBAUD_DETECT_ON_STARTBIT    0x00000000U                                 /*!< Me
 492:/home/barnecle/STM32Cube/Repository/STM32Cube_FW_L4_V1.17.1/Drivers/STM32L4xx_HAL_Driver/Inc/stm32l4xx_ll_usart.h **** #define LL_USART_AUTOBAUD_DETECT_ON_FALLINGEDGE USART_CR2_ABRMODE_0                         /*!< Fa
 493:/home/barnecle/STM32Cube/Repository/STM32Cube_FW_L4_V1.17.1/Drivers/STM32L4xx_HAL_Driver/Inc/stm32l4xx_ll_usart.h **** #define LL_USART_AUTOBAUD_DETECT_ON_7F_FRAME    USART_CR2_ABRMODE_1                         /*!< 0x
 494:/home/barnecle/STM32Cube/Repository/STM32Cube_FW_L4_V1.17.1/Drivers/STM32L4xx_HAL_Driver/Inc/stm32l4xx_ll_usart.h **** #define LL_USART_AUTOBAUD_DETECT_ON_55_FRAME    (USART_CR2_ABRMODE_1 | USART_CR2_ABRMODE_0) /*!< 0x
 495:/home/barnecle/STM32Cube/Repository/STM32Cube_FW_L4_V1.17.1/Drivers/STM32L4xx_HAL_Driver/Inc/stm32l4xx_ll_usart.h **** /**
 496:/home/barnecle/STM32Cube/Repository/STM32Cube_FW_L4_V1.17.1/Drivers/STM32L4xx_HAL_Driver/Inc/stm32l4xx_ll_usart.h ****   * @}
 497:/home/barnecle/STM32Cube/Repository/STM32Cube_FW_L4_V1.17.1/Drivers/STM32L4xx_HAL_Driver/Inc/stm32l4xx_ll_usart.h ****   */
 498:/home/barnecle/STM32Cube/Repository/STM32Cube_FW_L4_V1.17.1/Drivers/STM32L4xx_HAL_Driver/Inc/stm32l4xx_ll_usart.h **** 
 499:/home/barnecle/STM32Cube/Repository/STM32Cube_FW_L4_V1.17.1/Drivers/STM32L4xx_HAL_Driver/Inc/stm32l4xx_ll_usart.h **** /** @defgroup USART_LL_EC_ADDRESS_DETECT Address Length Detection
 500:/home/barnecle/STM32Cube/Repository/STM32Cube_FW_L4_V1.17.1/Drivers/STM32L4xx_HAL_Driver/Inc/stm32l4xx_ll_usart.h ****   * @{
ARM GAS  /tmp/ccVvGxMz.s 			page 40


 501:/home/barnecle/STM32Cube/Repository/STM32Cube_FW_L4_V1.17.1/Drivers/STM32L4xx_HAL_Driver/Inc/stm32l4xx_ll_usart.h ****   */
 502:/home/barnecle/STM32Cube/Repository/STM32Cube_FW_L4_V1.17.1/Drivers/STM32L4xx_HAL_Driver/Inc/stm32l4xx_ll_usart.h **** #define LL_USART_ADDRESS_DETECT_4B              0x00000000U           /*!< 4-bit address detection 
 503:/home/barnecle/STM32Cube/Repository/STM32Cube_FW_L4_V1.17.1/Drivers/STM32L4xx_HAL_Driver/Inc/stm32l4xx_ll_usart.h **** #define LL_USART_ADDRESS_DETECT_7B              USART_CR2_ADDM7       /*!< 7-bit address detection 
 504:/home/barnecle/STM32Cube/Repository/STM32Cube_FW_L4_V1.17.1/Drivers/STM32L4xx_HAL_Driver/Inc/stm32l4xx_ll_usart.h **** /**
 505:/home/barnecle/STM32Cube/Repository/STM32Cube_FW_L4_V1.17.1/Drivers/STM32L4xx_HAL_Driver/Inc/stm32l4xx_ll_usart.h ****   * @}
 506:/home/barnecle/STM32Cube/Repository/STM32Cube_FW_L4_V1.17.1/Drivers/STM32L4xx_HAL_Driver/Inc/stm32l4xx_ll_usart.h ****   */
 507:/home/barnecle/STM32Cube/Repository/STM32Cube_FW_L4_V1.17.1/Drivers/STM32L4xx_HAL_Driver/Inc/stm32l4xx_ll_usart.h **** 
 508:/home/barnecle/STM32Cube/Repository/STM32Cube_FW_L4_V1.17.1/Drivers/STM32L4xx_HAL_Driver/Inc/stm32l4xx_ll_usart.h **** /** @defgroup USART_LL_EC_HWCONTROL Hardware Control
 509:/home/barnecle/STM32Cube/Repository/STM32Cube_FW_L4_V1.17.1/Drivers/STM32L4xx_HAL_Driver/Inc/stm32l4xx_ll_usart.h ****   * @{
 510:/home/barnecle/STM32Cube/Repository/STM32Cube_FW_L4_V1.17.1/Drivers/STM32L4xx_HAL_Driver/Inc/stm32l4xx_ll_usart.h ****   */
 511:/home/barnecle/STM32Cube/Repository/STM32Cube_FW_L4_V1.17.1/Drivers/STM32L4xx_HAL_Driver/Inc/stm32l4xx_ll_usart.h **** #define LL_USART_HWCONTROL_NONE                 0x00000000U                          /*!< CTS and R
 512:/home/barnecle/STM32Cube/Repository/STM32Cube_FW_L4_V1.17.1/Drivers/STM32L4xx_HAL_Driver/Inc/stm32l4xx_ll_usart.h **** #define LL_USART_HWCONTROL_RTS                  USART_CR3_RTSE                       /*!< RTS outpu
 513:/home/barnecle/STM32Cube/Repository/STM32Cube_FW_L4_V1.17.1/Drivers/STM32L4xx_HAL_Driver/Inc/stm32l4xx_ll_usart.h **** #define LL_USART_HWCONTROL_CTS                  USART_CR3_CTSE                       /*!< CTS mode 
 514:/home/barnecle/STM32Cube/Repository/STM32Cube_FW_L4_V1.17.1/Drivers/STM32L4xx_HAL_Driver/Inc/stm32l4xx_ll_usart.h **** #define LL_USART_HWCONTROL_RTS_CTS              (USART_CR3_RTSE | USART_CR3_CTSE)    /*!< CTS and R
 515:/home/barnecle/STM32Cube/Repository/STM32Cube_FW_L4_V1.17.1/Drivers/STM32L4xx_HAL_Driver/Inc/stm32l4xx_ll_usart.h **** /**
 516:/home/barnecle/STM32Cube/Repository/STM32Cube_FW_L4_V1.17.1/Drivers/STM32L4xx_HAL_Driver/Inc/stm32l4xx_ll_usart.h ****   * @}
 517:/home/barnecle/STM32Cube/Repository/STM32Cube_FW_L4_V1.17.1/Drivers/STM32L4xx_HAL_Driver/Inc/stm32l4xx_ll_usart.h ****   */
 518:/home/barnecle/STM32Cube/Repository/STM32Cube_FW_L4_V1.17.1/Drivers/STM32L4xx_HAL_Driver/Inc/stm32l4xx_ll_usart.h **** 
 519:/home/barnecle/STM32Cube/Repository/STM32Cube_FW_L4_V1.17.1/Drivers/STM32L4xx_HAL_Driver/Inc/stm32l4xx_ll_usart.h **** /** @defgroup USART_LL_EC_WAKEUP_ON Wakeup Activation
 520:/home/barnecle/STM32Cube/Repository/STM32Cube_FW_L4_V1.17.1/Drivers/STM32L4xx_HAL_Driver/Inc/stm32l4xx_ll_usart.h ****   * @{
 521:/home/barnecle/STM32Cube/Repository/STM32Cube_FW_L4_V1.17.1/Drivers/STM32L4xx_HAL_Driver/Inc/stm32l4xx_ll_usart.h ****   */
 522:/home/barnecle/STM32Cube/Repository/STM32Cube_FW_L4_V1.17.1/Drivers/STM32L4xx_HAL_Driver/Inc/stm32l4xx_ll_usart.h **** #define LL_USART_WAKEUP_ON_ADDRESS              0x00000000U                             /*!< Wake u
 523:/home/barnecle/STM32Cube/Repository/STM32Cube_FW_L4_V1.17.1/Drivers/STM32L4xx_HAL_Driver/Inc/stm32l4xx_ll_usart.h **** #define LL_USART_WAKEUP_ON_STARTBIT             USART_CR3_WUS_1                         /*!< Wake u
 524:/home/barnecle/STM32Cube/Repository/STM32Cube_FW_L4_V1.17.1/Drivers/STM32L4xx_HAL_Driver/Inc/stm32l4xx_ll_usart.h **** #define LL_USART_WAKEUP_ON_RXNE                 (USART_CR3_WUS_0 | USART_CR3_WUS_1)     /*!< Wake u
 525:/home/barnecle/STM32Cube/Repository/STM32Cube_FW_L4_V1.17.1/Drivers/STM32L4xx_HAL_Driver/Inc/stm32l4xx_ll_usart.h **** /**
 526:/home/barnecle/STM32Cube/Repository/STM32Cube_FW_L4_V1.17.1/Drivers/STM32L4xx_HAL_Driver/Inc/stm32l4xx_ll_usart.h ****   * @}
 527:/home/barnecle/STM32Cube/Repository/STM32Cube_FW_L4_V1.17.1/Drivers/STM32L4xx_HAL_Driver/Inc/stm32l4xx_ll_usart.h ****   */
 528:/home/barnecle/STM32Cube/Repository/STM32Cube_FW_L4_V1.17.1/Drivers/STM32L4xx_HAL_Driver/Inc/stm32l4xx_ll_usart.h **** 
 529:/home/barnecle/STM32Cube/Repository/STM32Cube_FW_L4_V1.17.1/Drivers/STM32L4xx_HAL_Driver/Inc/stm32l4xx_ll_usart.h **** /** @defgroup USART_LL_EC_IRDA_POWER IrDA Power
 530:/home/barnecle/STM32Cube/Repository/STM32Cube_FW_L4_V1.17.1/Drivers/STM32L4xx_HAL_Driver/Inc/stm32l4xx_ll_usart.h ****   * @{
 531:/home/barnecle/STM32Cube/Repository/STM32Cube_FW_L4_V1.17.1/Drivers/STM32L4xx_HAL_Driver/Inc/stm32l4xx_ll_usart.h ****   */
 532:/home/barnecle/STM32Cube/Repository/STM32Cube_FW_L4_V1.17.1/Drivers/STM32L4xx_HAL_Driver/Inc/stm32l4xx_ll_usart.h **** #define LL_USART_IRDA_POWER_NORMAL              0x00000000U           /*!< IrDA normal power mode *
 533:/home/barnecle/STM32Cube/Repository/STM32Cube_FW_L4_V1.17.1/Drivers/STM32L4xx_HAL_Driver/Inc/stm32l4xx_ll_usart.h **** #define LL_USART_IRDA_POWER_LOW                 USART_CR3_IRLP        /*!< IrDA low power mode */
 534:/home/barnecle/STM32Cube/Repository/STM32Cube_FW_L4_V1.17.1/Drivers/STM32L4xx_HAL_Driver/Inc/stm32l4xx_ll_usart.h **** /**
 535:/home/barnecle/STM32Cube/Repository/STM32Cube_FW_L4_V1.17.1/Drivers/STM32L4xx_HAL_Driver/Inc/stm32l4xx_ll_usart.h ****   * @}
 536:/home/barnecle/STM32Cube/Repository/STM32Cube_FW_L4_V1.17.1/Drivers/STM32L4xx_HAL_Driver/Inc/stm32l4xx_ll_usart.h ****   */
 537:/home/barnecle/STM32Cube/Repository/STM32Cube_FW_L4_V1.17.1/Drivers/STM32L4xx_HAL_Driver/Inc/stm32l4xx_ll_usart.h **** 
 538:/home/barnecle/STM32Cube/Repository/STM32Cube_FW_L4_V1.17.1/Drivers/STM32L4xx_HAL_Driver/Inc/stm32l4xx_ll_usart.h **** /** @defgroup USART_LL_EC_LINBREAK_DETECT LIN Break Detection Length
 539:/home/barnecle/STM32Cube/Repository/STM32Cube_FW_L4_V1.17.1/Drivers/STM32L4xx_HAL_Driver/Inc/stm32l4xx_ll_usart.h ****   * @{
 540:/home/barnecle/STM32Cube/Repository/STM32Cube_FW_L4_V1.17.1/Drivers/STM32L4xx_HAL_Driver/Inc/stm32l4xx_ll_usart.h ****   */
 541:/home/barnecle/STM32Cube/Repository/STM32Cube_FW_L4_V1.17.1/Drivers/STM32L4xx_HAL_Driver/Inc/stm32l4xx_ll_usart.h **** #define LL_USART_LINBREAK_DETECT_10B            0x00000000U           /*!< 10-bit break detection m
 542:/home/barnecle/STM32Cube/Repository/STM32Cube_FW_L4_V1.17.1/Drivers/STM32L4xx_HAL_Driver/Inc/stm32l4xx_ll_usart.h **** #define LL_USART_LINBREAK_DETECT_11B            USART_CR2_LBDL        /*!< 11-bit break detection m
 543:/home/barnecle/STM32Cube/Repository/STM32Cube_FW_L4_V1.17.1/Drivers/STM32L4xx_HAL_Driver/Inc/stm32l4xx_ll_usart.h **** /**
 544:/home/barnecle/STM32Cube/Repository/STM32Cube_FW_L4_V1.17.1/Drivers/STM32L4xx_HAL_Driver/Inc/stm32l4xx_ll_usart.h ****   * @}
 545:/home/barnecle/STM32Cube/Repository/STM32Cube_FW_L4_V1.17.1/Drivers/STM32L4xx_HAL_Driver/Inc/stm32l4xx_ll_usart.h ****   */
 546:/home/barnecle/STM32Cube/Repository/STM32Cube_FW_L4_V1.17.1/Drivers/STM32L4xx_HAL_Driver/Inc/stm32l4xx_ll_usart.h **** 
 547:/home/barnecle/STM32Cube/Repository/STM32Cube_FW_L4_V1.17.1/Drivers/STM32L4xx_HAL_Driver/Inc/stm32l4xx_ll_usart.h **** /** @defgroup USART_LL_EC_DE_POLARITY Driver Enable Polarity
 548:/home/barnecle/STM32Cube/Repository/STM32Cube_FW_L4_V1.17.1/Drivers/STM32L4xx_HAL_Driver/Inc/stm32l4xx_ll_usart.h ****   * @{
 549:/home/barnecle/STM32Cube/Repository/STM32Cube_FW_L4_V1.17.1/Drivers/STM32L4xx_HAL_Driver/Inc/stm32l4xx_ll_usart.h ****   */
 550:/home/barnecle/STM32Cube/Repository/STM32Cube_FW_L4_V1.17.1/Drivers/STM32L4xx_HAL_Driver/Inc/stm32l4xx_ll_usart.h **** #define LL_USART_DE_POLARITY_HIGH               0x00000000U           /*!< DE signal is active high
 551:/home/barnecle/STM32Cube/Repository/STM32Cube_FW_L4_V1.17.1/Drivers/STM32L4xx_HAL_Driver/Inc/stm32l4xx_ll_usart.h **** #define LL_USART_DE_POLARITY_LOW                USART_CR3_DEP         /*!< DE signal is active low 
 552:/home/barnecle/STM32Cube/Repository/STM32Cube_FW_L4_V1.17.1/Drivers/STM32L4xx_HAL_Driver/Inc/stm32l4xx_ll_usart.h **** /**
 553:/home/barnecle/STM32Cube/Repository/STM32Cube_FW_L4_V1.17.1/Drivers/STM32L4xx_HAL_Driver/Inc/stm32l4xx_ll_usart.h ****   * @}
 554:/home/barnecle/STM32Cube/Repository/STM32Cube_FW_L4_V1.17.1/Drivers/STM32L4xx_HAL_Driver/Inc/stm32l4xx_ll_usart.h ****   */
 555:/home/barnecle/STM32Cube/Repository/STM32Cube_FW_L4_V1.17.1/Drivers/STM32L4xx_HAL_Driver/Inc/stm32l4xx_ll_usart.h **** 
 556:/home/barnecle/STM32Cube/Repository/STM32Cube_FW_L4_V1.17.1/Drivers/STM32L4xx_HAL_Driver/Inc/stm32l4xx_ll_usart.h **** /** @defgroup USART_LL_EC_DMA_REG_DATA DMA Register Data
 557:/home/barnecle/STM32Cube/Repository/STM32Cube_FW_L4_V1.17.1/Drivers/STM32L4xx_HAL_Driver/Inc/stm32l4xx_ll_usart.h ****   * @{
ARM GAS  /tmp/ccVvGxMz.s 			page 41


 558:/home/barnecle/STM32Cube/Repository/STM32Cube_FW_L4_V1.17.1/Drivers/STM32L4xx_HAL_Driver/Inc/stm32l4xx_ll_usart.h ****   */
 559:/home/barnecle/STM32Cube/Repository/STM32Cube_FW_L4_V1.17.1/Drivers/STM32L4xx_HAL_Driver/Inc/stm32l4xx_ll_usart.h **** #define LL_USART_DMA_REG_DATA_TRANSMIT          0x00000000U          /*!< Get address of data regis
 560:/home/barnecle/STM32Cube/Repository/STM32Cube_FW_L4_V1.17.1/Drivers/STM32L4xx_HAL_Driver/Inc/stm32l4xx_ll_usart.h **** #define LL_USART_DMA_REG_DATA_RECEIVE           0x00000001U          /*!< Get address of data regis
 561:/home/barnecle/STM32Cube/Repository/STM32Cube_FW_L4_V1.17.1/Drivers/STM32L4xx_HAL_Driver/Inc/stm32l4xx_ll_usart.h **** /**
 562:/home/barnecle/STM32Cube/Repository/STM32Cube_FW_L4_V1.17.1/Drivers/STM32L4xx_HAL_Driver/Inc/stm32l4xx_ll_usart.h ****   * @}
 563:/home/barnecle/STM32Cube/Repository/STM32Cube_FW_L4_V1.17.1/Drivers/STM32L4xx_HAL_Driver/Inc/stm32l4xx_ll_usart.h ****   */
 564:/home/barnecle/STM32Cube/Repository/STM32Cube_FW_L4_V1.17.1/Drivers/STM32L4xx_HAL_Driver/Inc/stm32l4xx_ll_usart.h **** 
 565:/home/barnecle/STM32Cube/Repository/STM32Cube_FW_L4_V1.17.1/Drivers/STM32L4xx_HAL_Driver/Inc/stm32l4xx_ll_usart.h **** /**
 566:/home/barnecle/STM32Cube/Repository/STM32Cube_FW_L4_V1.17.1/Drivers/STM32L4xx_HAL_Driver/Inc/stm32l4xx_ll_usart.h ****   * @}
 567:/home/barnecle/STM32Cube/Repository/STM32Cube_FW_L4_V1.17.1/Drivers/STM32L4xx_HAL_Driver/Inc/stm32l4xx_ll_usart.h ****   */
 568:/home/barnecle/STM32Cube/Repository/STM32Cube_FW_L4_V1.17.1/Drivers/STM32L4xx_HAL_Driver/Inc/stm32l4xx_ll_usart.h **** 
 569:/home/barnecle/STM32Cube/Repository/STM32Cube_FW_L4_V1.17.1/Drivers/STM32L4xx_HAL_Driver/Inc/stm32l4xx_ll_usart.h **** /* Exported macro ------------------------------------------------------------*/
 570:/home/barnecle/STM32Cube/Repository/STM32Cube_FW_L4_V1.17.1/Drivers/STM32L4xx_HAL_Driver/Inc/stm32l4xx_ll_usart.h **** /** @defgroup USART_LL_Exported_Macros USART Exported Macros
 571:/home/barnecle/STM32Cube/Repository/STM32Cube_FW_L4_V1.17.1/Drivers/STM32L4xx_HAL_Driver/Inc/stm32l4xx_ll_usart.h ****   * @{
 572:/home/barnecle/STM32Cube/Repository/STM32Cube_FW_L4_V1.17.1/Drivers/STM32L4xx_HAL_Driver/Inc/stm32l4xx_ll_usart.h ****   */
 573:/home/barnecle/STM32Cube/Repository/STM32Cube_FW_L4_V1.17.1/Drivers/STM32L4xx_HAL_Driver/Inc/stm32l4xx_ll_usart.h **** 
 574:/home/barnecle/STM32Cube/Repository/STM32Cube_FW_L4_V1.17.1/Drivers/STM32L4xx_HAL_Driver/Inc/stm32l4xx_ll_usart.h **** /** @defgroup USART_LL_EM_WRITE_READ Common Write and read registers Macros
 575:/home/barnecle/STM32Cube/Repository/STM32Cube_FW_L4_V1.17.1/Drivers/STM32L4xx_HAL_Driver/Inc/stm32l4xx_ll_usart.h ****   * @{
 576:/home/barnecle/STM32Cube/Repository/STM32Cube_FW_L4_V1.17.1/Drivers/STM32L4xx_HAL_Driver/Inc/stm32l4xx_ll_usart.h ****   */
 577:/home/barnecle/STM32Cube/Repository/STM32Cube_FW_L4_V1.17.1/Drivers/STM32L4xx_HAL_Driver/Inc/stm32l4xx_ll_usart.h **** 
 578:/home/barnecle/STM32Cube/Repository/STM32Cube_FW_L4_V1.17.1/Drivers/STM32L4xx_HAL_Driver/Inc/stm32l4xx_ll_usart.h **** /**
 579:/home/barnecle/STM32Cube/Repository/STM32Cube_FW_L4_V1.17.1/Drivers/STM32L4xx_HAL_Driver/Inc/stm32l4xx_ll_usart.h ****   * @brief  Write a value in USART register
 580:/home/barnecle/STM32Cube/Repository/STM32Cube_FW_L4_V1.17.1/Drivers/STM32L4xx_HAL_Driver/Inc/stm32l4xx_ll_usart.h ****   * @param  __INSTANCE__ USART Instance
 581:/home/barnecle/STM32Cube/Repository/STM32Cube_FW_L4_V1.17.1/Drivers/STM32L4xx_HAL_Driver/Inc/stm32l4xx_ll_usart.h ****   * @param  __REG__ Register to be written
 582:/home/barnecle/STM32Cube/Repository/STM32Cube_FW_L4_V1.17.1/Drivers/STM32L4xx_HAL_Driver/Inc/stm32l4xx_ll_usart.h ****   * @param  __VALUE__ Value to be written in the register
 583:/home/barnecle/STM32Cube/Repository/STM32Cube_FW_L4_V1.17.1/Drivers/STM32L4xx_HAL_Driver/Inc/stm32l4xx_ll_usart.h ****   * @retval None
 584:/home/barnecle/STM32Cube/Repository/STM32Cube_FW_L4_V1.17.1/Drivers/STM32L4xx_HAL_Driver/Inc/stm32l4xx_ll_usart.h ****   */
 585:/home/barnecle/STM32Cube/Repository/STM32Cube_FW_L4_V1.17.1/Drivers/STM32L4xx_HAL_Driver/Inc/stm32l4xx_ll_usart.h **** #define LL_USART_WriteReg(__INSTANCE__, __REG__, __VALUE__) WRITE_REG(__INSTANCE__->__REG__, (__VAL
 586:/home/barnecle/STM32Cube/Repository/STM32Cube_FW_L4_V1.17.1/Drivers/STM32L4xx_HAL_Driver/Inc/stm32l4xx_ll_usart.h **** 
 587:/home/barnecle/STM32Cube/Repository/STM32Cube_FW_L4_V1.17.1/Drivers/STM32L4xx_HAL_Driver/Inc/stm32l4xx_ll_usart.h **** /**
 588:/home/barnecle/STM32Cube/Repository/STM32Cube_FW_L4_V1.17.1/Drivers/STM32L4xx_HAL_Driver/Inc/stm32l4xx_ll_usart.h ****   * @brief  Read a value in USART register
 589:/home/barnecle/STM32Cube/Repository/STM32Cube_FW_L4_V1.17.1/Drivers/STM32L4xx_HAL_Driver/Inc/stm32l4xx_ll_usart.h ****   * @param  __INSTANCE__ USART Instance
 590:/home/barnecle/STM32Cube/Repository/STM32Cube_FW_L4_V1.17.1/Drivers/STM32L4xx_HAL_Driver/Inc/stm32l4xx_ll_usart.h ****   * @param  __REG__ Register to be read
 591:/home/barnecle/STM32Cube/Repository/STM32Cube_FW_L4_V1.17.1/Drivers/STM32L4xx_HAL_Driver/Inc/stm32l4xx_ll_usart.h ****   * @retval Register value
 592:/home/barnecle/STM32Cube/Repository/STM32Cube_FW_L4_V1.17.1/Drivers/STM32L4xx_HAL_Driver/Inc/stm32l4xx_ll_usart.h ****   */
 593:/home/barnecle/STM32Cube/Repository/STM32Cube_FW_L4_V1.17.1/Drivers/STM32L4xx_HAL_Driver/Inc/stm32l4xx_ll_usart.h **** #define LL_USART_ReadReg(__INSTANCE__, __REG__) READ_REG(__INSTANCE__->__REG__)
 594:/home/barnecle/STM32Cube/Repository/STM32Cube_FW_L4_V1.17.1/Drivers/STM32L4xx_HAL_Driver/Inc/stm32l4xx_ll_usart.h **** /**
 595:/home/barnecle/STM32Cube/Repository/STM32Cube_FW_L4_V1.17.1/Drivers/STM32L4xx_HAL_Driver/Inc/stm32l4xx_ll_usart.h ****   * @}
 596:/home/barnecle/STM32Cube/Repository/STM32Cube_FW_L4_V1.17.1/Drivers/STM32L4xx_HAL_Driver/Inc/stm32l4xx_ll_usart.h ****   */
 597:/home/barnecle/STM32Cube/Repository/STM32Cube_FW_L4_V1.17.1/Drivers/STM32L4xx_HAL_Driver/Inc/stm32l4xx_ll_usart.h **** 
 598:/home/barnecle/STM32Cube/Repository/STM32Cube_FW_L4_V1.17.1/Drivers/STM32L4xx_HAL_Driver/Inc/stm32l4xx_ll_usart.h **** /** @defgroup USART_LL_EM_Exported_Macros_Helper Exported_Macros_Helper
 599:/home/barnecle/STM32Cube/Repository/STM32Cube_FW_L4_V1.17.1/Drivers/STM32L4xx_HAL_Driver/Inc/stm32l4xx_ll_usart.h ****   * @{
 600:/home/barnecle/STM32Cube/Repository/STM32Cube_FW_L4_V1.17.1/Drivers/STM32L4xx_HAL_Driver/Inc/stm32l4xx_ll_usart.h ****   */
 601:/home/barnecle/STM32Cube/Repository/STM32Cube_FW_L4_V1.17.1/Drivers/STM32L4xx_HAL_Driver/Inc/stm32l4xx_ll_usart.h **** 
 602:/home/barnecle/STM32Cube/Repository/STM32Cube_FW_L4_V1.17.1/Drivers/STM32L4xx_HAL_Driver/Inc/stm32l4xx_ll_usart.h **** /**
 603:/home/barnecle/STM32Cube/Repository/STM32Cube_FW_L4_V1.17.1/Drivers/STM32L4xx_HAL_Driver/Inc/stm32l4xx_ll_usart.h ****   * @brief  Compute USARTDIV value according to Peripheral Clock and
 604:/home/barnecle/STM32Cube/Repository/STM32Cube_FW_L4_V1.17.1/Drivers/STM32L4xx_HAL_Driver/Inc/stm32l4xx_ll_usart.h ****   *         expected Baud Rate in 8 bits sampling mode (32 bits value of USARTDIV is returned)
 605:/home/barnecle/STM32Cube/Repository/STM32Cube_FW_L4_V1.17.1/Drivers/STM32L4xx_HAL_Driver/Inc/stm32l4xx_ll_usart.h ****   * @param  __PERIPHCLK__ Peripheral Clock frequency used for USART instance
 606:/home/barnecle/STM32Cube/Repository/STM32Cube_FW_L4_V1.17.1/Drivers/STM32L4xx_HAL_Driver/Inc/stm32l4xx_ll_usart.h ****   @if USART_PRESC_PRESCALER
 607:/home/barnecle/STM32Cube/Repository/STM32Cube_FW_L4_V1.17.1/Drivers/STM32L4xx_HAL_Driver/Inc/stm32l4xx_ll_usart.h ****   * @param  __PRESCALER__ This parameter can be one of the following values:
 608:/home/barnecle/STM32Cube/Repository/STM32Cube_FW_L4_V1.17.1/Drivers/STM32L4xx_HAL_Driver/Inc/stm32l4xx_ll_usart.h ****   *         @arg @ref LL_USART_PRESCALER_DIV1
 609:/home/barnecle/STM32Cube/Repository/STM32Cube_FW_L4_V1.17.1/Drivers/STM32L4xx_HAL_Driver/Inc/stm32l4xx_ll_usart.h ****   *         @arg @ref LL_USART_PRESCALER_DIV2
 610:/home/barnecle/STM32Cube/Repository/STM32Cube_FW_L4_V1.17.1/Drivers/STM32L4xx_HAL_Driver/Inc/stm32l4xx_ll_usart.h ****   *         @arg @ref LL_USART_PRESCALER_DIV4
 611:/home/barnecle/STM32Cube/Repository/STM32Cube_FW_L4_V1.17.1/Drivers/STM32L4xx_HAL_Driver/Inc/stm32l4xx_ll_usart.h ****   *         @arg @ref LL_USART_PRESCALER_DIV6
 612:/home/barnecle/STM32Cube/Repository/STM32Cube_FW_L4_V1.17.1/Drivers/STM32L4xx_HAL_Driver/Inc/stm32l4xx_ll_usart.h ****   *         @arg @ref LL_USART_PRESCALER_DIV8
 613:/home/barnecle/STM32Cube/Repository/STM32Cube_FW_L4_V1.17.1/Drivers/STM32L4xx_HAL_Driver/Inc/stm32l4xx_ll_usart.h ****   *         @arg @ref LL_USART_PRESCALER_DIV10
 614:/home/barnecle/STM32Cube/Repository/STM32Cube_FW_L4_V1.17.1/Drivers/STM32L4xx_HAL_Driver/Inc/stm32l4xx_ll_usart.h ****   *         @arg @ref LL_USART_PRESCALER_DIV12
ARM GAS  /tmp/ccVvGxMz.s 			page 42


 615:/home/barnecle/STM32Cube/Repository/STM32Cube_FW_L4_V1.17.1/Drivers/STM32L4xx_HAL_Driver/Inc/stm32l4xx_ll_usart.h ****   *         @arg @ref LL_USART_PRESCALER_DIV16
 616:/home/barnecle/STM32Cube/Repository/STM32Cube_FW_L4_V1.17.1/Drivers/STM32L4xx_HAL_Driver/Inc/stm32l4xx_ll_usart.h ****   *         @arg @ref LL_USART_PRESCALER_DIV32
 617:/home/barnecle/STM32Cube/Repository/STM32Cube_FW_L4_V1.17.1/Drivers/STM32L4xx_HAL_Driver/Inc/stm32l4xx_ll_usart.h ****   *         @arg @ref LL_USART_PRESCALER_DIV64
 618:/home/barnecle/STM32Cube/Repository/STM32Cube_FW_L4_V1.17.1/Drivers/STM32L4xx_HAL_Driver/Inc/stm32l4xx_ll_usart.h ****   *         @arg @ref LL_USART_PRESCALER_DIV128
 619:/home/barnecle/STM32Cube/Repository/STM32Cube_FW_L4_V1.17.1/Drivers/STM32L4xx_HAL_Driver/Inc/stm32l4xx_ll_usart.h ****   *         @arg @ref LL_USART_PRESCALER_DIV256
 620:/home/barnecle/STM32Cube/Repository/STM32Cube_FW_L4_V1.17.1/Drivers/STM32L4xx_HAL_Driver/Inc/stm32l4xx_ll_usart.h ****   @endif
 621:/home/barnecle/STM32Cube/Repository/STM32Cube_FW_L4_V1.17.1/Drivers/STM32L4xx_HAL_Driver/Inc/stm32l4xx_ll_usart.h ****   * @param  __BAUDRATE__ Baud rate value to achieve
 622:/home/barnecle/STM32Cube/Repository/STM32Cube_FW_L4_V1.17.1/Drivers/STM32L4xx_HAL_Driver/Inc/stm32l4xx_ll_usart.h ****   * @retval USARTDIV value to be used for BRR register filling in OverSampling_8 case
 623:/home/barnecle/STM32Cube/Repository/STM32Cube_FW_L4_V1.17.1/Drivers/STM32L4xx_HAL_Driver/Inc/stm32l4xx_ll_usart.h ****   */
 624:/home/barnecle/STM32Cube/Repository/STM32Cube_FW_L4_V1.17.1/Drivers/STM32L4xx_HAL_Driver/Inc/stm32l4xx_ll_usart.h **** #if defined(USART_PRESC_PRESCALER)
 625:/home/barnecle/STM32Cube/Repository/STM32Cube_FW_L4_V1.17.1/Drivers/STM32L4xx_HAL_Driver/Inc/stm32l4xx_ll_usart.h **** #define __LL_USART_DIV_SAMPLING8(__PERIPHCLK__, __PRESCALER__, __BAUDRATE__) \
 626:/home/barnecle/STM32Cube/Repository/STM32Cube_FW_L4_V1.17.1/Drivers/STM32L4xx_HAL_Driver/Inc/stm32l4xx_ll_usart.h ****   (((((__PERIPHCLK__)/(USART_PRESCALER_TAB[(__PRESCALER__)]))*2U)\
 627:/home/barnecle/STM32Cube/Repository/STM32Cube_FW_L4_V1.17.1/Drivers/STM32L4xx_HAL_Driver/Inc/stm32l4xx_ll_usart.h ****     + ((__BAUDRATE__)/2U))/(__BAUDRATE__))
 628:/home/barnecle/STM32Cube/Repository/STM32Cube_FW_L4_V1.17.1/Drivers/STM32L4xx_HAL_Driver/Inc/stm32l4xx_ll_usart.h **** #else
 629:/home/barnecle/STM32Cube/Repository/STM32Cube_FW_L4_V1.17.1/Drivers/STM32L4xx_HAL_Driver/Inc/stm32l4xx_ll_usart.h **** #define __LL_USART_DIV_SAMPLING8(__PERIPHCLK__, __BAUDRATE__) ((((__PERIPHCLK__)*2U)\
 630:/home/barnecle/STM32Cube/Repository/STM32Cube_FW_L4_V1.17.1/Drivers/STM32L4xx_HAL_Driver/Inc/stm32l4xx_ll_usart.h ****                                                                 + ((__BAUDRATE__)/2U))/(__BAUDRATE_
 631:/home/barnecle/STM32Cube/Repository/STM32Cube_FW_L4_V1.17.1/Drivers/STM32L4xx_HAL_Driver/Inc/stm32l4xx_ll_usart.h **** #endif /* USART_PRESC_PRESCALER */
 632:/home/barnecle/STM32Cube/Repository/STM32Cube_FW_L4_V1.17.1/Drivers/STM32L4xx_HAL_Driver/Inc/stm32l4xx_ll_usart.h **** 
 633:/home/barnecle/STM32Cube/Repository/STM32Cube_FW_L4_V1.17.1/Drivers/STM32L4xx_HAL_Driver/Inc/stm32l4xx_ll_usart.h **** /**
 634:/home/barnecle/STM32Cube/Repository/STM32Cube_FW_L4_V1.17.1/Drivers/STM32L4xx_HAL_Driver/Inc/stm32l4xx_ll_usart.h ****   * @brief  Compute USARTDIV value according to Peripheral Clock and
 635:/home/barnecle/STM32Cube/Repository/STM32Cube_FW_L4_V1.17.1/Drivers/STM32L4xx_HAL_Driver/Inc/stm32l4xx_ll_usart.h ****   *         expected Baud Rate in 16 bits sampling mode (32 bits value of USARTDIV is returned)
 636:/home/barnecle/STM32Cube/Repository/STM32Cube_FW_L4_V1.17.1/Drivers/STM32L4xx_HAL_Driver/Inc/stm32l4xx_ll_usart.h ****   * @param  __PERIPHCLK__ Peripheral Clock frequency used for USART instance
 637:/home/barnecle/STM32Cube/Repository/STM32Cube_FW_L4_V1.17.1/Drivers/STM32L4xx_HAL_Driver/Inc/stm32l4xx_ll_usart.h ****   @if USART_PRESC_PRESCALER
 638:/home/barnecle/STM32Cube/Repository/STM32Cube_FW_L4_V1.17.1/Drivers/STM32L4xx_HAL_Driver/Inc/stm32l4xx_ll_usart.h ****   * @param  __PRESCALER__ This parameter can be one of the following values:
 639:/home/barnecle/STM32Cube/Repository/STM32Cube_FW_L4_V1.17.1/Drivers/STM32L4xx_HAL_Driver/Inc/stm32l4xx_ll_usart.h ****   *         @arg @ref LL_USART_PRESCALER_DIV1
 640:/home/barnecle/STM32Cube/Repository/STM32Cube_FW_L4_V1.17.1/Drivers/STM32L4xx_HAL_Driver/Inc/stm32l4xx_ll_usart.h ****   *         @arg @ref LL_USART_PRESCALER_DIV2
 641:/home/barnecle/STM32Cube/Repository/STM32Cube_FW_L4_V1.17.1/Drivers/STM32L4xx_HAL_Driver/Inc/stm32l4xx_ll_usart.h ****   *         @arg @ref LL_USART_PRESCALER_DIV4
 642:/home/barnecle/STM32Cube/Repository/STM32Cube_FW_L4_V1.17.1/Drivers/STM32L4xx_HAL_Driver/Inc/stm32l4xx_ll_usart.h ****   *         @arg @ref LL_USART_PRESCALER_DIV6
 643:/home/barnecle/STM32Cube/Repository/STM32Cube_FW_L4_V1.17.1/Drivers/STM32L4xx_HAL_Driver/Inc/stm32l4xx_ll_usart.h ****   *         @arg @ref LL_USART_PRESCALER_DIV8
 644:/home/barnecle/STM32Cube/Repository/STM32Cube_FW_L4_V1.17.1/Drivers/STM32L4xx_HAL_Driver/Inc/stm32l4xx_ll_usart.h ****   *         @arg @ref LL_USART_PRESCALER_DIV10
 645:/home/barnecle/STM32Cube/Repository/STM32Cube_FW_L4_V1.17.1/Drivers/STM32L4xx_HAL_Driver/Inc/stm32l4xx_ll_usart.h ****   *         @arg @ref LL_USART_PRESCALER_DIV12
 646:/home/barnecle/STM32Cube/Repository/STM32Cube_FW_L4_V1.17.1/Drivers/STM32L4xx_HAL_Driver/Inc/stm32l4xx_ll_usart.h ****   *         @arg @ref LL_USART_PRESCALER_DIV16
 647:/home/barnecle/STM32Cube/Repository/STM32Cube_FW_L4_V1.17.1/Drivers/STM32L4xx_HAL_Driver/Inc/stm32l4xx_ll_usart.h ****   *         @arg @ref LL_USART_PRESCALER_DIV32
 648:/home/barnecle/STM32Cube/Repository/STM32Cube_FW_L4_V1.17.1/Drivers/STM32L4xx_HAL_Driver/Inc/stm32l4xx_ll_usart.h ****   *         @arg @ref LL_USART_PRESCALER_DIV64
 649:/home/barnecle/STM32Cube/Repository/STM32Cube_FW_L4_V1.17.1/Drivers/STM32L4xx_HAL_Driver/Inc/stm32l4xx_ll_usart.h ****   *         @arg @ref LL_USART_PRESCALER_DIV128
 650:/home/barnecle/STM32Cube/Repository/STM32Cube_FW_L4_V1.17.1/Drivers/STM32L4xx_HAL_Driver/Inc/stm32l4xx_ll_usart.h ****   *         @arg @ref LL_USART_PRESCALER_DIV256
 651:/home/barnecle/STM32Cube/Repository/STM32Cube_FW_L4_V1.17.1/Drivers/STM32L4xx_HAL_Driver/Inc/stm32l4xx_ll_usart.h ****   @endif
 652:/home/barnecle/STM32Cube/Repository/STM32Cube_FW_L4_V1.17.1/Drivers/STM32L4xx_HAL_Driver/Inc/stm32l4xx_ll_usart.h ****   * @param  __BAUDRATE__ Baud rate value to achieve
 653:/home/barnecle/STM32Cube/Repository/STM32Cube_FW_L4_V1.17.1/Drivers/STM32L4xx_HAL_Driver/Inc/stm32l4xx_ll_usart.h ****   * @retval USARTDIV value to be used for BRR register filling in OverSampling_16 case
 654:/home/barnecle/STM32Cube/Repository/STM32Cube_FW_L4_V1.17.1/Drivers/STM32L4xx_HAL_Driver/Inc/stm32l4xx_ll_usart.h ****   */
 655:/home/barnecle/STM32Cube/Repository/STM32Cube_FW_L4_V1.17.1/Drivers/STM32L4xx_HAL_Driver/Inc/stm32l4xx_ll_usart.h **** #if defined(USART_PRESC_PRESCALER)
 656:/home/barnecle/STM32Cube/Repository/STM32Cube_FW_L4_V1.17.1/Drivers/STM32L4xx_HAL_Driver/Inc/stm32l4xx_ll_usart.h **** #define __LL_USART_DIV_SAMPLING16(__PERIPHCLK__, __PRESCALER__, __BAUDRATE__) \
 657:/home/barnecle/STM32Cube/Repository/STM32Cube_FW_L4_V1.17.1/Drivers/STM32L4xx_HAL_Driver/Inc/stm32l4xx_ll_usart.h ****   ((((__PERIPHCLK__)/(USART_PRESCALER_TAB[(__PRESCALER__)]))\
 658:/home/barnecle/STM32Cube/Repository/STM32Cube_FW_L4_V1.17.1/Drivers/STM32L4xx_HAL_Driver/Inc/stm32l4xx_ll_usart.h ****     + ((__BAUDRATE__)/2U))/(__BAUDRATE__))
 659:/home/barnecle/STM32Cube/Repository/STM32Cube_FW_L4_V1.17.1/Drivers/STM32L4xx_HAL_Driver/Inc/stm32l4xx_ll_usart.h **** #else
 660:/home/barnecle/STM32Cube/Repository/STM32Cube_FW_L4_V1.17.1/Drivers/STM32L4xx_HAL_Driver/Inc/stm32l4xx_ll_usart.h **** #define __LL_USART_DIV_SAMPLING16(__PERIPHCLK__, __BAUDRATE__) (((__PERIPHCLK__) + ((__BAUDRATE__)/
 661:/home/barnecle/STM32Cube/Repository/STM32Cube_FW_L4_V1.17.1/Drivers/STM32L4xx_HAL_Driver/Inc/stm32l4xx_ll_usart.h **** #endif /* USART_PRESC_PRESCALER */
 662:/home/barnecle/STM32Cube/Repository/STM32Cube_FW_L4_V1.17.1/Drivers/STM32L4xx_HAL_Driver/Inc/stm32l4xx_ll_usart.h **** 
 663:/home/barnecle/STM32Cube/Repository/STM32Cube_FW_L4_V1.17.1/Drivers/STM32L4xx_HAL_Driver/Inc/stm32l4xx_ll_usart.h **** /**
 664:/home/barnecle/STM32Cube/Repository/STM32Cube_FW_L4_V1.17.1/Drivers/STM32L4xx_HAL_Driver/Inc/stm32l4xx_ll_usart.h ****   * @}
 665:/home/barnecle/STM32Cube/Repository/STM32Cube_FW_L4_V1.17.1/Drivers/STM32L4xx_HAL_Driver/Inc/stm32l4xx_ll_usart.h ****   */
 666:/home/barnecle/STM32Cube/Repository/STM32Cube_FW_L4_V1.17.1/Drivers/STM32L4xx_HAL_Driver/Inc/stm32l4xx_ll_usart.h **** 
 667:/home/barnecle/STM32Cube/Repository/STM32Cube_FW_L4_V1.17.1/Drivers/STM32L4xx_HAL_Driver/Inc/stm32l4xx_ll_usart.h **** /**
 668:/home/barnecle/STM32Cube/Repository/STM32Cube_FW_L4_V1.17.1/Drivers/STM32L4xx_HAL_Driver/Inc/stm32l4xx_ll_usart.h ****   * @}
 669:/home/barnecle/STM32Cube/Repository/STM32Cube_FW_L4_V1.17.1/Drivers/STM32L4xx_HAL_Driver/Inc/stm32l4xx_ll_usart.h ****   */
 670:/home/barnecle/STM32Cube/Repository/STM32Cube_FW_L4_V1.17.1/Drivers/STM32L4xx_HAL_Driver/Inc/stm32l4xx_ll_usart.h **** 
 671:/home/barnecle/STM32Cube/Repository/STM32Cube_FW_L4_V1.17.1/Drivers/STM32L4xx_HAL_Driver/Inc/stm32l4xx_ll_usart.h **** /* Exported functions --------------------------------------------------------*/
ARM GAS  /tmp/ccVvGxMz.s 			page 43


 672:/home/barnecle/STM32Cube/Repository/STM32Cube_FW_L4_V1.17.1/Drivers/STM32L4xx_HAL_Driver/Inc/stm32l4xx_ll_usart.h **** 
 673:/home/barnecle/STM32Cube/Repository/STM32Cube_FW_L4_V1.17.1/Drivers/STM32L4xx_HAL_Driver/Inc/stm32l4xx_ll_usart.h **** /** @defgroup USART_LL_Exported_Functions USART Exported Functions
 674:/home/barnecle/STM32Cube/Repository/STM32Cube_FW_L4_V1.17.1/Drivers/STM32L4xx_HAL_Driver/Inc/stm32l4xx_ll_usart.h ****   * @{
 675:/home/barnecle/STM32Cube/Repository/STM32Cube_FW_L4_V1.17.1/Drivers/STM32L4xx_HAL_Driver/Inc/stm32l4xx_ll_usart.h ****   */
 676:/home/barnecle/STM32Cube/Repository/STM32Cube_FW_L4_V1.17.1/Drivers/STM32L4xx_HAL_Driver/Inc/stm32l4xx_ll_usart.h **** 
 677:/home/barnecle/STM32Cube/Repository/STM32Cube_FW_L4_V1.17.1/Drivers/STM32L4xx_HAL_Driver/Inc/stm32l4xx_ll_usart.h **** /** @defgroup USART_LL_EF_Configuration Configuration functions
 678:/home/barnecle/STM32Cube/Repository/STM32Cube_FW_L4_V1.17.1/Drivers/STM32L4xx_HAL_Driver/Inc/stm32l4xx_ll_usart.h ****   * @{
 679:/home/barnecle/STM32Cube/Repository/STM32Cube_FW_L4_V1.17.1/Drivers/STM32L4xx_HAL_Driver/Inc/stm32l4xx_ll_usart.h ****   */
 680:/home/barnecle/STM32Cube/Repository/STM32Cube_FW_L4_V1.17.1/Drivers/STM32L4xx_HAL_Driver/Inc/stm32l4xx_ll_usart.h **** 
 681:/home/barnecle/STM32Cube/Repository/STM32Cube_FW_L4_V1.17.1/Drivers/STM32L4xx_HAL_Driver/Inc/stm32l4xx_ll_usart.h **** /**
 682:/home/barnecle/STM32Cube/Repository/STM32Cube_FW_L4_V1.17.1/Drivers/STM32L4xx_HAL_Driver/Inc/stm32l4xx_ll_usart.h ****   * @brief  USART Enable
 683:/home/barnecle/STM32Cube/Repository/STM32Cube_FW_L4_V1.17.1/Drivers/STM32L4xx_HAL_Driver/Inc/stm32l4xx_ll_usart.h ****   * @rmtoll CR1          UE            LL_USART_Enable
 684:/home/barnecle/STM32Cube/Repository/STM32Cube_FW_L4_V1.17.1/Drivers/STM32L4xx_HAL_Driver/Inc/stm32l4xx_ll_usart.h ****   * @param  USARTx USART Instance
 685:/home/barnecle/STM32Cube/Repository/STM32Cube_FW_L4_V1.17.1/Drivers/STM32L4xx_HAL_Driver/Inc/stm32l4xx_ll_usart.h ****   * @retval None
 686:/home/barnecle/STM32Cube/Repository/STM32Cube_FW_L4_V1.17.1/Drivers/STM32L4xx_HAL_Driver/Inc/stm32l4xx_ll_usart.h ****   */
 687:/home/barnecle/STM32Cube/Repository/STM32Cube_FW_L4_V1.17.1/Drivers/STM32L4xx_HAL_Driver/Inc/stm32l4xx_ll_usart.h **** __STATIC_INLINE void LL_USART_Enable(USART_TypeDef *USARTx)
 688:/home/barnecle/STM32Cube/Repository/STM32Cube_FW_L4_V1.17.1/Drivers/STM32L4xx_HAL_Driver/Inc/stm32l4xx_ll_usart.h **** {
 689:/home/barnecle/STM32Cube/Repository/STM32Cube_FW_L4_V1.17.1/Drivers/STM32L4xx_HAL_Driver/Inc/stm32l4xx_ll_usart.h ****   SET_BIT(USARTx->CR1, USART_CR1_UE);
 690:/home/barnecle/STM32Cube/Repository/STM32Cube_FW_L4_V1.17.1/Drivers/STM32L4xx_HAL_Driver/Inc/stm32l4xx_ll_usart.h **** }
 691:/home/barnecle/STM32Cube/Repository/STM32Cube_FW_L4_V1.17.1/Drivers/STM32L4xx_HAL_Driver/Inc/stm32l4xx_ll_usart.h **** 
 692:/home/barnecle/STM32Cube/Repository/STM32Cube_FW_L4_V1.17.1/Drivers/STM32L4xx_HAL_Driver/Inc/stm32l4xx_ll_usart.h **** /**
 693:/home/barnecle/STM32Cube/Repository/STM32Cube_FW_L4_V1.17.1/Drivers/STM32L4xx_HAL_Driver/Inc/stm32l4xx_ll_usart.h ****   * @brief  USART Disable (all USART prescalers and outputs are disabled)
 694:/home/barnecle/STM32Cube/Repository/STM32Cube_FW_L4_V1.17.1/Drivers/STM32L4xx_HAL_Driver/Inc/stm32l4xx_ll_usart.h ****   * @note   When USART is disabled, USART prescalers and outputs are stopped immediately,
 695:/home/barnecle/STM32Cube/Repository/STM32Cube_FW_L4_V1.17.1/Drivers/STM32L4xx_HAL_Driver/Inc/stm32l4xx_ll_usart.h ****   *         and current operations are discarded. The configuration of the USART is kept, but all t
 696:/home/barnecle/STM32Cube/Repository/STM32Cube_FW_L4_V1.17.1/Drivers/STM32L4xx_HAL_Driver/Inc/stm32l4xx_ll_usart.h ****   *         flags, in the USARTx_ISR are set to their default values.
 697:/home/barnecle/STM32Cube/Repository/STM32Cube_FW_L4_V1.17.1/Drivers/STM32L4xx_HAL_Driver/Inc/stm32l4xx_ll_usart.h ****   * @rmtoll CR1          UE            LL_USART_Disable
 698:/home/barnecle/STM32Cube/Repository/STM32Cube_FW_L4_V1.17.1/Drivers/STM32L4xx_HAL_Driver/Inc/stm32l4xx_ll_usart.h ****   * @param  USARTx USART Instance
 699:/home/barnecle/STM32Cube/Repository/STM32Cube_FW_L4_V1.17.1/Drivers/STM32L4xx_HAL_Driver/Inc/stm32l4xx_ll_usart.h ****   * @retval None
 700:/home/barnecle/STM32Cube/Repository/STM32Cube_FW_L4_V1.17.1/Drivers/STM32L4xx_HAL_Driver/Inc/stm32l4xx_ll_usart.h ****   */
 701:/home/barnecle/STM32Cube/Repository/STM32Cube_FW_L4_V1.17.1/Drivers/STM32L4xx_HAL_Driver/Inc/stm32l4xx_ll_usart.h **** __STATIC_INLINE void LL_USART_Disable(USART_TypeDef *USARTx)
 702:/home/barnecle/STM32Cube/Repository/STM32Cube_FW_L4_V1.17.1/Drivers/STM32L4xx_HAL_Driver/Inc/stm32l4xx_ll_usart.h **** {
 703:/home/barnecle/STM32Cube/Repository/STM32Cube_FW_L4_V1.17.1/Drivers/STM32L4xx_HAL_Driver/Inc/stm32l4xx_ll_usart.h ****   CLEAR_BIT(USARTx->CR1, USART_CR1_UE);
 704:/home/barnecle/STM32Cube/Repository/STM32Cube_FW_L4_V1.17.1/Drivers/STM32L4xx_HAL_Driver/Inc/stm32l4xx_ll_usart.h **** }
 705:/home/barnecle/STM32Cube/Repository/STM32Cube_FW_L4_V1.17.1/Drivers/STM32L4xx_HAL_Driver/Inc/stm32l4xx_ll_usart.h **** 
 706:/home/barnecle/STM32Cube/Repository/STM32Cube_FW_L4_V1.17.1/Drivers/STM32L4xx_HAL_Driver/Inc/stm32l4xx_ll_usart.h **** /**
 707:/home/barnecle/STM32Cube/Repository/STM32Cube_FW_L4_V1.17.1/Drivers/STM32L4xx_HAL_Driver/Inc/stm32l4xx_ll_usart.h ****   * @brief  Indicate if USART is enabled
 708:/home/barnecle/STM32Cube/Repository/STM32Cube_FW_L4_V1.17.1/Drivers/STM32L4xx_HAL_Driver/Inc/stm32l4xx_ll_usart.h ****   * @rmtoll CR1          UE            LL_USART_IsEnabled
 709:/home/barnecle/STM32Cube/Repository/STM32Cube_FW_L4_V1.17.1/Drivers/STM32L4xx_HAL_Driver/Inc/stm32l4xx_ll_usart.h ****   * @param  USARTx USART Instance
 710:/home/barnecle/STM32Cube/Repository/STM32Cube_FW_L4_V1.17.1/Drivers/STM32L4xx_HAL_Driver/Inc/stm32l4xx_ll_usart.h ****   * @retval State of bit (1 or 0).
 711:/home/barnecle/STM32Cube/Repository/STM32Cube_FW_L4_V1.17.1/Drivers/STM32L4xx_HAL_Driver/Inc/stm32l4xx_ll_usart.h ****   */
 712:/home/barnecle/STM32Cube/Repository/STM32Cube_FW_L4_V1.17.1/Drivers/STM32L4xx_HAL_Driver/Inc/stm32l4xx_ll_usart.h **** __STATIC_INLINE uint32_t LL_USART_IsEnabled(USART_TypeDef *USARTx)
 713:/home/barnecle/STM32Cube/Repository/STM32Cube_FW_L4_V1.17.1/Drivers/STM32L4xx_HAL_Driver/Inc/stm32l4xx_ll_usart.h **** {
 714:/home/barnecle/STM32Cube/Repository/STM32Cube_FW_L4_V1.17.1/Drivers/STM32L4xx_HAL_Driver/Inc/stm32l4xx_ll_usart.h ****   return ((READ_BIT(USARTx->CR1, USART_CR1_UE) == (USART_CR1_UE)) ? 1UL : 0UL);
 715:/home/barnecle/STM32Cube/Repository/STM32Cube_FW_L4_V1.17.1/Drivers/STM32L4xx_HAL_Driver/Inc/stm32l4xx_ll_usart.h **** }
 716:/home/barnecle/STM32Cube/Repository/STM32Cube_FW_L4_V1.17.1/Drivers/STM32L4xx_HAL_Driver/Inc/stm32l4xx_ll_usart.h **** 
 717:/home/barnecle/STM32Cube/Repository/STM32Cube_FW_L4_V1.17.1/Drivers/STM32L4xx_HAL_Driver/Inc/stm32l4xx_ll_usart.h **** #if defined(USART_CR1_FIFOEN)
 718:/home/barnecle/STM32Cube/Repository/STM32Cube_FW_L4_V1.17.1/Drivers/STM32L4xx_HAL_Driver/Inc/stm32l4xx_ll_usart.h **** /**
 719:/home/barnecle/STM32Cube/Repository/STM32Cube_FW_L4_V1.17.1/Drivers/STM32L4xx_HAL_Driver/Inc/stm32l4xx_ll_usart.h ****   * @brief  FIFO Mode Enable
 720:/home/barnecle/STM32Cube/Repository/STM32Cube_FW_L4_V1.17.1/Drivers/STM32L4xx_HAL_Driver/Inc/stm32l4xx_ll_usart.h ****   * @note   Macro IS_UART_FIFO_INSTANCE(USARTx) can be used to check whether or not
 721:/home/barnecle/STM32Cube/Repository/STM32Cube_FW_L4_V1.17.1/Drivers/STM32L4xx_HAL_Driver/Inc/stm32l4xx_ll_usart.h ****   *         FIFO mode feature is supported by the USARTx instance.
 722:/home/barnecle/STM32Cube/Repository/STM32Cube_FW_L4_V1.17.1/Drivers/STM32L4xx_HAL_Driver/Inc/stm32l4xx_ll_usart.h ****   * @rmtoll CR1          FIFOEN        LL_USART_EnableFIFO
 723:/home/barnecle/STM32Cube/Repository/STM32Cube_FW_L4_V1.17.1/Drivers/STM32L4xx_HAL_Driver/Inc/stm32l4xx_ll_usart.h ****   * @param  USARTx USART Instance
 724:/home/barnecle/STM32Cube/Repository/STM32Cube_FW_L4_V1.17.1/Drivers/STM32L4xx_HAL_Driver/Inc/stm32l4xx_ll_usart.h ****   * @retval None
 725:/home/barnecle/STM32Cube/Repository/STM32Cube_FW_L4_V1.17.1/Drivers/STM32L4xx_HAL_Driver/Inc/stm32l4xx_ll_usart.h ****   */
 726:/home/barnecle/STM32Cube/Repository/STM32Cube_FW_L4_V1.17.1/Drivers/STM32L4xx_HAL_Driver/Inc/stm32l4xx_ll_usart.h **** __STATIC_INLINE void LL_USART_EnableFIFO(USART_TypeDef *USARTx)
 727:/home/barnecle/STM32Cube/Repository/STM32Cube_FW_L4_V1.17.1/Drivers/STM32L4xx_HAL_Driver/Inc/stm32l4xx_ll_usart.h **** {
 728:/home/barnecle/STM32Cube/Repository/STM32Cube_FW_L4_V1.17.1/Drivers/STM32L4xx_HAL_Driver/Inc/stm32l4xx_ll_usart.h ****   SET_BIT(USARTx->CR1, USART_CR1_FIFOEN);
ARM GAS  /tmp/ccVvGxMz.s 			page 44


 729:/home/barnecle/STM32Cube/Repository/STM32Cube_FW_L4_V1.17.1/Drivers/STM32L4xx_HAL_Driver/Inc/stm32l4xx_ll_usart.h **** }
 730:/home/barnecle/STM32Cube/Repository/STM32Cube_FW_L4_V1.17.1/Drivers/STM32L4xx_HAL_Driver/Inc/stm32l4xx_ll_usart.h **** 
 731:/home/barnecle/STM32Cube/Repository/STM32Cube_FW_L4_V1.17.1/Drivers/STM32L4xx_HAL_Driver/Inc/stm32l4xx_ll_usart.h **** /**
 732:/home/barnecle/STM32Cube/Repository/STM32Cube_FW_L4_V1.17.1/Drivers/STM32L4xx_HAL_Driver/Inc/stm32l4xx_ll_usart.h ****   * @brief  FIFO Mode Disable
 733:/home/barnecle/STM32Cube/Repository/STM32Cube_FW_L4_V1.17.1/Drivers/STM32L4xx_HAL_Driver/Inc/stm32l4xx_ll_usart.h ****   * @note   Macro IS_UART_FIFO_INSTANCE(USARTx) can be used to check whether or not
 734:/home/barnecle/STM32Cube/Repository/STM32Cube_FW_L4_V1.17.1/Drivers/STM32L4xx_HAL_Driver/Inc/stm32l4xx_ll_usart.h ****   *         FIFO mode feature is supported by the USARTx instance.
 735:/home/barnecle/STM32Cube/Repository/STM32Cube_FW_L4_V1.17.1/Drivers/STM32L4xx_HAL_Driver/Inc/stm32l4xx_ll_usart.h ****   * @rmtoll CR1          FIFOEN        LL_USART_DisableFIFO
 736:/home/barnecle/STM32Cube/Repository/STM32Cube_FW_L4_V1.17.1/Drivers/STM32L4xx_HAL_Driver/Inc/stm32l4xx_ll_usart.h ****   * @param  USARTx USART Instance
 737:/home/barnecle/STM32Cube/Repository/STM32Cube_FW_L4_V1.17.1/Drivers/STM32L4xx_HAL_Driver/Inc/stm32l4xx_ll_usart.h ****   * @retval None
 738:/home/barnecle/STM32Cube/Repository/STM32Cube_FW_L4_V1.17.1/Drivers/STM32L4xx_HAL_Driver/Inc/stm32l4xx_ll_usart.h ****   */
 739:/home/barnecle/STM32Cube/Repository/STM32Cube_FW_L4_V1.17.1/Drivers/STM32L4xx_HAL_Driver/Inc/stm32l4xx_ll_usart.h **** __STATIC_INLINE void LL_USART_DisableFIFO(USART_TypeDef *USARTx)
 740:/home/barnecle/STM32Cube/Repository/STM32Cube_FW_L4_V1.17.1/Drivers/STM32L4xx_HAL_Driver/Inc/stm32l4xx_ll_usart.h **** {
 741:/home/barnecle/STM32Cube/Repository/STM32Cube_FW_L4_V1.17.1/Drivers/STM32L4xx_HAL_Driver/Inc/stm32l4xx_ll_usart.h ****   CLEAR_BIT(USARTx->CR1, USART_CR1_FIFOEN);
 742:/home/barnecle/STM32Cube/Repository/STM32Cube_FW_L4_V1.17.1/Drivers/STM32L4xx_HAL_Driver/Inc/stm32l4xx_ll_usart.h **** }
 743:/home/barnecle/STM32Cube/Repository/STM32Cube_FW_L4_V1.17.1/Drivers/STM32L4xx_HAL_Driver/Inc/stm32l4xx_ll_usart.h **** 
 744:/home/barnecle/STM32Cube/Repository/STM32Cube_FW_L4_V1.17.1/Drivers/STM32L4xx_HAL_Driver/Inc/stm32l4xx_ll_usart.h **** /**
 745:/home/barnecle/STM32Cube/Repository/STM32Cube_FW_L4_V1.17.1/Drivers/STM32L4xx_HAL_Driver/Inc/stm32l4xx_ll_usart.h ****   * @brief  Indicate if FIFO Mode is enabled
 746:/home/barnecle/STM32Cube/Repository/STM32Cube_FW_L4_V1.17.1/Drivers/STM32L4xx_HAL_Driver/Inc/stm32l4xx_ll_usart.h ****   * @note   Macro IS_UART_FIFO_INSTANCE(USARTx) can be used to check whether or not
 747:/home/barnecle/STM32Cube/Repository/STM32Cube_FW_L4_V1.17.1/Drivers/STM32L4xx_HAL_Driver/Inc/stm32l4xx_ll_usart.h ****   *         FIFO mode feature is supported by the USARTx instance.
 748:/home/barnecle/STM32Cube/Repository/STM32Cube_FW_L4_V1.17.1/Drivers/STM32L4xx_HAL_Driver/Inc/stm32l4xx_ll_usart.h ****   * @rmtoll CR1          FIFOEN        LL_USART_IsEnabledFIFO
 749:/home/barnecle/STM32Cube/Repository/STM32Cube_FW_L4_V1.17.1/Drivers/STM32L4xx_HAL_Driver/Inc/stm32l4xx_ll_usart.h ****   * @param  USARTx USART Instance
 750:/home/barnecle/STM32Cube/Repository/STM32Cube_FW_L4_V1.17.1/Drivers/STM32L4xx_HAL_Driver/Inc/stm32l4xx_ll_usart.h ****   * @retval State of bit (1 or 0).
 751:/home/barnecle/STM32Cube/Repository/STM32Cube_FW_L4_V1.17.1/Drivers/STM32L4xx_HAL_Driver/Inc/stm32l4xx_ll_usart.h ****   */
 752:/home/barnecle/STM32Cube/Repository/STM32Cube_FW_L4_V1.17.1/Drivers/STM32L4xx_HAL_Driver/Inc/stm32l4xx_ll_usart.h **** __STATIC_INLINE uint32_t LL_USART_IsEnabledFIFO(USART_TypeDef *USARTx)
 753:/home/barnecle/STM32Cube/Repository/STM32Cube_FW_L4_V1.17.1/Drivers/STM32L4xx_HAL_Driver/Inc/stm32l4xx_ll_usart.h **** {
 754:/home/barnecle/STM32Cube/Repository/STM32Cube_FW_L4_V1.17.1/Drivers/STM32L4xx_HAL_Driver/Inc/stm32l4xx_ll_usart.h ****   return ((READ_BIT(USARTx->CR1, USART_CR1_FIFOEN) == (USART_CR1_FIFOEN)) ? 1UL : 0UL);
 755:/home/barnecle/STM32Cube/Repository/STM32Cube_FW_L4_V1.17.1/Drivers/STM32L4xx_HAL_Driver/Inc/stm32l4xx_ll_usart.h **** }
 756:/home/barnecle/STM32Cube/Repository/STM32Cube_FW_L4_V1.17.1/Drivers/STM32L4xx_HAL_Driver/Inc/stm32l4xx_ll_usart.h **** 
 757:/home/barnecle/STM32Cube/Repository/STM32Cube_FW_L4_V1.17.1/Drivers/STM32L4xx_HAL_Driver/Inc/stm32l4xx_ll_usart.h **** /**
 758:/home/barnecle/STM32Cube/Repository/STM32Cube_FW_L4_V1.17.1/Drivers/STM32L4xx_HAL_Driver/Inc/stm32l4xx_ll_usart.h ****   * @brief  Configure TX FIFO Threshold
 759:/home/barnecle/STM32Cube/Repository/STM32Cube_FW_L4_V1.17.1/Drivers/STM32L4xx_HAL_Driver/Inc/stm32l4xx_ll_usart.h ****   * @note   Macro IS_UART_FIFO_INSTANCE(USARTx) can be used to check whether or not
 760:/home/barnecle/STM32Cube/Repository/STM32Cube_FW_L4_V1.17.1/Drivers/STM32L4xx_HAL_Driver/Inc/stm32l4xx_ll_usart.h ****   *         FIFO mode feature is supported by the USARTx instance.
 761:/home/barnecle/STM32Cube/Repository/STM32Cube_FW_L4_V1.17.1/Drivers/STM32L4xx_HAL_Driver/Inc/stm32l4xx_ll_usart.h ****   * @rmtoll CR3          TXFTCFG       LL_USART_SetTXFIFOThreshold
 762:/home/barnecle/STM32Cube/Repository/STM32Cube_FW_L4_V1.17.1/Drivers/STM32L4xx_HAL_Driver/Inc/stm32l4xx_ll_usart.h ****   * @param  USARTx USART Instance
 763:/home/barnecle/STM32Cube/Repository/STM32Cube_FW_L4_V1.17.1/Drivers/STM32L4xx_HAL_Driver/Inc/stm32l4xx_ll_usart.h ****   * @param  Threshold This parameter can be one of the following values:
 764:/home/barnecle/STM32Cube/Repository/STM32Cube_FW_L4_V1.17.1/Drivers/STM32L4xx_HAL_Driver/Inc/stm32l4xx_ll_usart.h ****   *         @arg @ref LL_USART_FIFOTHRESHOLD_1_8
 765:/home/barnecle/STM32Cube/Repository/STM32Cube_FW_L4_V1.17.1/Drivers/STM32L4xx_HAL_Driver/Inc/stm32l4xx_ll_usart.h ****   *         @arg @ref LL_USART_FIFOTHRESHOLD_1_4
 766:/home/barnecle/STM32Cube/Repository/STM32Cube_FW_L4_V1.17.1/Drivers/STM32L4xx_HAL_Driver/Inc/stm32l4xx_ll_usart.h ****   *         @arg @ref LL_USART_FIFOTHRESHOLD_1_2
 767:/home/barnecle/STM32Cube/Repository/STM32Cube_FW_L4_V1.17.1/Drivers/STM32L4xx_HAL_Driver/Inc/stm32l4xx_ll_usart.h ****   *         @arg @ref LL_USART_FIFOTHRESHOLD_3_4
 768:/home/barnecle/STM32Cube/Repository/STM32Cube_FW_L4_V1.17.1/Drivers/STM32L4xx_HAL_Driver/Inc/stm32l4xx_ll_usart.h ****   *         @arg @ref LL_USART_FIFOTHRESHOLD_7_8
 769:/home/barnecle/STM32Cube/Repository/STM32Cube_FW_L4_V1.17.1/Drivers/STM32L4xx_HAL_Driver/Inc/stm32l4xx_ll_usart.h ****   *         @arg @ref LL_USART_FIFOTHRESHOLD_8_8
 770:/home/barnecle/STM32Cube/Repository/STM32Cube_FW_L4_V1.17.1/Drivers/STM32L4xx_HAL_Driver/Inc/stm32l4xx_ll_usart.h ****   * @retval None
 771:/home/barnecle/STM32Cube/Repository/STM32Cube_FW_L4_V1.17.1/Drivers/STM32L4xx_HAL_Driver/Inc/stm32l4xx_ll_usart.h ****   */
 772:/home/barnecle/STM32Cube/Repository/STM32Cube_FW_L4_V1.17.1/Drivers/STM32L4xx_HAL_Driver/Inc/stm32l4xx_ll_usart.h **** __STATIC_INLINE void LL_USART_SetTXFIFOThreshold(USART_TypeDef *USARTx, uint32_t Threshold)
 773:/home/barnecle/STM32Cube/Repository/STM32Cube_FW_L4_V1.17.1/Drivers/STM32L4xx_HAL_Driver/Inc/stm32l4xx_ll_usart.h **** {
 774:/home/barnecle/STM32Cube/Repository/STM32Cube_FW_L4_V1.17.1/Drivers/STM32L4xx_HAL_Driver/Inc/stm32l4xx_ll_usart.h ****   ATOMIC_MODIFY_REG(USARTx->CR3, USART_CR3_TXFTCFG, Threshold << USART_CR3_TXFTCFG_Pos);
 775:/home/barnecle/STM32Cube/Repository/STM32Cube_FW_L4_V1.17.1/Drivers/STM32L4xx_HAL_Driver/Inc/stm32l4xx_ll_usart.h **** }
 776:/home/barnecle/STM32Cube/Repository/STM32Cube_FW_L4_V1.17.1/Drivers/STM32L4xx_HAL_Driver/Inc/stm32l4xx_ll_usart.h **** 
 777:/home/barnecle/STM32Cube/Repository/STM32Cube_FW_L4_V1.17.1/Drivers/STM32L4xx_HAL_Driver/Inc/stm32l4xx_ll_usart.h **** /**
 778:/home/barnecle/STM32Cube/Repository/STM32Cube_FW_L4_V1.17.1/Drivers/STM32L4xx_HAL_Driver/Inc/stm32l4xx_ll_usart.h ****   * @brief  Return TX FIFO Threshold Configuration
 779:/home/barnecle/STM32Cube/Repository/STM32Cube_FW_L4_V1.17.1/Drivers/STM32L4xx_HAL_Driver/Inc/stm32l4xx_ll_usart.h ****   * @note   Macro IS_UART_FIFO_INSTANCE(USARTx) can be used to check whether or not
 780:/home/barnecle/STM32Cube/Repository/STM32Cube_FW_L4_V1.17.1/Drivers/STM32L4xx_HAL_Driver/Inc/stm32l4xx_ll_usart.h ****   *         FIFO mode feature is supported by the USARTx instance.
 781:/home/barnecle/STM32Cube/Repository/STM32Cube_FW_L4_V1.17.1/Drivers/STM32L4xx_HAL_Driver/Inc/stm32l4xx_ll_usart.h ****   * @rmtoll CR3          TXFTCFG       LL_USART_GetTXFIFOThreshold
 782:/home/barnecle/STM32Cube/Repository/STM32Cube_FW_L4_V1.17.1/Drivers/STM32L4xx_HAL_Driver/Inc/stm32l4xx_ll_usart.h ****   * @param  USARTx USART Instance
 783:/home/barnecle/STM32Cube/Repository/STM32Cube_FW_L4_V1.17.1/Drivers/STM32L4xx_HAL_Driver/Inc/stm32l4xx_ll_usart.h ****   * @retval Returned value can be one of the following values:
 784:/home/barnecle/STM32Cube/Repository/STM32Cube_FW_L4_V1.17.1/Drivers/STM32L4xx_HAL_Driver/Inc/stm32l4xx_ll_usart.h ****   *         @arg @ref LL_USART_FIFOTHRESHOLD_1_8
 785:/home/barnecle/STM32Cube/Repository/STM32Cube_FW_L4_V1.17.1/Drivers/STM32L4xx_HAL_Driver/Inc/stm32l4xx_ll_usart.h ****   *         @arg @ref LL_USART_FIFOTHRESHOLD_1_4
ARM GAS  /tmp/ccVvGxMz.s 			page 45


 786:/home/barnecle/STM32Cube/Repository/STM32Cube_FW_L4_V1.17.1/Drivers/STM32L4xx_HAL_Driver/Inc/stm32l4xx_ll_usart.h ****   *         @arg @ref LL_USART_FIFOTHRESHOLD_1_2
 787:/home/barnecle/STM32Cube/Repository/STM32Cube_FW_L4_V1.17.1/Drivers/STM32L4xx_HAL_Driver/Inc/stm32l4xx_ll_usart.h ****   *         @arg @ref LL_USART_FIFOTHRESHOLD_3_4
 788:/home/barnecle/STM32Cube/Repository/STM32Cube_FW_L4_V1.17.1/Drivers/STM32L4xx_HAL_Driver/Inc/stm32l4xx_ll_usart.h ****   *         @arg @ref LL_USART_FIFOTHRESHOLD_7_8
 789:/home/barnecle/STM32Cube/Repository/STM32Cube_FW_L4_V1.17.1/Drivers/STM32L4xx_HAL_Driver/Inc/stm32l4xx_ll_usart.h ****   *         @arg @ref LL_USART_FIFOTHRESHOLD_8_8
 790:/home/barnecle/STM32Cube/Repository/STM32Cube_FW_L4_V1.17.1/Drivers/STM32L4xx_HAL_Driver/Inc/stm32l4xx_ll_usart.h ****   */
 791:/home/barnecle/STM32Cube/Repository/STM32Cube_FW_L4_V1.17.1/Drivers/STM32L4xx_HAL_Driver/Inc/stm32l4xx_ll_usart.h **** __STATIC_INLINE uint32_t LL_USART_GetTXFIFOThreshold(USART_TypeDef *USARTx)
 792:/home/barnecle/STM32Cube/Repository/STM32Cube_FW_L4_V1.17.1/Drivers/STM32L4xx_HAL_Driver/Inc/stm32l4xx_ll_usart.h **** {
 793:/home/barnecle/STM32Cube/Repository/STM32Cube_FW_L4_V1.17.1/Drivers/STM32L4xx_HAL_Driver/Inc/stm32l4xx_ll_usart.h ****   return (uint32_t)(READ_BIT(USARTx->CR3, USART_CR3_TXFTCFG) >> USART_CR3_TXFTCFG_Pos);
 794:/home/barnecle/STM32Cube/Repository/STM32Cube_FW_L4_V1.17.1/Drivers/STM32L4xx_HAL_Driver/Inc/stm32l4xx_ll_usart.h **** }
 795:/home/barnecle/STM32Cube/Repository/STM32Cube_FW_L4_V1.17.1/Drivers/STM32L4xx_HAL_Driver/Inc/stm32l4xx_ll_usart.h **** 
 796:/home/barnecle/STM32Cube/Repository/STM32Cube_FW_L4_V1.17.1/Drivers/STM32L4xx_HAL_Driver/Inc/stm32l4xx_ll_usart.h **** /**
 797:/home/barnecle/STM32Cube/Repository/STM32Cube_FW_L4_V1.17.1/Drivers/STM32L4xx_HAL_Driver/Inc/stm32l4xx_ll_usart.h ****   * @brief  Configure RX FIFO Threshold
 798:/home/barnecle/STM32Cube/Repository/STM32Cube_FW_L4_V1.17.1/Drivers/STM32L4xx_HAL_Driver/Inc/stm32l4xx_ll_usart.h ****   * @note   Macro IS_UART_FIFO_INSTANCE(USARTx) can be used to check whether or not
 799:/home/barnecle/STM32Cube/Repository/STM32Cube_FW_L4_V1.17.1/Drivers/STM32L4xx_HAL_Driver/Inc/stm32l4xx_ll_usart.h ****   *         FIFO mode feature is supported by the USARTx instance.
 800:/home/barnecle/STM32Cube/Repository/STM32Cube_FW_L4_V1.17.1/Drivers/STM32L4xx_HAL_Driver/Inc/stm32l4xx_ll_usart.h ****   * @rmtoll CR3          RXFTCFG       LL_USART_SetRXFIFOThreshold
 801:/home/barnecle/STM32Cube/Repository/STM32Cube_FW_L4_V1.17.1/Drivers/STM32L4xx_HAL_Driver/Inc/stm32l4xx_ll_usart.h ****   * @param  USARTx USART Instance
 802:/home/barnecle/STM32Cube/Repository/STM32Cube_FW_L4_V1.17.1/Drivers/STM32L4xx_HAL_Driver/Inc/stm32l4xx_ll_usart.h ****   * @param  Threshold This parameter can be one of the following values:
 803:/home/barnecle/STM32Cube/Repository/STM32Cube_FW_L4_V1.17.1/Drivers/STM32L4xx_HAL_Driver/Inc/stm32l4xx_ll_usart.h ****   *         @arg @ref LL_USART_FIFOTHRESHOLD_1_8
 804:/home/barnecle/STM32Cube/Repository/STM32Cube_FW_L4_V1.17.1/Drivers/STM32L4xx_HAL_Driver/Inc/stm32l4xx_ll_usart.h ****   *         @arg @ref LL_USART_FIFOTHRESHOLD_1_4
 805:/home/barnecle/STM32Cube/Repository/STM32Cube_FW_L4_V1.17.1/Drivers/STM32L4xx_HAL_Driver/Inc/stm32l4xx_ll_usart.h ****   *         @arg @ref LL_USART_FIFOTHRESHOLD_1_2
 806:/home/barnecle/STM32Cube/Repository/STM32Cube_FW_L4_V1.17.1/Drivers/STM32L4xx_HAL_Driver/Inc/stm32l4xx_ll_usart.h ****   *         @arg @ref LL_USART_FIFOTHRESHOLD_3_4
 807:/home/barnecle/STM32Cube/Repository/STM32Cube_FW_L4_V1.17.1/Drivers/STM32L4xx_HAL_Driver/Inc/stm32l4xx_ll_usart.h ****   *         @arg @ref LL_USART_FIFOTHRESHOLD_7_8
 808:/home/barnecle/STM32Cube/Repository/STM32Cube_FW_L4_V1.17.1/Drivers/STM32L4xx_HAL_Driver/Inc/stm32l4xx_ll_usart.h ****   *         @arg @ref LL_USART_FIFOTHRESHOLD_8_8
 809:/home/barnecle/STM32Cube/Repository/STM32Cube_FW_L4_V1.17.1/Drivers/STM32L4xx_HAL_Driver/Inc/stm32l4xx_ll_usart.h ****   * @retval None
 810:/home/barnecle/STM32Cube/Repository/STM32Cube_FW_L4_V1.17.1/Drivers/STM32L4xx_HAL_Driver/Inc/stm32l4xx_ll_usart.h ****   */
 811:/home/barnecle/STM32Cube/Repository/STM32Cube_FW_L4_V1.17.1/Drivers/STM32L4xx_HAL_Driver/Inc/stm32l4xx_ll_usart.h **** __STATIC_INLINE void LL_USART_SetRXFIFOThreshold(USART_TypeDef *USARTx, uint32_t Threshold)
 812:/home/barnecle/STM32Cube/Repository/STM32Cube_FW_L4_V1.17.1/Drivers/STM32L4xx_HAL_Driver/Inc/stm32l4xx_ll_usart.h **** {
 813:/home/barnecle/STM32Cube/Repository/STM32Cube_FW_L4_V1.17.1/Drivers/STM32L4xx_HAL_Driver/Inc/stm32l4xx_ll_usart.h ****   ATOMIC_MODIFY_REG(USARTx->CR3, USART_CR3_RXFTCFG, Threshold << USART_CR3_RXFTCFG_Pos);
 814:/home/barnecle/STM32Cube/Repository/STM32Cube_FW_L4_V1.17.1/Drivers/STM32L4xx_HAL_Driver/Inc/stm32l4xx_ll_usart.h **** }
 815:/home/barnecle/STM32Cube/Repository/STM32Cube_FW_L4_V1.17.1/Drivers/STM32L4xx_HAL_Driver/Inc/stm32l4xx_ll_usart.h **** 
 816:/home/barnecle/STM32Cube/Repository/STM32Cube_FW_L4_V1.17.1/Drivers/STM32L4xx_HAL_Driver/Inc/stm32l4xx_ll_usart.h **** /**
 817:/home/barnecle/STM32Cube/Repository/STM32Cube_FW_L4_V1.17.1/Drivers/STM32L4xx_HAL_Driver/Inc/stm32l4xx_ll_usart.h ****   * @brief  Return RX FIFO Threshold Configuration
 818:/home/barnecle/STM32Cube/Repository/STM32Cube_FW_L4_V1.17.1/Drivers/STM32L4xx_HAL_Driver/Inc/stm32l4xx_ll_usart.h ****   * @note   Macro IS_UART_FIFO_INSTANCE(USARTx) can be used to check whether or not
 819:/home/barnecle/STM32Cube/Repository/STM32Cube_FW_L4_V1.17.1/Drivers/STM32L4xx_HAL_Driver/Inc/stm32l4xx_ll_usart.h ****   *         FIFO mode feature is supported by the USARTx instance.
 820:/home/barnecle/STM32Cube/Repository/STM32Cube_FW_L4_V1.17.1/Drivers/STM32L4xx_HAL_Driver/Inc/stm32l4xx_ll_usart.h ****   * @rmtoll CR3          RXFTCFG       LL_USART_GetRXFIFOThreshold
 821:/home/barnecle/STM32Cube/Repository/STM32Cube_FW_L4_V1.17.1/Drivers/STM32L4xx_HAL_Driver/Inc/stm32l4xx_ll_usart.h ****   * @param  USARTx USART Instance
 822:/home/barnecle/STM32Cube/Repository/STM32Cube_FW_L4_V1.17.1/Drivers/STM32L4xx_HAL_Driver/Inc/stm32l4xx_ll_usart.h ****   * @retval Returned value can be one of the following values:
 823:/home/barnecle/STM32Cube/Repository/STM32Cube_FW_L4_V1.17.1/Drivers/STM32L4xx_HAL_Driver/Inc/stm32l4xx_ll_usart.h ****   *         @arg @ref LL_USART_FIFOTHRESHOLD_1_8
 824:/home/barnecle/STM32Cube/Repository/STM32Cube_FW_L4_V1.17.1/Drivers/STM32L4xx_HAL_Driver/Inc/stm32l4xx_ll_usart.h ****   *         @arg @ref LL_USART_FIFOTHRESHOLD_1_4
 825:/home/barnecle/STM32Cube/Repository/STM32Cube_FW_L4_V1.17.1/Drivers/STM32L4xx_HAL_Driver/Inc/stm32l4xx_ll_usart.h ****   *         @arg @ref LL_USART_FIFOTHRESHOLD_1_2
 826:/home/barnecle/STM32Cube/Repository/STM32Cube_FW_L4_V1.17.1/Drivers/STM32L4xx_HAL_Driver/Inc/stm32l4xx_ll_usart.h ****   *         @arg @ref LL_USART_FIFOTHRESHOLD_3_4
 827:/home/barnecle/STM32Cube/Repository/STM32Cube_FW_L4_V1.17.1/Drivers/STM32L4xx_HAL_Driver/Inc/stm32l4xx_ll_usart.h ****   *         @arg @ref LL_USART_FIFOTHRESHOLD_7_8
 828:/home/barnecle/STM32Cube/Repository/STM32Cube_FW_L4_V1.17.1/Drivers/STM32L4xx_HAL_Driver/Inc/stm32l4xx_ll_usart.h ****   *         @arg @ref LL_USART_FIFOTHRESHOLD_8_8
 829:/home/barnecle/STM32Cube/Repository/STM32Cube_FW_L4_V1.17.1/Drivers/STM32L4xx_HAL_Driver/Inc/stm32l4xx_ll_usart.h ****   */
 830:/home/barnecle/STM32Cube/Repository/STM32Cube_FW_L4_V1.17.1/Drivers/STM32L4xx_HAL_Driver/Inc/stm32l4xx_ll_usart.h **** __STATIC_INLINE uint32_t LL_USART_GetRXFIFOThreshold(USART_TypeDef *USARTx)
 831:/home/barnecle/STM32Cube/Repository/STM32Cube_FW_L4_V1.17.1/Drivers/STM32L4xx_HAL_Driver/Inc/stm32l4xx_ll_usart.h **** {
 832:/home/barnecle/STM32Cube/Repository/STM32Cube_FW_L4_V1.17.1/Drivers/STM32L4xx_HAL_Driver/Inc/stm32l4xx_ll_usart.h ****   return (uint32_t)(READ_BIT(USARTx->CR3, USART_CR3_RXFTCFG) >> USART_CR3_RXFTCFG_Pos);
 833:/home/barnecle/STM32Cube/Repository/STM32Cube_FW_L4_V1.17.1/Drivers/STM32L4xx_HAL_Driver/Inc/stm32l4xx_ll_usart.h **** }
 834:/home/barnecle/STM32Cube/Repository/STM32Cube_FW_L4_V1.17.1/Drivers/STM32L4xx_HAL_Driver/Inc/stm32l4xx_ll_usart.h **** 
 835:/home/barnecle/STM32Cube/Repository/STM32Cube_FW_L4_V1.17.1/Drivers/STM32L4xx_HAL_Driver/Inc/stm32l4xx_ll_usart.h **** /**
 836:/home/barnecle/STM32Cube/Repository/STM32Cube_FW_L4_V1.17.1/Drivers/STM32L4xx_HAL_Driver/Inc/stm32l4xx_ll_usart.h ****   * @brief  Configure TX and RX FIFOs Threshold
 837:/home/barnecle/STM32Cube/Repository/STM32Cube_FW_L4_V1.17.1/Drivers/STM32L4xx_HAL_Driver/Inc/stm32l4xx_ll_usart.h ****   * @note   Macro IS_UART_FIFO_INSTANCE(USARTx) can be used to check whether or not
 838:/home/barnecle/STM32Cube/Repository/STM32Cube_FW_L4_V1.17.1/Drivers/STM32L4xx_HAL_Driver/Inc/stm32l4xx_ll_usart.h ****   *         FIFO mode feature is supported by the USARTx instance.
 839:/home/barnecle/STM32Cube/Repository/STM32Cube_FW_L4_V1.17.1/Drivers/STM32L4xx_HAL_Driver/Inc/stm32l4xx_ll_usart.h ****   * @rmtoll CR3          TXFTCFG       LL_USART_ConfigFIFOsThreshold\n
 840:/home/barnecle/STM32Cube/Repository/STM32Cube_FW_L4_V1.17.1/Drivers/STM32L4xx_HAL_Driver/Inc/stm32l4xx_ll_usart.h ****   *         CR3          RXFTCFG       LL_USART_ConfigFIFOsThreshold
 841:/home/barnecle/STM32Cube/Repository/STM32Cube_FW_L4_V1.17.1/Drivers/STM32L4xx_HAL_Driver/Inc/stm32l4xx_ll_usart.h ****   * @param  USARTx USART Instance
 842:/home/barnecle/STM32Cube/Repository/STM32Cube_FW_L4_V1.17.1/Drivers/STM32L4xx_HAL_Driver/Inc/stm32l4xx_ll_usart.h ****   * @param  TXThreshold This parameter can be one of the following values:
ARM GAS  /tmp/ccVvGxMz.s 			page 46


 843:/home/barnecle/STM32Cube/Repository/STM32Cube_FW_L4_V1.17.1/Drivers/STM32L4xx_HAL_Driver/Inc/stm32l4xx_ll_usart.h ****   *         @arg @ref LL_USART_FIFOTHRESHOLD_1_8
 844:/home/barnecle/STM32Cube/Repository/STM32Cube_FW_L4_V1.17.1/Drivers/STM32L4xx_HAL_Driver/Inc/stm32l4xx_ll_usart.h ****   *         @arg @ref LL_USART_FIFOTHRESHOLD_1_4
 845:/home/barnecle/STM32Cube/Repository/STM32Cube_FW_L4_V1.17.1/Drivers/STM32L4xx_HAL_Driver/Inc/stm32l4xx_ll_usart.h ****   *         @arg @ref LL_USART_FIFOTHRESHOLD_1_2
 846:/home/barnecle/STM32Cube/Repository/STM32Cube_FW_L4_V1.17.1/Drivers/STM32L4xx_HAL_Driver/Inc/stm32l4xx_ll_usart.h ****   *         @arg @ref LL_USART_FIFOTHRESHOLD_3_4
 847:/home/barnecle/STM32Cube/Repository/STM32Cube_FW_L4_V1.17.1/Drivers/STM32L4xx_HAL_Driver/Inc/stm32l4xx_ll_usart.h ****   *         @arg @ref LL_USART_FIFOTHRESHOLD_7_8
 848:/home/barnecle/STM32Cube/Repository/STM32Cube_FW_L4_V1.17.1/Drivers/STM32L4xx_HAL_Driver/Inc/stm32l4xx_ll_usart.h ****   *         @arg @ref LL_USART_FIFOTHRESHOLD_8_8
 849:/home/barnecle/STM32Cube/Repository/STM32Cube_FW_L4_V1.17.1/Drivers/STM32L4xx_HAL_Driver/Inc/stm32l4xx_ll_usart.h ****   * @param  RXThreshold This parameter can be one of the following values:
 850:/home/barnecle/STM32Cube/Repository/STM32Cube_FW_L4_V1.17.1/Drivers/STM32L4xx_HAL_Driver/Inc/stm32l4xx_ll_usart.h ****   *         @arg @ref LL_USART_FIFOTHRESHOLD_1_8
 851:/home/barnecle/STM32Cube/Repository/STM32Cube_FW_L4_V1.17.1/Drivers/STM32L4xx_HAL_Driver/Inc/stm32l4xx_ll_usart.h ****   *         @arg @ref LL_USART_FIFOTHRESHOLD_1_4
 852:/home/barnecle/STM32Cube/Repository/STM32Cube_FW_L4_V1.17.1/Drivers/STM32L4xx_HAL_Driver/Inc/stm32l4xx_ll_usart.h ****   *         @arg @ref LL_USART_FIFOTHRESHOLD_1_2
 853:/home/barnecle/STM32Cube/Repository/STM32Cube_FW_L4_V1.17.1/Drivers/STM32L4xx_HAL_Driver/Inc/stm32l4xx_ll_usart.h ****   *         @arg @ref LL_USART_FIFOTHRESHOLD_3_4
 854:/home/barnecle/STM32Cube/Repository/STM32Cube_FW_L4_V1.17.1/Drivers/STM32L4xx_HAL_Driver/Inc/stm32l4xx_ll_usart.h ****   *         @arg @ref LL_USART_FIFOTHRESHOLD_7_8
 855:/home/barnecle/STM32Cube/Repository/STM32Cube_FW_L4_V1.17.1/Drivers/STM32L4xx_HAL_Driver/Inc/stm32l4xx_ll_usart.h ****   *         @arg @ref LL_USART_FIFOTHRESHOLD_8_8
 856:/home/barnecle/STM32Cube/Repository/STM32Cube_FW_L4_V1.17.1/Drivers/STM32L4xx_HAL_Driver/Inc/stm32l4xx_ll_usart.h ****   * @retval None
 857:/home/barnecle/STM32Cube/Repository/STM32Cube_FW_L4_V1.17.1/Drivers/STM32L4xx_HAL_Driver/Inc/stm32l4xx_ll_usart.h ****   */
 858:/home/barnecle/STM32Cube/Repository/STM32Cube_FW_L4_V1.17.1/Drivers/STM32L4xx_HAL_Driver/Inc/stm32l4xx_ll_usart.h **** __STATIC_INLINE void LL_USART_ConfigFIFOsThreshold(USART_TypeDef *USARTx, uint32_t TXThreshold, uin
 859:/home/barnecle/STM32Cube/Repository/STM32Cube_FW_L4_V1.17.1/Drivers/STM32L4xx_HAL_Driver/Inc/stm32l4xx_ll_usart.h **** {
 860:/home/barnecle/STM32Cube/Repository/STM32Cube_FW_L4_V1.17.1/Drivers/STM32L4xx_HAL_Driver/Inc/stm32l4xx_ll_usart.h ****   ATOMIC_MODIFY_REG(USARTx->CR3, USART_CR3_TXFTCFG | USART_CR3_RXFTCFG, (TXThreshold << USART_CR3_T
 861:/home/barnecle/STM32Cube/Repository/STM32Cube_FW_L4_V1.17.1/Drivers/STM32L4xx_HAL_Driver/Inc/stm32l4xx_ll_usart.h ****                     (RXThreshold << USART_CR3_RXFTCFG_Pos));
 862:/home/barnecle/STM32Cube/Repository/STM32Cube_FW_L4_V1.17.1/Drivers/STM32L4xx_HAL_Driver/Inc/stm32l4xx_ll_usart.h **** }
 863:/home/barnecle/STM32Cube/Repository/STM32Cube_FW_L4_V1.17.1/Drivers/STM32L4xx_HAL_Driver/Inc/stm32l4xx_ll_usart.h **** 
 864:/home/barnecle/STM32Cube/Repository/STM32Cube_FW_L4_V1.17.1/Drivers/STM32L4xx_HAL_Driver/Inc/stm32l4xx_ll_usart.h **** #endif /* USART_CR1_FIFOEN */
 865:/home/barnecle/STM32Cube/Repository/STM32Cube_FW_L4_V1.17.1/Drivers/STM32L4xx_HAL_Driver/Inc/stm32l4xx_ll_usart.h **** /**
 866:/home/barnecle/STM32Cube/Repository/STM32Cube_FW_L4_V1.17.1/Drivers/STM32L4xx_HAL_Driver/Inc/stm32l4xx_ll_usart.h ****   * @brief  USART enabled in STOP Mode.
 867:/home/barnecle/STM32Cube/Repository/STM32Cube_FW_L4_V1.17.1/Drivers/STM32L4xx_HAL_Driver/Inc/stm32l4xx_ll_usart.h ****   * @note   When this function is enabled, USART is able to wake up the MCU from Stop mode, provide
 868:/home/barnecle/STM32Cube/Repository/STM32Cube_FW_L4_V1.17.1/Drivers/STM32L4xx_HAL_Driver/Inc/stm32l4xx_ll_usart.h ****   *         USART clock selection is HSI or LSE in RCC.
 869:/home/barnecle/STM32Cube/Repository/STM32Cube_FW_L4_V1.17.1/Drivers/STM32L4xx_HAL_Driver/Inc/stm32l4xx_ll_usart.h ****   * @note   Macro IS_UART_WAKEUP_FROMSTOP_INSTANCE(USARTx) can be used to check whether or not
 870:/home/barnecle/STM32Cube/Repository/STM32Cube_FW_L4_V1.17.1/Drivers/STM32L4xx_HAL_Driver/Inc/stm32l4xx_ll_usart.h ****   *         Wake-up from Stop mode feature is supported by the USARTx instance.
 871:/home/barnecle/STM32Cube/Repository/STM32Cube_FW_L4_V1.17.1/Drivers/STM32L4xx_HAL_Driver/Inc/stm32l4xx_ll_usart.h ****   * @rmtoll CR1          UESM          LL_USART_EnableInStopMode
 872:/home/barnecle/STM32Cube/Repository/STM32Cube_FW_L4_V1.17.1/Drivers/STM32L4xx_HAL_Driver/Inc/stm32l4xx_ll_usart.h ****   * @param  USARTx USART Instance
 873:/home/barnecle/STM32Cube/Repository/STM32Cube_FW_L4_V1.17.1/Drivers/STM32L4xx_HAL_Driver/Inc/stm32l4xx_ll_usart.h ****   * @retval None
 874:/home/barnecle/STM32Cube/Repository/STM32Cube_FW_L4_V1.17.1/Drivers/STM32L4xx_HAL_Driver/Inc/stm32l4xx_ll_usart.h ****   */
 875:/home/barnecle/STM32Cube/Repository/STM32Cube_FW_L4_V1.17.1/Drivers/STM32L4xx_HAL_Driver/Inc/stm32l4xx_ll_usart.h **** __STATIC_INLINE void LL_USART_EnableInStopMode(USART_TypeDef *USARTx)
 876:/home/barnecle/STM32Cube/Repository/STM32Cube_FW_L4_V1.17.1/Drivers/STM32L4xx_HAL_Driver/Inc/stm32l4xx_ll_usart.h **** {
 877:/home/barnecle/STM32Cube/Repository/STM32Cube_FW_L4_V1.17.1/Drivers/STM32L4xx_HAL_Driver/Inc/stm32l4xx_ll_usart.h ****   ATOMIC_SET_BIT(USARTx->CR1, USART_CR1_UESM);
 878:/home/barnecle/STM32Cube/Repository/STM32Cube_FW_L4_V1.17.1/Drivers/STM32L4xx_HAL_Driver/Inc/stm32l4xx_ll_usart.h **** }
 879:/home/barnecle/STM32Cube/Repository/STM32Cube_FW_L4_V1.17.1/Drivers/STM32L4xx_HAL_Driver/Inc/stm32l4xx_ll_usart.h **** 
 880:/home/barnecle/STM32Cube/Repository/STM32Cube_FW_L4_V1.17.1/Drivers/STM32L4xx_HAL_Driver/Inc/stm32l4xx_ll_usart.h **** /**
 881:/home/barnecle/STM32Cube/Repository/STM32Cube_FW_L4_V1.17.1/Drivers/STM32L4xx_HAL_Driver/Inc/stm32l4xx_ll_usart.h ****   * @brief  USART disabled in STOP Mode.
 882:/home/barnecle/STM32Cube/Repository/STM32Cube_FW_L4_V1.17.1/Drivers/STM32L4xx_HAL_Driver/Inc/stm32l4xx_ll_usart.h ****   * @note   When this function is disabled, USART is not able to wake up the MCU from Stop mode
 883:/home/barnecle/STM32Cube/Repository/STM32Cube_FW_L4_V1.17.1/Drivers/STM32L4xx_HAL_Driver/Inc/stm32l4xx_ll_usart.h ****   * @note   Macro IS_UART_WAKEUP_FROMSTOP_INSTANCE(USARTx) can be used to check whether or not
 884:/home/barnecle/STM32Cube/Repository/STM32Cube_FW_L4_V1.17.1/Drivers/STM32L4xx_HAL_Driver/Inc/stm32l4xx_ll_usart.h ****   *         Wake-up from Stop mode feature is supported by the USARTx instance.
 885:/home/barnecle/STM32Cube/Repository/STM32Cube_FW_L4_V1.17.1/Drivers/STM32L4xx_HAL_Driver/Inc/stm32l4xx_ll_usart.h ****   * @rmtoll CR1          UESM          LL_USART_DisableInStopMode
 886:/home/barnecle/STM32Cube/Repository/STM32Cube_FW_L4_V1.17.1/Drivers/STM32L4xx_HAL_Driver/Inc/stm32l4xx_ll_usart.h ****   * @param  USARTx USART Instance
 887:/home/barnecle/STM32Cube/Repository/STM32Cube_FW_L4_V1.17.1/Drivers/STM32L4xx_HAL_Driver/Inc/stm32l4xx_ll_usart.h ****   * @retval None
 888:/home/barnecle/STM32Cube/Repository/STM32Cube_FW_L4_V1.17.1/Drivers/STM32L4xx_HAL_Driver/Inc/stm32l4xx_ll_usart.h ****   */
 889:/home/barnecle/STM32Cube/Repository/STM32Cube_FW_L4_V1.17.1/Drivers/STM32L4xx_HAL_Driver/Inc/stm32l4xx_ll_usart.h **** __STATIC_INLINE void LL_USART_DisableInStopMode(USART_TypeDef *USARTx)
 890:/home/barnecle/STM32Cube/Repository/STM32Cube_FW_L4_V1.17.1/Drivers/STM32L4xx_HAL_Driver/Inc/stm32l4xx_ll_usart.h **** {
 891:/home/barnecle/STM32Cube/Repository/STM32Cube_FW_L4_V1.17.1/Drivers/STM32L4xx_HAL_Driver/Inc/stm32l4xx_ll_usart.h ****   ATOMIC_CLEAR_BIT(USARTx->CR1, USART_CR1_UESM);
 892:/home/barnecle/STM32Cube/Repository/STM32Cube_FW_L4_V1.17.1/Drivers/STM32L4xx_HAL_Driver/Inc/stm32l4xx_ll_usart.h **** }
 893:/home/barnecle/STM32Cube/Repository/STM32Cube_FW_L4_V1.17.1/Drivers/STM32L4xx_HAL_Driver/Inc/stm32l4xx_ll_usart.h **** 
 894:/home/barnecle/STM32Cube/Repository/STM32Cube_FW_L4_V1.17.1/Drivers/STM32L4xx_HAL_Driver/Inc/stm32l4xx_ll_usart.h **** /**
 895:/home/barnecle/STM32Cube/Repository/STM32Cube_FW_L4_V1.17.1/Drivers/STM32L4xx_HAL_Driver/Inc/stm32l4xx_ll_usart.h ****   * @brief  Indicate if USART is enabled in STOP Mode (able to wake up MCU from Stop mode or not)
 896:/home/barnecle/STM32Cube/Repository/STM32Cube_FW_L4_V1.17.1/Drivers/STM32L4xx_HAL_Driver/Inc/stm32l4xx_ll_usart.h ****   * @note   Macro IS_UART_WAKEUP_FROMSTOP_INSTANCE(USARTx) can be used to check whether or not
 897:/home/barnecle/STM32Cube/Repository/STM32Cube_FW_L4_V1.17.1/Drivers/STM32L4xx_HAL_Driver/Inc/stm32l4xx_ll_usart.h ****   *         Wake-up from Stop mode feature is supported by the USARTx instance.
 898:/home/barnecle/STM32Cube/Repository/STM32Cube_FW_L4_V1.17.1/Drivers/STM32L4xx_HAL_Driver/Inc/stm32l4xx_ll_usart.h ****   * @rmtoll CR1          UESM          LL_USART_IsEnabledInStopMode
 899:/home/barnecle/STM32Cube/Repository/STM32Cube_FW_L4_V1.17.1/Drivers/STM32L4xx_HAL_Driver/Inc/stm32l4xx_ll_usart.h ****   * @param  USARTx USART Instance
ARM GAS  /tmp/ccVvGxMz.s 			page 47


 900:/home/barnecle/STM32Cube/Repository/STM32Cube_FW_L4_V1.17.1/Drivers/STM32L4xx_HAL_Driver/Inc/stm32l4xx_ll_usart.h ****   * @retval State of bit (1 or 0).
 901:/home/barnecle/STM32Cube/Repository/STM32Cube_FW_L4_V1.17.1/Drivers/STM32L4xx_HAL_Driver/Inc/stm32l4xx_ll_usart.h ****   */
 902:/home/barnecle/STM32Cube/Repository/STM32Cube_FW_L4_V1.17.1/Drivers/STM32L4xx_HAL_Driver/Inc/stm32l4xx_ll_usart.h **** __STATIC_INLINE uint32_t LL_USART_IsEnabledInStopMode(USART_TypeDef *USARTx)
 903:/home/barnecle/STM32Cube/Repository/STM32Cube_FW_L4_V1.17.1/Drivers/STM32L4xx_HAL_Driver/Inc/stm32l4xx_ll_usart.h **** {
 904:/home/barnecle/STM32Cube/Repository/STM32Cube_FW_L4_V1.17.1/Drivers/STM32L4xx_HAL_Driver/Inc/stm32l4xx_ll_usart.h ****   return ((READ_BIT(USARTx->CR1, USART_CR1_UESM) == (USART_CR1_UESM)) ? 1UL : 0UL);
 905:/home/barnecle/STM32Cube/Repository/STM32Cube_FW_L4_V1.17.1/Drivers/STM32L4xx_HAL_Driver/Inc/stm32l4xx_ll_usart.h **** }
 906:/home/barnecle/STM32Cube/Repository/STM32Cube_FW_L4_V1.17.1/Drivers/STM32L4xx_HAL_Driver/Inc/stm32l4xx_ll_usart.h **** 
 907:/home/barnecle/STM32Cube/Repository/STM32Cube_FW_L4_V1.17.1/Drivers/STM32L4xx_HAL_Driver/Inc/stm32l4xx_ll_usart.h **** #if defined(USART_CR3_UCESM)
 908:/home/barnecle/STM32Cube/Repository/STM32Cube_FW_L4_V1.17.1/Drivers/STM32L4xx_HAL_Driver/Inc/stm32l4xx_ll_usart.h **** /**
 909:/home/barnecle/STM32Cube/Repository/STM32Cube_FW_L4_V1.17.1/Drivers/STM32L4xx_HAL_Driver/Inc/stm32l4xx_ll_usart.h ****   * @brief  USART Clock enabled in STOP Mode
 910:/home/barnecle/STM32Cube/Repository/STM32Cube_FW_L4_V1.17.1/Drivers/STM32L4xx_HAL_Driver/Inc/stm32l4xx_ll_usart.h ****   * @note   When this function is called, USART Clock is enabled while in STOP mode
 911:/home/barnecle/STM32Cube/Repository/STM32Cube_FW_L4_V1.17.1/Drivers/STM32L4xx_HAL_Driver/Inc/stm32l4xx_ll_usart.h ****   * @rmtoll CR3          UCESM         LL_USART_EnableClockInStopMode
 912:/home/barnecle/STM32Cube/Repository/STM32Cube_FW_L4_V1.17.1/Drivers/STM32L4xx_HAL_Driver/Inc/stm32l4xx_ll_usart.h ****   * @param  USARTx USART Instance
 913:/home/barnecle/STM32Cube/Repository/STM32Cube_FW_L4_V1.17.1/Drivers/STM32L4xx_HAL_Driver/Inc/stm32l4xx_ll_usart.h ****   * @retval None
 914:/home/barnecle/STM32Cube/Repository/STM32Cube_FW_L4_V1.17.1/Drivers/STM32L4xx_HAL_Driver/Inc/stm32l4xx_ll_usart.h ****   */
 915:/home/barnecle/STM32Cube/Repository/STM32Cube_FW_L4_V1.17.1/Drivers/STM32L4xx_HAL_Driver/Inc/stm32l4xx_ll_usart.h **** __STATIC_INLINE void LL_USART_EnableClockInStopMode(USART_TypeDef *USARTx)
 916:/home/barnecle/STM32Cube/Repository/STM32Cube_FW_L4_V1.17.1/Drivers/STM32L4xx_HAL_Driver/Inc/stm32l4xx_ll_usart.h **** {
 917:/home/barnecle/STM32Cube/Repository/STM32Cube_FW_L4_V1.17.1/Drivers/STM32L4xx_HAL_Driver/Inc/stm32l4xx_ll_usart.h ****   ATOMIC_SET_BIT(USARTx->CR3, USART_CR3_UCESM);
 918:/home/barnecle/STM32Cube/Repository/STM32Cube_FW_L4_V1.17.1/Drivers/STM32L4xx_HAL_Driver/Inc/stm32l4xx_ll_usart.h **** }
 919:/home/barnecle/STM32Cube/Repository/STM32Cube_FW_L4_V1.17.1/Drivers/STM32L4xx_HAL_Driver/Inc/stm32l4xx_ll_usart.h **** 
 920:/home/barnecle/STM32Cube/Repository/STM32Cube_FW_L4_V1.17.1/Drivers/STM32L4xx_HAL_Driver/Inc/stm32l4xx_ll_usart.h **** /**
 921:/home/barnecle/STM32Cube/Repository/STM32Cube_FW_L4_V1.17.1/Drivers/STM32L4xx_HAL_Driver/Inc/stm32l4xx_ll_usart.h ****   * @brief  USART clock disabled in STOP Mode
 922:/home/barnecle/STM32Cube/Repository/STM32Cube_FW_L4_V1.17.1/Drivers/STM32L4xx_HAL_Driver/Inc/stm32l4xx_ll_usart.h ****   * @note   When this function is called, USART Clock is disabled while in STOP mode
 923:/home/barnecle/STM32Cube/Repository/STM32Cube_FW_L4_V1.17.1/Drivers/STM32L4xx_HAL_Driver/Inc/stm32l4xx_ll_usart.h ****   * @rmtoll CR3          UCESM         LL_USART_DisableClockInStopMode
 924:/home/barnecle/STM32Cube/Repository/STM32Cube_FW_L4_V1.17.1/Drivers/STM32L4xx_HAL_Driver/Inc/stm32l4xx_ll_usart.h ****   * @param  USARTx USART Instance
