ARM GAS  /tmp/ccNJjxjx.s 			page 1


   1              		.cpu cortex-m4
   2              		.arch armv7e-m
   3              		.fpu fpv4-sp-d16
   4              		.eabi_attribute 27, 1
   5              		.eabi_attribute 28, 1
   6              		.eabi_attribute 20, 1
   7              		.eabi_attribute 21, 1
   8              		.eabi_attribute 23, 3
   9              		.eabi_attribute 24, 1
  10              		.eabi_attribute 25, 1
  11              		.eabi_attribute 26, 1
  12              		.eabi_attribute 30, 1
  13              		.eabi_attribute 34, 1
  14              		.eabi_attribute 18, 4
  15              		.file	"stm32l4xx_hal_pwr_ex.c"
  16              		.text
  17              	.Ltext0:
  18              		.cfi_sections	.debug_frame
  19              		.section	.text.HAL_PWREx_GetVoltageRange,"ax",%progbits
  20              		.align	1
  21              		.global	HAL_PWREx_GetVoltageRange
  22              		.syntax unified
  23              		.thumb
  24              		.thumb_func
  26              	HAL_PWREx_GetVoltageRange:
  27              	.LFB132:
  28              		.file 1 "/home/barnecle/STM32Cube/Repository/STM32Cube_FW_L4_V1.17.1/Drivers/STM32L4xx_HAL_Driver/
   1:/home/barnecle/STM32Cube/Repository/STM32Cube_FW_L4_V1.17.1/Drivers/STM32L4xx_HAL_Driver/Src/stm32l4xx_hal_pwr_ex.c **** /**
   2:/home/barnecle/STM32Cube/Repository/STM32Cube_FW_L4_V1.17.1/Drivers/STM32L4xx_HAL_Driver/Src/stm32l4xx_hal_pwr_ex.c ****   ******************************************************************************
   3:/home/barnecle/STM32Cube/Repository/STM32Cube_FW_L4_V1.17.1/Drivers/STM32L4xx_HAL_Driver/Src/stm32l4xx_hal_pwr_ex.c ****   * @file    stm32l4xx_hal_pwr_ex.c
   4:/home/barnecle/STM32Cube/Repository/STM32Cube_FW_L4_V1.17.1/Drivers/STM32L4xx_HAL_Driver/Src/stm32l4xx_hal_pwr_ex.c ****   * @author  MCD Application Team
   5:/home/barnecle/STM32Cube/Repository/STM32Cube_FW_L4_V1.17.1/Drivers/STM32L4xx_HAL_Driver/Src/stm32l4xx_hal_pwr_ex.c ****   * @brief   Extended PWR HAL module driver.
   6:/home/barnecle/STM32Cube/Repository/STM32Cube_FW_L4_V1.17.1/Drivers/STM32L4xx_HAL_Driver/Src/stm32l4xx_hal_pwr_ex.c ****   *          This file provides firmware functions to manage the following
   7:/home/barnecle/STM32Cube/Repository/STM32Cube_FW_L4_V1.17.1/Drivers/STM32L4xx_HAL_Driver/Src/stm32l4xx_hal_pwr_ex.c ****   *          functionalities of the Power Controller (PWR) peripheral:
   8:/home/barnecle/STM32Cube/Repository/STM32Cube_FW_L4_V1.17.1/Drivers/STM32L4xx_HAL_Driver/Src/stm32l4xx_hal_pwr_ex.c ****   *           + Extended Initialization and de-initialization functions
   9:/home/barnecle/STM32Cube/Repository/STM32Cube_FW_L4_V1.17.1/Drivers/STM32L4xx_HAL_Driver/Src/stm32l4xx_hal_pwr_ex.c ****   *           + Extended Peripheral Control functions
  10:/home/barnecle/STM32Cube/Repository/STM32Cube_FW_L4_V1.17.1/Drivers/STM32L4xx_HAL_Driver/Src/stm32l4xx_hal_pwr_ex.c ****   *
  11:/home/barnecle/STM32Cube/Repository/STM32Cube_FW_L4_V1.17.1/Drivers/STM32L4xx_HAL_Driver/Src/stm32l4xx_hal_pwr_ex.c ****   ******************************************************************************
  12:/home/barnecle/STM32Cube/Repository/STM32Cube_FW_L4_V1.17.1/Drivers/STM32L4xx_HAL_Driver/Src/stm32l4xx_hal_pwr_ex.c ****   * @attention
  13:/home/barnecle/STM32Cube/Repository/STM32Cube_FW_L4_V1.17.1/Drivers/STM32L4xx_HAL_Driver/Src/stm32l4xx_hal_pwr_ex.c ****   *
  14:/home/barnecle/STM32Cube/Repository/STM32Cube_FW_L4_V1.17.1/Drivers/STM32L4xx_HAL_Driver/Src/stm32l4xx_hal_pwr_ex.c ****   * Copyright (c) 2017 STMicroelectronics.
  15:/home/barnecle/STM32Cube/Repository/STM32Cube_FW_L4_V1.17.1/Drivers/STM32L4xx_HAL_Driver/Src/stm32l4xx_hal_pwr_ex.c ****   * All rights reserved.
  16:/home/barnecle/STM32Cube/Repository/STM32Cube_FW_L4_V1.17.1/Drivers/STM32L4xx_HAL_Driver/Src/stm32l4xx_hal_pwr_ex.c ****   *
  17:/home/barnecle/STM32Cube/Repository/STM32Cube_FW_L4_V1.17.1/Drivers/STM32L4xx_HAL_Driver/Src/stm32l4xx_hal_pwr_ex.c ****   * This software is licensed under terms that can be found in the LICENSE file
  18:/home/barnecle/STM32Cube/Repository/STM32Cube_FW_L4_V1.17.1/Drivers/STM32L4xx_HAL_Driver/Src/stm32l4xx_hal_pwr_ex.c ****   * in the root directory of this software component.
  19:/home/barnecle/STM32Cube/Repository/STM32Cube_FW_L4_V1.17.1/Drivers/STM32L4xx_HAL_Driver/Src/stm32l4xx_hal_pwr_ex.c ****   * If no LICENSE file comes with this software, it is provided AS-IS.
  20:/home/barnecle/STM32Cube/Repository/STM32Cube_FW_L4_V1.17.1/Drivers/STM32L4xx_HAL_Driver/Src/stm32l4xx_hal_pwr_ex.c ****   *
  21:/home/barnecle/STM32Cube/Repository/STM32Cube_FW_L4_V1.17.1/Drivers/STM32L4xx_HAL_Driver/Src/stm32l4xx_hal_pwr_ex.c ****   ******************************************************************************
  22:/home/barnecle/STM32Cube/Repository/STM32Cube_FW_L4_V1.17.1/Drivers/STM32L4xx_HAL_Driver/Src/stm32l4xx_hal_pwr_ex.c ****   */
  23:/home/barnecle/STM32Cube/Repository/STM32Cube_FW_L4_V1.17.1/Drivers/STM32L4xx_HAL_Driver/Src/stm32l4xx_hal_pwr_ex.c **** 
  24:/home/barnecle/STM32Cube/Repository/STM32Cube_FW_L4_V1.17.1/Drivers/STM32L4xx_HAL_Driver/Src/stm32l4xx_hal_pwr_ex.c **** /* Includes ------------------------------------------------------------------*/
  25:/home/barnecle/STM32Cube/Repository/STM32Cube_FW_L4_V1.17.1/Drivers/STM32L4xx_HAL_Driver/Src/stm32l4xx_hal_pwr_ex.c **** #include "stm32l4xx_hal.h"
  26:/home/barnecle/STM32Cube/Repository/STM32Cube_FW_L4_V1.17.1/Drivers/STM32L4xx_HAL_Driver/Src/stm32l4xx_hal_pwr_ex.c **** 
  27:/home/barnecle/STM32Cube/Repository/STM32Cube_FW_L4_V1.17.1/Drivers/STM32L4xx_HAL_Driver/Src/stm32l4xx_hal_pwr_ex.c **** /** @addtogroup STM32L4xx_HAL_Driver
  28:/home/barnecle/STM32Cube/Repository/STM32Cube_FW_L4_V1.17.1/Drivers/STM32L4xx_HAL_Driver/Src/stm32l4xx_hal_pwr_ex.c ****   * @{
  29:/home/barnecle/STM32Cube/Repository/STM32Cube_FW_L4_V1.17.1/Drivers/STM32L4xx_HAL_Driver/Src/stm32l4xx_hal_pwr_ex.c ****   */
  30:/home/barnecle/STM32Cube/Repository/STM32Cube_FW_L4_V1.17.1/Drivers/STM32L4xx_HAL_Driver/Src/stm32l4xx_hal_pwr_ex.c **** 
ARM GAS  /tmp/ccNJjxjx.s 			page 2


  31:/home/barnecle/STM32Cube/Repository/STM32Cube_FW_L4_V1.17.1/Drivers/STM32L4xx_HAL_Driver/Src/stm32l4xx_hal_pwr_ex.c **** /** @defgroup PWREx PWREx
  32:/home/barnecle/STM32Cube/Repository/STM32Cube_FW_L4_V1.17.1/Drivers/STM32L4xx_HAL_Driver/Src/stm32l4xx_hal_pwr_ex.c ****   * @brief PWR Extended HAL module driver
  33:/home/barnecle/STM32Cube/Repository/STM32Cube_FW_L4_V1.17.1/Drivers/STM32L4xx_HAL_Driver/Src/stm32l4xx_hal_pwr_ex.c ****   * @{
  34:/home/barnecle/STM32Cube/Repository/STM32Cube_FW_L4_V1.17.1/Drivers/STM32L4xx_HAL_Driver/Src/stm32l4xx_hal_pwr_ex.c ****   */
  35:/home/barnecle/STM32Cube/Repository/STM32Cube_FW_L4_V1.17.1/Drivers/STM32L4xx_HAL_Driver/Src/stm32l4xx_hal_pwr_ex.c **** 
  36:/home/barnecle/STM32Cube/Repository/STM32Cube_FW_L4_V1.17.1/Drivers/STM32L4xx_HAL_Driver/Src/stm32l4xx_hal_pwr_ex.c **** #ifdef HAL_PWR_MODULE_ENABLED
  37:/home/barnecle/STM32Cube/Repository/STM32Cube_FW_L4_V1.17.1/Drivers/STM32L4xx_HAL_Driver/Src/stm32l4xx_hal_pwr_ex.c **** 
  38:/home/barnecle/STM32Cube/Repository/STM32Cube_FW_L4_V1.17.1/Drivers/STM32L4xx_HAL_Driver/Src/stm32l4xx_hal_pwr_ex.c **** /* Private typedef -----------------------------------------------------------*/
  39:/home/barnecle/STM32Cube/Repository/STM32Cube_FW_L4_V1.17.1/Drivers/STM32L4xx_HAL_Driver/Src/stm32l4xx_hal_pwr_ex.c **** /* Private define ------------------------------------------------------------*/
  40:/home/barnecle/STM32Cube/Repository/STM32Cube_FW_L4_V1.17.1/Drivers/STM32L4xx_HAL_Driver/Src/stm32l4xx_hal_pwr_ex.c **** 
  41:/home/barnecle/STM32Cube/Repository/STM32Cube_FW_L4_V1.17.1/Drivers/STM32L4xx_HAL_Driver/Src/stm32l4xx_hal_pwr_ex.c **** #if defined (STM32L412xx) || defined (STM32L422xx) || defined (STM32L431xx) || defined (STM32L432xx
  42:/home/barnecle/STM32Cube/Repository/STM32Cube_FW_L4_V1.17.1/Drivers/STM32L4xx_HAL_Driver/Src/stm32l4xx_hal_pwr_ex.c **** #define PWR_PORTH_AVAILABLE_PINS   ((uint32_t)0x0000000B) /* PH0/PH1/PH3 */
  43:/home/barnecle/STM32Cube/Repository/STM32Cube_FW_L4_V1.17.1/Drivers/STM32L4xx_HAL_Driver/Src/stm32l4xx_hal_pwr_ex.c **** #elif defined (STM32L451xx) || defined (STM32L452xx) || defined (STM32L462xx)
  44:/home/barnecle/STM32Cube/Repository/STM32Cube_FW_L4_V1.17.1/Drivers/STM32L4xx_HAL_Driver/Src/stm32l4xx_hal_pwr_ex.c **** #define PWR_PORTH_AVAILABLE_PINS   ((uint32_t)0x0000000B) /* PH0/PH1/PH3 */
  45:/home/barnecle/STM32Cube/Repository/STM32Cube_FW_L4_V1.17.1/Drivers/STM32L4xx_HAL_Driver/Src/stm32l4xx_hal_pwr_ex.c **** #elif defined (STM32L471xx) || defined (STM32L475xx) || defined (STM32L476xx) || defined (STM32L485
  46:/home/barnecle/STM32Cube/Repository/STM32Cube_FW_L4_V1.17.1/Drivers/STM32L4xx_HAL_Driver/Src/stm32l4xx_hal_pwr_ex.c **** #define PWR_PORTH_AVAILABLE_PINS   ((uint32_t)0x00000003) /* PH0/PH1 */
  47:/home/barnecle/STM32Cube/Repository/STM32Cube_FW_L4_V1.17.1/Drivers/STM32L4xx_HAL_Driver/Src/stm32l4xx_hal_pwr_ex.c **** #elif defined (STM32L496xx) || defined (STM32L4A6xx) || defined (STM32L4P5xx) || defined (STM32L4Q5
  48:/home/barnecle/STM32Cube/Repository/STM32Cube_FW_L4_V1.17.1/Drivers/STM32L4xx_HAL_Driver/Src/stm32l4xx_hal_pwr_ex.c **** #define PWR_PORTH_AVAILABLE_PINS   ((uint32_t)0x0000FFFF) /* PH0..PH15 */
  49:/home/barnecle/STM32Cube/Repository/STM32Cube_FW_L4_V1.17.1/Drivers/STM32L4xx_HAL_Driver/Src/stm32l4xx_hal_pwr_ex.c **** #endif
  50:/home/barnecle/STM32Cube/Repository/STM32Cube_FW_L4_V1.17.1/Drivers/STM32L4xx_HAL_Driver/Src/stm32l4xx_hal_pwr_ex.c **** 
  51:/home/barnecle/STM32Cube/Repository/STM32Cube_FW_L4_V1.17.1/Drivers/STM32L4xx_HAL_Driver/Src/stm32l4xx_hal_pwr_ex.c **** #if defined (STM32L496xx) || defined (STM32L4A6xx) || defined (STM32L4P5xx) || defined (STM32L4Q5xx
  52:/home/barnecle/STM32Cube/Repository/STM32Cube_FW_L4_V1.17.1/Drivers/STM32L4xx_HAL_Driver/Src/stm32l4xx_hal_pwr_ex.c **** #define PWR_PORTI_AVAILABLE_PINS   ((uint32_t)0x00000FFF) /* PI0..PI11 */
  53:/home/barnecle/STM32Cube/Repository/STM32Cube_FW_L4_V1.17.1/Drivers/STM32L4xx_HAL_Driver/Src/stm32l4xx_hal_pwr_ex.c **** #endif
  54:/home/barnecle/STM32Cube/Repository/STM32Cube_FW_L4_V1.17.1/Drivers/STM32L4xx_HAL_Driver/Src/stm32l4xx_hal_pwr_ex.c **** 
  55:/home/barnecle/STM32Cube/Repository/STM32Cube_FW_L4_V1.17.1/Drivers/STM32L4xx_HAL_Driver/Src/stm32l4xx_hal_pwr_ex.c **** /** @defgroup PWR_Extended_Private_Defines PWR Extended Private Defines
  56:/home/barnecle/STM32Cube/Repository/STM32Cube_FW_L4_V1.17.1/Drivers/STM32L4xx_HAL_Driver/Src/stm32l4xx_hal_pwr_ex.c ****   * @{
  57:/home/barnecle/STM32Cube/Repository/STM32Cube_FW_L4_V1.17.1/Drivers/STM32L4xx_HAL_Driver/Src/stm32l4xx_hal_pwr_ex.c ****   */
  58:/home/barnecle/STM32Cube/Repository/STM32Cube_FW_L4_V1.17.1/Drivers/STM32L4xx_HAL_Driver/Src/stm32l4xx_hal_pwr_ex.c **** 
  59:/home/barnecle/STM32Cube/Repository/STM32Cube_FW_L4_V1.17.1/Drivers/STM32L4xx_HAL_Driver/Src/stm32l4xx_hal_pwr_ex.c **** /** @defgroup PWREx_PVM_Mode_Mask PWR PVM Mode Mask
  60:/home/barnecle/STM32Cube/Repository/STM32Cube_FW_L4_V1.17.1/Drivers/STM32L4xx_HAL_Driver/Src/stm32l4xx_hal_pwr_ex.c ****   * @{
  61:/home/barnecle/STM32Cube/Repository/STM32Cube_FW_L4_V1.17.1/Drivers/STM32L4xx_HAL_Driver/Src/stm32l4xx_hal_pwr_ex.c ****   */
  62:/home/barnecle/STM32Cube/Repository/STM32Cube_FW_L4_V1.17.1/Drivers/STM32L4xx_HAL_Driver/Src/stm32l4xx_hal_pwr_ex.c **** #define PVM_MODE_IT               ((uint32_t)0x00010000)  /*!< Mask for interruption yielded by PVM
  63:/home/barnecle/STM32Cube/Repository/STM32Cube_FW_L4_V1.17.1/Drivers/STM32L4xx_HAL_Driver/Src/stm32l4xx_hal_pwr_ex.c **** #define PVM_MODE_EVT              ((uint32_t)0x00020000)  /*!< Mask for event yielded by PVM thresh
  64:/home/barnecle/STM32Cube/Repository/STM32Cube_FW_L4_V1.17.1/Drivers/STM32L4xx_HAL_Driver/Src/stm32l4xx_hal_pwr_ex.c **** #define PVM_RISING_EDGE           ((uint32_t)0x00000001)  /*!< Mask for rising edge set as PVM trig
  65:/home/barnecle/STM32Cube/Repository/STM32Cube_FW_L4_V1.17.1/Drivers/STM32L4xx_HAL_Driver/Src/stm32l4xx_hal_pwr_ex.c **** #define PVM_FALLING_EDGE          ((uint32_t)0x00000002)  /*!< Mask for falling edge set as PVM tri
  66:/home/barnecle/STM32Cube/Repository/STM32Cube_FW_L4_V1.17.1/Drivers/STM32L4xx_HAL_Driver/Src/stm32l4xx_hal_pwr_ex.c **** /**
  67:/home/barnecle/STM32Cube/Repository/STM32Cube_FW_L4_V1.17.1/Drivers/STM32L4xx_HAL_Driver/Src/stm32l4xx_hal_pwr_ex.c ****   * @}
  68:/home/barnecle/STM32Cube/Repository/STM32Cube_FW_L4_V1.17.1/Drivers/STM32L4xx_HAL_Driver/Src/stm32l4xx_hal_pwr_ex.c ****   */
  69:/home/barnecle/STM32Cube/Repository/STM32Cube_FW_L4_V1.17.1/Drivers/STM32L4xx_HAL_Driver/Src/stm32l4xx_hal_pwr_ex.c **** 
  70:/home/barnecle/STM32Cube/Repository/STM32Cube_FW_L4_V1.17.1/Drivers/STM32L4xx_HAL_Driver/Src/stm32l4xx_hal_pwr_ex.c **** /** @defgroup PWREx_TimeOut_Value PWR Extended Flag Setting Time Out Value
  71:/home/barnecle/STM32Cube/Repository/STM32Cube_FW_L4_V1.17.1/Drivers/STM32L4xx_HAL_Driver/Src/stm32l4xx_hal_pwr_ex.c ****   * @{
  72:/home/barnecle/STM32Cube/Repository/STM32Cube_FW_L4_V1.17.1/Drivers/STM32L4xx_HAL_Driver/Src/stm32l4xx_hal_pwr_ex.c ****   */
  73:/home/barnecle/STM32Cube/Repository/STM32Cube_FW_L4_V1.17.1/Drivers/STM32L4xx_HAL_Driver/Src/stm32l4xx_hal_pwr_ex.c **** #define PWR_FLAG_SETTING_DELAY_US                      50UL   /*!< Time out value for REGLPF and VO
  74:/home/barnecle/STM32Cube/Repository/STM32Cube_FW_L4_V1.17.1/Drivers/STM32L4xx_HAL_Driver/Src/stm32l4xx_hal_pwr_ex.c **** /**
  75:/home/barnecle/STM32Cube/Repository/STM32Cube_FW_L4_V1.17.1/Drivers/STM32L4xx_HAL_Driver/Src/stm32l4xx_hal_pwr_ex.c ****   * @}
  76:/home/barnecle/STM32Cube/Repository/STM32Cube_FW_L4_V1.17.1/Drivers/STM32L4xx_HAL_Driver/Src/stm32l4xx_hal_pwr_ex.c ****   */
  77:/home/barnecle/STM32Cube/Repository/STM32Cube_FW_L4_V1.17.1/Drivers/STM32L4xx_HAL_Driver/Src/stm32l4xx_hal_pwr_ex.c **** 
  78:/home/barnecle/STM32Cube/Repository/STM32Cube_FW_L4_V1.17.1/Drivers/STM32L4xx_HAL_Driver/Src/stm32l4xx_hal_pwr_ex.c **** 
  79:/home/barnecle/STM32Cube/Repository/STM32Cube_FW_L4_V1.17.1/Drivers/STM32L4xx_HAL_Driver/Src/stm32l4xx_hal_pwr_ex.c **** 
  80:/home/barnecle/STM32Cube/Repository/STM32Cube_FW_L4_V1.17.1/Drivers/STM32L4xx_HAL_Driver/Src/stm32l4xx_hal_pwr_ex.c **** /**
  81:/home/barnecle/STM32Cube/Repository/STM32Cube_FW_L4_V1.17.1/Drivers/STM32L4xx_HAL_Driver/Src/stm32l4xx_hal_pwr_ex.c ****   * @}
  82:/home/barnecle/STM32Cube/Repository/STM32Cube_FW_L4_V1.17.1/Drivers/STM32L4xx_HAL_Driver/Src/stm32l4xx_hal_pwr_ex.c ****   */
  83:/home/barnecle/STM32Cube/Repository/STM32Cube_FW_L4_V1.17.1/Drivers/STM32L4xx_HAL_Driver/Src/stm32l4xx_hal_pwr_ex.c **** 
  84:/home/barnecle/STM32Cube/Repository/STM32Cube_FW_L4_V1.17.1/Drivers/STM32L4xx_HAL_Driver/Src/stm32l4xx_hal_pwr_ex.c **** 
  85:/home/barnecle/STM32Cube/Repository/STM32Cube_FW_L4_V1.17.1/Drivers/STM32L4xx_HAL_Driver/Src/stm32l4xx_hal_pwr_ex.c **** 
  86:/home/barnecle/STM32Cube/Repository/STM32Cube_FW_L4_V1.17.1/Drivers/STM32L4xx_HAL_Driver/Src/stm32l4xx_hal_pwr_ex.c **** /* Private macro -------------------------------------------------------------*/
  87:/home/barnecle/STM32Cube/Repository/STM32Cube_FW_L4_V1.17.1/Drivers/STM32L4xx_HAL_Driver/Src/stm32l4xx_hal_pwr_ex.c **** /* Private variables ---------------------------------------------------------*/
ARM GAS  /tmp/ccNJjxjx.s 			page 3


  88:/home/barnecle/STM32Cube/Repository/STM32Cube_FW_L4_V1.17.1/Drivers/STM32L4xx_HAL_Driver/Src/stm32l4xx_hal_pwr_ex.c **** /* Private function prototypes -----------------------------------------------*/
  89:/home/barnecle/STM32Cube/Repository/STM32Cube_FW_L4_V1.17.1/Drivers/STM32L4xx_HAL_Driver/Src/stm32l4xx_hal_pwr_ex.c **** /* Exported functions --------------------------------------------------------*/
  90:/home/barnecle/STM32Cube/Repository/STM32Cube_FW_L4_V1.17.1/Drivers/STM32L4xx_HAL_Driver/Src/stm32l4xx_hal_pwr_ex.c **** 
  91:/home/barnecle/STM32Cube/Repository/STM32Cube_FW_L4_V1.17.1/Drivers/STM32L4xx_HAL_Driver/Src/stm32l4xx_hal_pwr_ex.c **** /** @defgroup PWREx_Exported_Functions PWR Extended Exported Functions
  92:/home/barnecle/STM32Cube/Repository/STM32Cube_FW_L4_V1.17.1/Drivers/STM32L4xx_HAL_Driver/Src/stm32l4xx_hal_pwr_ex.c ****   * @{
  93:/home/barnecle/STM32Cube/Repository/STM32Cube_FW_L4_V1.17.1/Drivers/STM32L4xx_HAL_Driver/Src/stm32l4xx_hal_pwr_ex.c ****   */
  94:/home/barnecle/STM32Cube/Repository/STM32Cube_FW_L4_V1.17.1/Drivers/STM32L4xx_HAL_Driver/Src/stm32l4xx_hal_pwr_ex.c **** 
  95:/home/barnecle/STM32Cube/Repository/STM32Cube_FW_L4_V1.17.1/Drivers/STM32L4xx_HAL_Driver/Src/stm32l4xx_hal_pwr_ex.c **** /** @defgroup PWREx_Exported_Functions_Group1 Extended Peripheral Control functions
  96:/home/barnecle/STM32Cube/Repository/STM32Cube_FW_L4_V1.17.1/Drivers/STM32L4xx_HAL_Driver/Src/stm32l4xx_hal_pwr_ex.c ****   *  @brief   Extended Peripheral Control functions
  97:/home/barnecle/STM32Cube/Repository/STM32Cube_FW_L4_V1.17.1/Drivers/STM32L4xx_HAL_Driver/Src/stm32l4xx_hal_pwr_ex.c ****   *
  98:/home/barnecle/STM32Cube/Repository/STM32Cube_FW_L4_V1.17.1/Drivers/STM32L4xx_HAL_Driver/Src/stm32l4xx_hal_pwr_ex.c **** @verbatim
  99:/home/barnecle/STM32Cube/Repository/STM32Cube_FW_L4_V1.17.1/Drivers/STM32L4xx_HAL_Driver/Src/stm32l4xx_hal_pwr_ex.c ****  ===============================================================================
 100:/home/barnecle/STM32Cube/Repository/STM32Cube_FW_L4_V1.17.1/Drivers/STM32L4xx_HAL_Driver/Src/stm32l4xx_hal_pwr_ex.c ****               ##### Extended Peripheral Initialization and de-initialization functions #####
 101:/home/barnecle/STM32Cube/Repository/STM32Cube_FW_L4_V1.17.1/Drivers/STM32L4xx_HAL_Driver/Src/stm32l4xx_hal_pwr_ex.c ****  ===============================================================================
 102:/home/barnecle/STM32Cube/Repository/STM32Cube_FW_L4_V1.17.1/Drivers/STM32L4xx_HAL_Driver/Src/stm32l4xx_hal_pwr_ex.c ****     [..]
 103:/home/barnecle/STM32Cube/Repository/STM32Cube_FW_L4_V1.17.1/Drivers/STM32L4xx_HAL_Driver/Src/stm32l4xx_hal_pwr_ex.c **** 
 104:/home/barnecle/STM32Cube/Repository/STM32Cube_FW_L4_V1.17.1/Drivers/STM32L4xx_HAL_Driver/Src/stm32l4xx_hal_pwr_ex.c **** @endverbatim
 105:/home/barnecle/STM32Cube/Repository/STM32Cube_FW_L4_V1.17.1/Drivers/STM32L4xx_HAL_Driver/Src/stm32l4xx_hal_pwr_ex.c ****   * @{
 106:/home/barnecle/STM32Cube/Repository/STM32Cube_FW_L4_V1.17.1/Drivers/STM32L4xx_HAL_Driver/Src/stm32l4xx_hal_pwr_ex.c ****   */
 107:/home/barnecle/STM32Cube/Repository/STM32Cube_FW_L4_V1.17.1/Drivers/STM32L4xx_HAL_Driver/Src/stm32l4xx_hal_pwr_ex.c **** 
 108:/home/barnecle/STM32Cube/Repository/STM32Cube_FW_L4_V1.17.1/Drivers/STM32L4xx_HAL_Driver/Src/stm32l4xx_hal_pwr_ex.c **** 
 109:/home/barnecle/STM32Cube/Repository/STM32Cube_FW_L4_V1.17.1/Drivers/STM32L4xx_HAL_Driver/Src/stm32l4xx_hal_pwr_ex.c **** /**
 110:/home/barnecle/STM32Cube/Repository/STM32Cube_FW_L4_V1.17.1/Drivers/STM32L4xx_HAL_Driver/Src/stm32l4xx_hal_pwr_ex.c ****   * @brief Return Voltage Scaling Range.
 111:/home/barnecle/STM32Cube/Repository/STM32Cube_FW_L4_V1.17.1/Drivers/STM32L4xx_HAL_Driver/Src/stm32l4xx_hal_pwr_ex.c ****   * @retval VOS bit field (PWR_REGULATOR_VOLTAGE_SCALE1 or PWR_REGULATOR_VOLTAGE_SCALE2
 112:/home/barnecle/STM32Cube/Repository/STM32Cube_FW_L4_V1.17.1/Drivers/STM32L4xx_HAL_Driver/Src/stm32l4xx_hal_pwr_ex.c ****   *         or PWR_REGULATOR_VOLTAGE_SCALE1_BOOST when applicable)
 113:/home/barnecle/STM32Cube/Repository/STM32Cube_FW_L4_V1.17.1/Drivers/STM32L4xx_HAL_Driver/Src/stm32l4xx_hal_pwr_ex.c ****   */
 114:/home/barnecle/STM32Cube/Repository/STM32Cube_FW_L4_V1.17.1/Drivers/STM32L4xx_HAL_Driver/Src/stm32l4xx_hal_pwr_ex.c **** uint32_t HAL_PWREx_GetVoltageRange(void)
 115:/home/barnecle/STM32Cube/Repository/STM32Cube_FW_L4_V1.17.1/Drivers/STM32L4xx_HAL_Driver/Src/stm32l4xx_hal_pwr_ex.c **** {
  29              		.loc 1 115 1 view -0
  30              		.cfi_startproc
  31              		@ args = 0, pretend = 0, frame = 0
  32              		@ frame_needed = 0, uses_anonymous_args = 0
  33              		@ link register save eliminated.
 116:/home/barnecle/STM32Cube/Repository/STM32Cube_FW_L4_V1.17.1/Drivers/STM32L4xx_HAL_Driver/Src/stm32l4xx_hal_pwr_ex.c **** #if defined(PWR_CR5_R1MODE)
 117:/home/barnecle/STM32Cube/Repository/STM32Cube_FW_L4_V1.17.1/Drivers/STM32L4xx_HAL_Driver/Src/stm32l4xx_hal_pwr_ex.c ****     if (READ_BIT(PWR->CR1, PWR_CR1_VOS) == PWR_REGULATOR_VOLTAGE_SCALE2)
 118:/home/barnecle/STM32Cube/Repository/STM32Cube_FW_L4_V1.17.1/Drivers/STM32L4xx_HAL_Driver/Src/stm32l4xx_hal_pwr_ex.c ****     {
 119:/home/barnecle/STM32Cube/Repository/STM32Cube_FW_L4_V1.17.1/Drivers/STM32L4xx_HAL_Driver/Src/stm32l4xx_hal_pwr_ex.c ****       return PWR_REGULATOR_VOLTAGE_SCALE2;
 120:/home/barnecle/STM32Cube/Repository/STM32Cube_FW_L4_V1.17.1/Drivers/STM32L4xx_HAL_Driver/Src/stm32l4xx_hal_pwr_ex.c ****     }
 121:/home/barnecle/STM32Cube/Repository/STM32Cube_FW_L4_V1.17.1/Drivers/STM32L4xx_HAL_Driver/Src/stm32l4xx_hal_pwr_ex.c ****     else if (READ_BIT(PWR->CR5, PWR_CR5_R1MODE) == PWR_CR5_R1MODE)
 122:/home/barnecle/STM32Cube/Repository/STM32Cube_FW_L4_V1.17.1/Drivers/STM32L4xx_HAL_Driver/Src/stm32l4xx_hal_pwr_ex.c ****     {
 123:/home/barnecle/STM32Cube/Repository/STM32Cube_FW_L4_V1.17.1/Drivers/STM32L4xx_HAL_Driver/Src/stm32l4xx_hal_pwr_ex.c ****       /* PWR_CR5_R1MODE bit set means that Range 1 Boost is disabled */
 124:/home/barnecle/STM32Cube/Repository/STM32Cube_FW_L4_V1.17.1/Drivers/STM32L4xx_HAL_Driver/Src/stm32l4xx_hal_pwr_ex.c ****       return PWR_REGULATOR_VOLTAGE_SCALE1;
 125:/home/barnecle/STM32Cube/Repository/STM32Cube_FW_L4_V1.17.1/Drivers/STM32L4xx_HAL_Driver/Src/stm32l4xx_hal_pwr_ex.c ****     }
 126:/home/barnecle/STM32Cube/Repository/STM32Cube_FW_L4_V1.17.1/Drivers/STM32L4xx_HAL_Driver/Src/stm32l4xx_hal_pwr_ex.c ****     else
 127:/home/barnecle/STM32Cube/Repository/STM32Cube_FW_L4_V1.17.1/Drivers/STM32L4xx_HAL_Driver/Src/stm32l4xx_hal_pwr_ex.c ****     {
 128:/home/barnecle/STM32Cube/Repository/STM32Cube_FW_L4_V1.17.1/Drivers/STM32L4xx_HAL_Driver/Src/stm32l4xx_hal_pwr_ex.c ****       return PWR_REGULATOR_VOLTAGE_SCALE1_BOOST;
 129:/home/barnecle/STM32Cube/Repository/STM32Cube_FW_L4_V1.17.1/Drivers/STM32L4xx_HAL_Driver/Src/stm32l4xx_hal_pwr_ex.c ****     }
 130:/home/barnecle/STM32Cube/Repository/STM32Cube_FW_L4_V1.17.1/Drivers/STM32L4xx_HAL_Driver/Src/stm32l4xx_hal_pwr_ex.c **** #else
 131:/home/barnecle/STM32Cube/Repository/STM32Cube_FW_L4_V1.17.1/Drivers/STM32L4xx_HAL_Driver/Src/stm32l4xx_hal_pwr_ex.c ****   return  (PWR->CR1 & PWR_CR1_VOS);
  34              		.loc 1 131 3 view .LVU1
  35              		.loc 1 131 15 is_stmt 0 view .LVU2
  36 0000 024B     		ldr	r3, .L2
  37 0002 1868     		ldr	r0, [r3]
 132:/home/barnecle/STM32Cube/Repository/STM32Cube_FW_L4_V1.17.1/Drivers/STM32L4xx_HAL_Driver/Src/stm32l4xx_hal_pwr_ex.c **** #endif
 133:/home/barnecle/STM32Cube/Repository/STM32Cube_FW_L4_V1.17.1/Drivers/STM32L4xx_HAL_Driver/Src/stm32l4xx_hal_pwr_ex.c **** }
  38              		.loc 1 133 1 view .LVU3
  39 0004 00F4C060 		and	r0, r0, #1536
ARM GAS  /tmp/ccNJjxjx.s 			page 4


  40 0008 7047     		bx	lr
  41              	.L3:
  42 000a 00BF     		.align	2
  43              	.L2:
  44 000c 00700040 		.word	1073770496
  45              		.cfi_endproc
  46              	.LFE132:
  48              		.section	.text.HAL_PWREx_ControlVoltageScaling,"ax",%progbits
  49              		.align	1
  50              		.global	HAL_PWREx_ControlVoltageScaling
  51              		.syntax unified
  52              		.thumb
  53              		.thumb_func
  55              	HAL_PWREx_ControlVoltageScaling:
  56              	.LVL0:
  57              	.LFB133:
 134:/home/barnecle/STM32Cube/Repository/STM32Cube_FW_L4_V1.17.1/Drivers/STM32L4xx_HAL_Driver/Src/stm32l4xx_hal_pwr_ex.c **** 
 135:/home/barnecle/STM32Cube/Repository/STM32Cube_FW_L4_V1.17.1/Drivers/STM32L4xx_HAL_Driver/Src/stm32l4xx_hal_pwr_ex.c **** 
 136:/home/barnecle/STM32Cube/Repository/STM32Cube_FW_L4_V1.17.1/Drivers/STM32L4xx_HAL_Driver/Src/stm32l4xx_hal_pwr_ex.c **** 
 137:/home/barnecle/STM32Cube/Repository/STM32Cube_FW_L4_V1.17.1/Drivers/STM32L4xx_HAL_Driver/Src/stm32l4xx_hal_pwr_ex.c **** /**
 138:/home/barnecle/STM32Cube/Repository/STM32Cube_FW_L4_V1.17.1/Drivers/STM32L4xx_HAL_Driver/Src/stm32l4xx_hal_pwr_ex.c ****   * @brief Configure the main internal regulator output voltage.
 139:/home/barnecle/STM32Cube/Repository/STM32Cube_FW_L4_V1.17.1/Drivers/STM32L4xx_HAL_Driver/Src/stm32l4xx_hal_pwr_ex.c ****   * @param  VoltageScaling specifies the regulator output voltage to achieve
 140:/home/barnecle/STM32Cube/Repository/STM32Cube_FW_L4_V1.17.1/Drivers/STM32L4xx_HAL_Driver/Src/stm32l4xx_hal_pwr_ex.c ****   *         a tradeoff between performance and power consumption.
 141:/home/barnecle/STM32Cube/Repository/STM32Cube_FW_L4_V1.17.1/Drivers/STM32L4xx_HAL_Driver/Src/stm32l4xx_hal_pwr_ex.c ****   *          This parameter can be one of the following values:
 142:/home/barnecle/STM32Cube/Repository/STM32Cube_FW_L4_V1.17.1/Drivers/STM32L4xx_HAL_Driver/Src/stm32l4xx_hal_pwr_ex.c ****   @if STM32L4S9xx
 143:/home/barnecle/STM32Cube/Repository/STM32Cube_FW_L4_V1.17.1/Drivers/STM32L4xx_HAL_Driver/Src/stm32l4xx_hal_pwr_ex.c ****   *            @arg @ref PWR_REGULATOR_VOLTAGE_SCALE1_BOOST when available, Regulator voltage outpu
 144:/home/barnecle/STM32Cube/Repository/STM32Cube_FW_L4_V1.17.1/Drivers/STM32L4xx_HAL_Driver/Src/stm32l4xx_hal_pwr_ex.c ****   *                                                typical output voltage at 1.2 V,
 145:/home/barnecle/STM32Cube/Repository/STM32Cube_FW_L4_V1.17.1/Drivers/STM32L4xx_HAL_Driver/Src/stm32l4xx_hal_pwr_ex.c ****   *                                                system frequency up to 120 MHz.
 146:/home/barnecle/STM32Cube/Repository/STM32Cube_FW_L4_V1.17.1/Drivers/STM32L4xx_HAL_Driver/Src/stm32l4xx_hal_pwr_ex.c ****   @endif
 147:/home/barnecle/STM32Cube/Repository/STM32Cube_FW_L4_V1.17.1/Drivers/STM32L4xx_HAL_Driver/Src/stm32l4xx_hal_pwr_ex.c ****   *            @arg @ref PWR_REGULATOR_VOLTAGE_SCALE1 Regulator voltage output range 1 mode,
 148:/home/barnecle/STM32Cube/Repository/STM32Cube_FW_L4_V1.17.1/Drivers/STM32L4xx_HAL_Driver/Src/stm32l4xx_hal_pwr_ex.c ****   *                                                typical output voltage at 1.2 V,
 149:/home/barnecle/STM32Cube/Repository/STM32Cube_FW_L4_V1.17.1/Drivers/STM32L4xx_HAL_Driver/Src/stm32l4xx_hal_pwr_ex.c ****   *                                                system frequency up to 80 MHz.
 150:/home/barnecle/STM32Cube/Repository/STM32Cube_FW_L4_V1.17.1/Drivers/STM32L4xx_HAL_Driver/Src/stm32l4xx_hal_pwr_ex.c ****   *            @arg @ref PWR_REGULATOR_VOLTAGE_SCALE2 Regulator voltage output range 2 mode,
 151:/home/barnecle/STM32Cube/Repository/STM32Cube_FW_L4_V1.17.1/Drivers/STM32L4xx_HAL_Driver/Src/stm32l4xx_hal_pwr_ex.c ****   *                                                typical output voltage at 1.0 V,
 152:/home/barnecle/STM32Cube/Repository/STM32Cube_FW_L4_V1.17.1/Drivers/STM32L4xx_HAL_Driver/Src/stm32l4xx_hal_pwr_ex.c ****   *                                                system frequency up to 26 MHz.
 153:/home/barnecle/STM32Cube/Repository/STM32Cube_FW_L4_V1.17.1/Drivers/STM32L4xx_HAL_Driver/Src/stm32l4xx_hal_pwr_ex.c ****   * @note  When moving from Range 1 to Range 2, the system frequency must be decreased to
 154:/home/barnecle/STM32Cube/Repository/STM32Cube_FW_L4_V1.17.1/Drivers/STM32L4xx_HAL_Driver/Src/stm32l4xx_hal_pwr_ex.c ****   *        a value below 26 MHz before calling HAL_PWREx_ControlVoltageScaling() API.
 155:/home/barnecle/STM32Cube/Repository/STM32Cube_FW_L4_V1.17.1/Drivers/STM32L4xx_HAL_Driver/Src/stm32l4xx_hal_pwr_ex.c ****   *        When moving from Range 2 to Range 1, the system frequency can be increased to
 156:/home/barnecle/STM32Cube/Repository/STM32Cube_FW_L4_V1.17.1/Drivers/STM32L4xx_HAL_Driver/Src/stm32l4xx_hal_pwr_ex.c ****   *        a value up to 80 MHz after calling HAL_PWREx_ControlVoltageScaling() API. For
 157:/home/barnecle/STM32Cube/Repository/STM32Cube_FW_L4_V1.17.1/Drivers/STM32L4xx_HAL_Driver/Src/stm32l4xx_hal_pwr_ex.c ****   *        some devices, the system frequency can be increased up to 120 MHz.
 158:/home/barnecle/STM32Cube/Repository/STM32Cube_FW_L4_V1.17.1/Drivers/STM32L4xx_HAL_Driver/Src/stm32l4xx_hal_pwr_ex.c ****   * @note  When moving from Range 2 to Range 1, the API waits for VOSF flag to be
 159:/home/barnecle/STM32Cube/Repository/STM32Cube_FW_L4_V1.17.1/Drivers/STM32L4xx_HAL_Driver/Src/stm32l4xx_hal_pwr_ex.c ****   *        cleared before returning the status. If the flag is not cleared within
 160:/home/barnecle/STM32Cube/Repository/STM32Cube_FW_L4_V1.17.1/Drivers/STM32L4xx_HAL_Driver/Src/stm32l4xx_hal_pwr_ex.c ****   *        50 microseconds, HAL_TIMEOUT status is reported.
 161:/home/barnecle/STM32Cube/Repository/STM32Cube_FW_L4_V1.17.1/Drivers/STM32L4xx_HAL_Driver/Src/stm32l4xx_hal_pwr_ex.c ****   * @retval HAL Status
 162:/home/barnecle/STM32Cube/Repository/STM32Cube_FW_L4_V1.17.1/Drivers/STM32L4xx_HAL_Driver/Src/stm32l4xx_hal_pwr_ex.c ****   */
 163:/home/barnecle/STM32Cube/Repository/STM32Cube_FW_L4_V1.17.1/Drivers/STM32L4xx_HAL_Driver/Src/stm32l4xx_hal_pwr_ex.c **** HAL_StatusTypeDef HAL_PWREx_ControlVoltageScaling(uint32_t VoltageScaling)
 164:/home/barnecle/STM32Cube/Repository/STM32Cube_FW_L4_V1.17.1/Drivers/STM32L4xx_HAL_Driver/Src/stm32l4xx_hal_pwr_ex.c **** {
  58              		.loc 1 164 1 is_stmt 1 view -0
  59              		.cfi_startproc
  60              		@ args = 0, pretend = 0, frame = 0
  61              		@ frame_needed = 0, uses_anonymous_args = 0
  62              		@ link register save eliminated.
 165:/home/barnecle/STM32Cube/Repository/STM32Cube_FW_L4_V1.17.1/Drivers/STM32L4xx_HAL_Driver/Src/stm32l4xx_hal_pwr_ex.c ****   uint32_t wait_loop_index;
  63              		.loc 1 165 3 view .LVU5
 166:/home/barnecle/STM32Cube/Repository/STM32Cube_FW_L4_V1.17.1/Drivers/STM32L4xx_HAL_Driver/Src/stm32l4xx_hal_pwr_ex.c **** 
 167:/home/barnecle/STM32Cube/Repository/STM32Cube_FW_L4_V1.17.1/Drivers/STM32L4xx_HAL_Driver/Src/stm32l4xx_hal_pwr_ex.c ****   assert_param(IS_PWR_VOLTAGE_SCALING_RANGE(VoltageScaling));
  64              		.loc 1 167 3 view .LVU6
ARM GAS  /tmp/ccNJjxjx.s 			page 5


 168:/home/barnecle/STM32Cube/Repository/STM32Cube_FW_L4_V1.17.1/Drivers/STM32L4xx_HAL_Driver/Src/stm32l4xx_hal_pwr_ex.c **** 
 169:/home/barnecle/STM32Cube/Repository/STM32Cube_FW_L4_V1.17.1/Drivers/STM32L4xx_HAL_Driver/Src/stm32l4xx_hal_pwr_ex.c **** #if defined(PWR_CR5_R1MODE)
 170:/home/barnecle/STM32Cube/Repository/STM32Cube_FW_L4_V1.17.1/Drivers/STM32L4xx_HAL_Driver/Src/stm32l4xx_hal_pwr_ex.c ****   if (VoltageScaling == PWR_REGULATOR_VOLTAGE_SCALE1_BOOST)
 171:/home/barnecle/STM32Cube/Repository/STM32Cube_FW_L4_V1.17.1/Drivers/STM32L4xx_HAL_Driver/Src/stm32l4xx_hal_pwr_ex.c ****   {
 172:/home/barnecle/STM32Cube/Repository/STM32Cube_FW_L4_V1.17.1/Drivers/STM32L4xx_HAL_Driver/Src/stm32l4xx_hal_pwr_ex.c ****     /* If current range is range 2 */
 173:/home/barnecle/STM32Cube/Repository/STM32Cube_FW_L4_V1.17.1/Drivers/STM32L4xx_HAL_Driver/Src/stm32l4xx_hal_pwr_ex.c ****     if (READ_BIT(PWR->CR1, PWR_CR1_VOS) == PWR_REGULATOR_VOLTAGE_SCALE2)
 174:/home/barnecle/STM32Cube/Repository/STM32Cube_FW_L4_V1.17.1/Drivers/STM32L4xx_HAL_Driver/Src/stm32l4xx_hal_pwr_ex.c ****     {
 175:/home/barnecle/STM32Cube/Repository/STM32Cube_FW_L4_V1.17.1/Drivers/STM32L4xx_HAL_Driver/Src/stm32l4xx_hal_pwr_ex.c ****       /* Make sure Range 1 Boost is enabled */
 176:/home/barnecle/STM32Cube/Repository/STM32Cube_FW_L4_V1.17.1/Drivers/STM32L4xx_HAL_Driver/Src/stm32l4xx_hal_pwr_ex.c ****       CLEAR_BIT(PWR->CR5, PWR_CR5_R1MODE);
 177:/home/barnecle/STM32Cube/Repository/STM32Cube_FW_L4_V1.17.1/Drivers/STM32L4xx_HAL_Driver/Src/stm32l4xx_hal_pwr_ex.c **** 
 178:/home/barnecle/STM32Cube/Repository/STM32Cube_FW_L4_V1.17.1/Drivers/STM32L4xx_HAL_Driver/Src/stm32l4xx_hal_pwr_ex.c ****       /* Set Range 1 */
 179:/home/barnecle/STM32Cube/Repository/STM32Cube_FW_L4_V1.17.1/Drivers/STM32L4xx_HAL_Driver/Src/stm32l4xx_hal_pwr_ex.c ****       MODIFY_REG(PWR->CR1, PWR_CR1_VOS, PWR_REGULATOR_VOLTAGE_SCALE1);
 180:/home/barnecle/STM32Cube/Repository/STM32Cube_FW_L4_V1.17.1/Drivers/STM32L4xx_HAL_Driver/Src/stm32l4xx_hal_pwr_ex.c **** 
 181:/home/barnecle/STM32Cube/Repository/STM32Cube_FW_L4_V1.17.1/Drivers/STM32L4xx_HAL_Driver/Src/stm32l4xx_hal_pwr_ex.c ****       /* Wait until VOSF is cleared */
 182:/home/barnecle/STM32Cube/Repository/STM32Cube_FW_L4_V1.17.1/Drivers/STM32L4xx_HAL_Driver/Src/stm32l4xx_hal_pwr_ex.c ****       wait_loop_index = ((PWR_FLAG_SETTING_DELAY_US * SystemCoreClock) / 1000000U) + 1;
 183:/home/barnecle/STM32Cube/Repository/STM32Cube_FW_L4_V1.17.1/Drivers/STM32L4xx_HAL_Driver/Src/stm32l4xx_hal_pwr_ex.c ****       while ((HAL_IS_BIT_SET(PWR->SR2, PWR_SR2_VOSF)) && (wait_loop_index != 0U))
 184:/home/barnecle/STM32Cube/Repository/STM32Cube_FW_L4_V1.17.1/Drivers/STM32L4xx_HAL_Driver/Src/stm32l4xx_hal_pwr_ex.c ****       {
 185:/home/barnecle/STM32Cube/Repository/STM32Cube_FW_L4_V1.17.1/Drivers/STM32L4xx_HAL_Driver/Src/stm32l4xx_hal_pwr_ex.c ****         wait_loop_index--;
 186:/home/barnecle/STM32Cube/Repository/STM32Cube_FW_L4_V1.17.1/Drivers/STM32L4xx_HAL_Driver/Src/stm32l4xx_hal_pwr_ex.c ****       }
 187:/home/barnecle/STM32Cube/Repository/STM32Cube_FW_L4_V1.17.1/Drivers/STM32L4xx_HAL_Driver/Src/stm32l4xx_hal_pwr_ex.c ****       if (HAL_IS_BIT_SET(PWR->SR2, PWR_SR2_VOSF))
 188:/home/barnecle/STM32Cube/Repository/STM32Cube_FW_L4_V1.17.1/Drivers/STM32L4xx_HAL_Driver/Src/stm32l4xx_hal_pwr_ex.c ****       {
 189:/home/barnecle/STM32Cube/Repository/STM32Cube_FW_L4_V1.17.1/Drivers/STM32L4xx_HAL_Driver/Src/stm32l4xx_hal_pwr_ex.c ****         return HAL_TIMEOUT;
 190:/home/barnecle/STM32Cube/Repository/STM32Cube_FW_L4_V1.17.1/Drivers/STM32L4xx_HAL_Driver/Src/stm32l4xx_hal_pwr_ex.c ****       }
 191:/home/barnecle/STM32Cube/Repository/STM32Cube_FW_L4_V1.17.1/Drivers/STM32L4xx_HAL_Driver/Src/stm32l4xx_hal_pwr_ex.c ****     }
 192:/home/barnecle/STM32Cube/Repository/STM32Cube_FW_L4_V1.17.1/Drivers/STM32L4xx_HAL_Driver/Src/stm32l4xx_hal_pwr_ex.c ****     /* If current range is range 1 normal or boost mode */
 193:/home/barnecle/STM32Cube/Repository/STM32Cube_FW_L4_V1.17.1/Drivers/STM32L4xx_HAL_Driver/Src/stm32l4xx_hal_pwr_ex.c ****     else
 194:/home/barnecle/STM32Cube/Repository/STM32Cube_FW_L4_V1.17.1/Drivers/STM32L4xx_HAL_Driver/Src/stm32l4xx_hal_pwr_ex.c ****     {
 195:/home/barnecle/STM32Cube/Repository/STM32Cube_FW_L4_V1.17.1/Drivers/STM32L4xx_HAL_Driver/Src/stm32l4xx_hal_pwr_ex.c ****       /* Enable Range 1 Boost (no issue if bit already reset) */
 196:/home/barnecle/STM32Cube/Repository/STM32Cube_FW_L4_V1.17.1/Drivers/STM32L4xx_HAL_Driver/Src/stm32l4xx_hal_pwr_ex.c ****       CLEAR_BIT(PWR->CR5, PWR_CR5_R1MODE);
 197:/home/barnecle/STM32Cube/Repository/STM32Cube_FW_L4_V1.17.1/Drivers/STM32L4xx_HAL_Driver/Src/stm32l4xx_hal_pwr_ex.c ****     }
 198:/home/barnecle/STM32Cube/Repository/STM32Cube_FW_L4_V1.17.1/Drivers/STM32L4xx_HAL_Driver/Src/stm32l4xx_hal_pwr_ex.c ****   }
 199:/home/barnecle/STM32Cube/Repository/STM32Cube_FW_L4_V1.17.1/Drivers/STM32L4xx_HAL_Driver/Src/stm32l4xx_hal_pwr_ex.c ****   else if (VoltageScaling == PWR_REGULATOR_VOLTAGE_SCALE1)
 200:/home/barnecle/STM32Cube/Repository/STM32Cube_FW_L4_V1.17.1/Drivers/STM32L4xx_HAL_Driver/Src/stm32l4xx_hal_pwr_ex.c ****   {
 201:/home/barnecle/STM32Cube/Repository/STM32Cube_FW_L4_V1.17.1/Drivers/STM32L4xx_HAL_Driver/Src/stm32l4xx_hal_pwr_ex.c ****     /* If current range is range 2 */
 202:/home/barnecle/STM32Cube/Repository/STM32Cube_FW_L4_V1.17.1/Drivers/STM32L4xx_HAL_Driver/Src/stm32l4xx_hal_pwr_ex.c ****     if (READ_BIT(PWR->CR1, PWR_CR1_VOS) == PWR_REGULATOR_VOLTAGE_SCALE2)
 203:/home/barnecle/STM32Cube/Repository/STM32Cube_FW_L4_V1.17.1/Drivers/STM32L4xx_HAL_Driver/Src/stm32l4xx_hal_pwr_ex.c ****     {
 204:/home/barnecle/STM32Cube/Repository/STM32Cube_FW_L4_V1.17.1/Drivers/STM32L4xx_HAL_Driver/Src/stm32l4xx_hal_pwr_ex.c ****       /* Make sure Range 1 Boost is disabled */
 205:/home/barnecle/STM32Cube/Repository/STM32Cube_FW_L4_V1.17.1/Drivers/STM32L4xx_HAL_Driver/Src/stm32l4xx_hal_pwr_ex.c ****       SET_BIT(PWR->CR5, PWR_CR5_R1MODE);
 206:/home/barnecle/STM32Cube/Repository/STM32Cube_FW_L4_V1.17.1/Drivers/STM32L4xx_HAL_Driver/Src/stm32l4xx_hal_pwr_ex.c **** 
 207:/home/barnecle/STM32Cube/Repository/STM32Cube_FW_L4_V1.17.1/Drivers/STM32L4xx_HAL_Driver/Src/stm32l4xx_hal_pwr_ex.c ****       /* Set Range 1 */
 208:/home/barnecle/STM32Cube/Repository/STM32Cube_FW_L4_V1.17.1/Drivers/STM32L4xx_HAL_Driver/Src/stm32l4xx_hal_pwr_ex.c ****       MODIFY_REG(PWR->CR1, PWR_CR1_VOS, PWR_REGULATOR_VOLTAGE_SCALE1);
 209:/home/barnecle/STM32Cube/Repository/STM32Cube_FW_L4_V1.17.1/Drivers/STM32L4xx_HAL_Driver/Src/stm32l4xx_hal_pwr_ex.c **** 
 210:/home/barnecle/STM32Cube/Repository/STM32Cube_FW_L4_V1.17.1/Drivers/STM32L4xx_HAL_Driver/Src/stm32l4xx_hal_pwr_ex.c ****       /* Wait until VOSF is cleared */
 211:/home/barnecle/STM32Cube/Repository/STM32Cube_FW_L4_V1.17.1/Drivers/STM32L4xx_HAL_Driver/Src/stm32l4xx_hal_pwr_ex.c ****       wait_loop_index = ((PWR_FLAG_SETTING_DELAY_US * SystemCoreClock) / 1000000U) + 1;
 212:/home/barnecle/STM32Cube/Repository/STM32Cube_FW_L4_V1.17.1/Drivers/STM32L4xx_HAL_Driver/Src/stm32l4xx_hal_pwr_ex.c ****       while ((HAL_IS_BIT_SET(PWR->SR2, PWR_SR2_VOSF)) && (wait_loop_index != 0U))
 213:/home/barnecle/STM32Cube/Repository/STM32Cube_FW_L4_V1.17.1/Drivers/STM32L4xx_HAL_Driver/Src/stm32l4xx_hal_pwr_ex.c ****       {
 214:/home/barnecle/STM32Cube/Repository/STM32Cube_FW_L4_V1.17.1/Drivers/STM32L4xx_HAL_Driver/Src/stm32l4xx_hal_pwr_ex.c ****         wait_loop_index--;
 215:/home/barnecle/STM32Cube/Repository/STM32Cube_FW_L4_V1.17.1/Drivers/STM32L4xx_HAL_Driver/Src/stm32l4xx_hal_pwr_ex.c ****       }
 216:/home/barnecle/STM32Cube/Repository/STM32Cube_FW_L4_V1.17.1/Drivers/STM32L4xx_HAL_Driver/Src/stm32l4xx_hal_pwr_ex.c ****       if (HAL_IS_BIT_SET(PWR->SR2, PWR_SR2_VOSF))
 217:/home/barnecle/STM32Cube/Repository/STM32Cube_FW_L4_V1.17.1/Drivers/STM32L4xx_HAL_Driver/Src/stm32l4xx_hal_pwr_ex.c ****       {
 218:/home/barnecle/STM32Cube/Repository/STM32Cube_FW_L4_V1.17.1/Drivers/STM32L4xx_HAL_Driver/Src/stm32l4xx_hal_pwr_ex.c ****         return HAL_TIMEOUT;
 219:/home/barnecle/STM32Cube/Repository/STM32Cube_FW_L4_V1.17.1/Drivers/STM32L4xx_HAL_Driver/Src/stm32l4xx_hal_pwr_ex.c ****       }
 220:/home/barnecle/STM32Cube/Repository/STM32Cube_FW_L4_V1.17.1/Drivers/STM32L4xx_HAL_Driver/Src/stm32l4xx_hal_pwr_ex.c ****     }
 221:/home/barnecle/STM32Cube/Repository/STM32Cube_FW_L4_V1.17.1/Drivers/STM32L4xx_HAL_Driver/Src/stm32l4xx_hal_pwr_ex.c ****      /* If current range is range 1 normal or boost mode */
 222:/home/barnecle/STM32Cube/Repository/STM32Cube_FW_L4_V1.17.1/Drivers/STM32L4xx_HAL_Driver/Src/stm32l4xx_hal_pwr_ex.c ****     else
 223:/home/barnecle/STM32Cube/Repository/STM32Cube_FW_L4_V1.17.1/Drivers/STM32L4xx_HAL_Driver/Src/stm32l4xx_hal_pwr_ex.c ****     {
 224:/home/barnecle/STM32Cube/Repository/STM32Cube_FW_L4_V1.17.1/Drivers/STM32L4xx_HAL_Driver/Src/stm32l4xx_hal_pwr_ex.c ****       /* Disable Range 1 Boost (no issue if bit already set) */
ARM GAS  /tmp/ccNJjxjx.s 			page 6


 225:/home/barnecle/STM32Cube/Repository/STM32Cube_FW_L4_V1.17.1/Drivers/STM32L4xx_HAL_Driver/Src/stm32l4xx_hal_pwr_ex.c ****       SET_BIT(PWR->CR5, PWR_CR5_R1MODE);
 226:/home/barnecle/STM32Cube/Repository/STM32Cube_FW_L4_V1.17.1/Drivers/STM32L4xx_HAL_Driver/Src/stm32l4xx_hal_pwr_ex.c ****     }
 227:/home/barnecle/STM32Cube/Repository/STM32Cube_FW_L4_V1.17.1/Drivers/STM32L4xx_HAL_Driver/Src/stm32l4xx_hal_pwr_ex.c ****   }
 228:/home/barnecle/STM32Cube/Repository/STM32Cube_FW_L4_V1.17.1/Drivers/STM32L4xx_HAL_Driver/Src/stm32l4xx_hal_pwr_ex.c ****   else
 229:/home/barnecle/STM32Cube/Repository/STM32Cube_FW_L4_V1.17.1/Drivers/STM32L4xx_HAL_Driver/Src/stm32l4xx_hal_pwr_ex.c ****   {
 230:/home/barnecle/STM32Cube/Repository/STM32Cube_FW_L4_V1.17.1/Drivers/STM32L4xx_HAL_Driver/Src/stm32l4xx_hal_pwr_ex.c ****     /* Set Range 2 */
 231:/home/barnecle/STM32Cube/Repository/STM32Cube_FW_L4_V1.17.1/Drivers/STM32L4xx_HAL_Driver/Src/stm32l4xx_hal_pwr_ex.c ****     MODIFY_REG(PWR->CR1, PWR_CR1_VOS, PWR_REGULATOR_VOLTAGE_SCALE2);
 232:/home/barnecle/STM32Cube/Repository/STM32Cube_FW_L4_V1.17.1/Drivers/STM32L4xx_HAL_Driver/Src/stm32l4xx_hal_pwr_ex.c ****     /* No need to wait for VOSF to be cleared for this transition */
 233:/home/barnecle/STM32Cube/Repository/STM32Cube_FW_L4_V1.17.1/Drivers/STM32L4xx_HAL_Driver/Src/stm32l4xx_hal_pwr_ex.c ****     /* PWR_CR5_R1MODE bit setting has no effect in Range 2        */
 234:/home/barnecle/STM32Cube/Repository/STM32Cube_FW_L4_V1.17.1/Drivers/STM32L4xx_HAL_Driver/Src/stm32l4xx_hal_pwr_ex.c ****   }
 235:/home/barnecle/STM32Cube/Repository/STM32Cube_FW_L4_V1.17.1/Drivers/STM32L4xx_HAL_Driver/Src/stm32l4xx_hal_pwr_ex.c **** 
 236:/home/barnecle/STM32Cube/Repository/STM32Cube_FW_L4_V1.17.1/Drivers/STM32L4xx_HAL_Driver/Src/stm32l4xx_hal_pwr_ex.c **** #else
 237:/home/barnecle/STM32Cube/Repository/STM32Cube_FW_L4_V1.17.1/Drivers/STM32L4xx_HAL_Driver/Src/stm32l4xx_hal_pwr_ex.c **** 
 238:/home/barnecle/STM32Cube/Repository/STM32Cube_FW_L4_V1.17.1/Drivers/STM32L4xx_HAL_Driver/Src/stm32l4xx_hal_pwr_ex.c ****   /* If Set Range 1 */
 239:/home/barnecle/STM32Cube/Repository/STM32Cube_FW_L4_V1.17.1/Drivers/STM32L4xx_HAL_Driver/Src/stm32l4xx_hal_pwr_ex.c ****   if (VoltageScaling == PWR_REGULATOR_VOLTAGE_SCALE1)
  65              		.loc 1 239 3 view .LVU7
  66              		.loc 1 239 6 is_stmt 0 view .LVU8
  67 0000 B0F5007F 		cmp	r0, #512
  68 0004 0FD0     		beq	.L13
 240:/home/barnecle/STM32Cube/Repository/STM32Cube_FW_L4_V1.17.1/Drivers/STM32L4xx_HAL_Driver/Src/stm32l4xx_hal_pwr_ex.c ****   {
 241:/home/barnecle/STM32Cube/Repository/STM32Cube_FW_L4_V1.17.1/Drivers/STM32L4xx_HAL_Driver/Src/stm32l4xx_hal_pwr_ex.c ****     if (READ_BIT(PWR->CR1, PWR_CR1_VOS) != PWR_REGULATOR_VOLTAGE_SCALE1)
 242:/home/barnecle/STM32Cube/Repository/STM32Cube_FW_L4_V1.17.1/Drivers/STM32L4xx_HAL_Driver/Src/stm32l4xx_hal_pwr_ex.c ****     {
 243:/home/barnecle/STM32Cube/Repository/STM32Cube_FW_L4_V1.17.1/Drivers/STM32L4xx_HAL_Driver/Src/stm32l4xx_hal_pwr_ex.c ****       /* Set Range 1 */
 244:/home/barnecle/STM32Cube/Repository/STM32Cube_FW_L4_V1.17.1/Drivers/STM32L4xx_HAL_Driver/Src/stm32l4xx_hal_pwr_ex.c ****       MODIFY_REG(PWR->CR1, PWR_CR1_VOS, PWR_REGULATOR_VOLTAGE_SCALE1);
 245:/home/barnecle/STM32Cube/Repository/STM32Cube_FW_L4_V1.17.1/Drivers/STM32L4xx_HAL_Driver/Src/stm32l4xx_hal_pwr_ex.c **** 
 246:/home/barnecle/STM32Cube/Repository/STM32Cube_FW_L4_V1.17.1/Drivers/STM32L4xx_HAL_Driver/Src/stm32l4xx_hal_pwr_ex.c ****       /* Wait until VOSF is cleared */
 247:/home/barnecle/STM32Cube/Repository/STM32Cube_FW_L4_V1.17.1/Drivers/STM32L4xx_HAL_Driver/Src/stm32l4xx_hal_pwr_ex.c ****       wait_loop_index = ((PWR_FLAG_SETTING_DELAY_US * SystemCoreClock) / 1000000U) + 1U;
 248:/home/barnecle/STM32Cube/Repository/STM32Cube_FW_L4_V1.17.1/Drivers/STM32L4xx_HAL_Driver/Src/stm32l4xx_hal_pwr_ex.c ****       while ((HAL_IS_BIT_SET(PWR->SR2, PWR_SR2_VOSF)) && (wait_loop_index != 0U))
 249:/home/barnecle/STM32Cube/Repository/STM32Cube_FW_L4_V1.17.1/Drivers/STM32L4xx_HAL_Driver/Src/stm32l4xx_hal_pwr_ex.c ****       {
 250:/home/barnecle/STM32Cube/Repository/STM32Cube_FW_L4_V1.17.1/Drivers/STM32L4xx_HAL_Driver/Src/stm32l4xx_hal_pwr_ex.c ****         wait_loop_index--;
 251:/home/barnecle/STM32Cube/Repository/STM32Cube_FW_L4_V1.17.1/Drivers/STM32L4xx_HAL_Driver/Src/stm32l4xx_hal_pwr_ex.c ****       }
 252:/home/barnecle/STM32Cube/Repository/STM32Cube_FW_L4_V1.17.1/Drivers/STM32L4xx_HAL_Driver/Src/stm32l4xx_hal_pwr_ex.c ****       if (HAL_IS_BIT_SET(PWR->SR2, PWR_SR2_VOSF))
 253:/home/barnecle/STM32Cube/Repository/STM32Cube_FW_L4_V1.17.1/Drivers/STM32L4xx_HAL_Driver/Src/stm32l4xx_hal_pwr_ex.c ****       {
 254:/home/barnecle/STM32Cube/Repository/STM32Cube_FW_L4_V1.17.1/Drivers/STM32L4xx_HAL_Driver/Src/stm32l4xx_hal_pwr_ex.c ****         return HAL_TIMEOUT;
 255:/home/barnecle/STM32Cube/Repository/STM32Cube_FW_L4_V1.17.1/Drivers/STM32L4xx_HAL_Driver/Src/stm32l4xx_hal_pwr_ex.c ****       }
 256:/home/barnecle/STM32Cube/Repository/STM32Cube_FW_L4_V1.17.1/Drivers/STM32L4xx_HAL_Driver/Src/stm32l4xx_hal_pwr_ex.c ****     }
 257:/home/barnecle/STM32Cube/Repository/STM32Cube_FW_L4_V1.17.1/Drivers/STM32L4xx_HAL_Driver/Src/stm32l4xx_hal_pwr_ex.c ****   }
 258:/home/barnecle/STM32Cube/Repository/STM32Cube_FW_L4_V1.17.1/Drivers/STM32L4xx_HAL_Driver/Src/stm32l4xx_hal_pwr_ex.c ****   else
 259:/home/barnecle/STM32Cube/Repository/STM32Cube_FW_L4_V1.17.1/Drivers/STM32L4xx_HAL_Driver/Src/stm32l4xx_hal_pwr_ex.c ****   {
 260:/home/barnecle/STM32Cube/Repository/STM32Cube_FW_L4_V1.17.1/Drivers/STM32L4xx_HAL_Driver/Src/stm32l4xx_hal_pwr_ex.c ****     if (READ_BIT(PWR->CR1, PWR_CR1_VOS) != PWR_REGULATOR_VOLTAGE_SCALE2)
  69              		.loc 1 260 5 is_stmt 1 view .LVU9
  70              		.loc 1 260 9 is_stmt 0 view .LVU10
  71 0006 1F4B     		ldr	r3, .L14
  72 0008 1B68     		ldr	r3, [r3]
  73 000a 03F4C063 		and	r3, r3, #1536
  74              		.loc 1 260 8 view .LVU11
  75 000e B3F5806F 		cmp	r3, #1024
  76 0012 34D0     		beq	.L12
 261:/home/barnecle/STM32Cube/Repository/STM32Cube_FW_L4_V1.17.1/Drivers/STM32L4xx_HAL_Driver/Src/stm32l4xx_hal_pwr_ex.c ****     {
 262:/home/barnecle/STM32Cube/Repository/STM32Cube_FW_L4_V1.17.1/Drivers/STM32L4xx_HAL_Driver/Src/stm32l4xx_hal_pwr_ex.c ****       /* Set Range 2 */
 263:/home/barnecle/STM32Cube/Repository/STM32Cube_FW_L4_V1.17.1/Drivers/STM32L4xx_HAL_Driver/Src/stm32l4xx_hal_pwr_ex.c ****       MODIFY_REG(PWR->CR1, PWR_CR1_VOS, PWR_REGULATOR_VOLTAGE_SCALE2);
  77              		.loc 1 263 7 is_stmt 1 view .LVU12
  78 0014 1B4A     		ldr	r2, .L14
  79 0016 1368     		ldr	r3, [r2]
  80 0018 23F4C063 		bic	r3, r3, #1536
  81 001c 43F48063 		orr	r3, r3, #1024
  82 0020 1360     		str	r3, [r2]
ARM GAS  /tmp/ccNJjxjx.s 			page 7


 264:/home/barnecle/STM32Cube/Repository/STM32Cube_FW_L4_V1.17.1/Drivers/STM32L4xx_HAL_Driver/Src/stm32l4xx_hal_pwr_ex.c ****       /* No need to wait for VOSF to be cleared for this transition */
 265:/home/barnecle/STM32Cube/Repository/STM32Cube_FW_L4_V1.17.1/Drivers/STM32L4xx_HAL_Driver/Src/stm32l4xx_hal_pwr_ex.c ****     }
 266:/home/barnecle/STM32Cube/Repository/STM32Cube_FW_L4_V1.17.1/Drivers/STM32L4xx_HAL_Driver/Src/stm32l4xx_hal_pwr_ex.c ****   }
 267:/home/barnecle/STM32Cube/Repository/STM32Cube_FW_L4_V1.17.1/Drivers/STM32L4xx_HAL_Driver/Src/stm32l4xx_hal_pwr_ex.c **** #endif
 268:/home/barnecle/STM32Cube/Repository/STM32Cube_FW_L4_V1.17.1/Drivers/STM32L4xx_HAL_Driver/Src/stm32l4xx_hal_pwr_ex.c **** 
 269:/home/barnecle/STM32Cube/Repository/STM32Cube_FW_L4_V1.17.1/Drivers/STM32L4xx_HAL_Driver/Src/stm32l4xx_hal_pwr_ex.c ****   return HAL_OK;
  83              		.loc 1 269 10 is_stmt 0 view .LVU13
  84 0022 0020     		movs	r0, #0
  85              	.LVL1:
  86              		.loc 1 269 10 view .LVU14
  87 0024 7047     		bx	lr
  88              	.LVL2:
  89              	.L13:
 241:/home/barnecle/STM32Cube/Repository/STM32Cube_FW_L4_V1.17.1/Drivers/STM32L4xx_HAL_Driver/Src/stm32l4xx_hal_pwr_ex.c ****     {
  90              		.loc 1 241 5 is_stmt 1 view .LVU15
 241:/home/barnecle/STM32Cube/Repository/STM32Cube_FW_L4_V1.17.1/Drivers/STM32L4xx_HAL_Driver/Src/stm32l4xx_hal_pwr_ex.c ****     {
  91              		.loc 1 241 9 is_stmt 0 view .LVU16
  92 0026 174B     		ldr	r3, .L14
  93 0028 1B68     		ldr	r3, [r3]
  94 002a 03F4C063 		and	r3, r3, #1536
 241:/home/barnecle/STM32Cube/Repository/STM32Cube_FW_L4_V1.17.1/Drivers/STM32L4xx_HAL_Driver/Src/stm32l4xx_hal_pwr_ex.c ****     {
  95              		.loc 1 241 8 view .LVU17
  96 002e B3F5007F 		cmp	r3, #512
  97 0032 20D0     		beq	.L10
 244:/home/barnecle/STM32Cube/Repository/STM32Cube_FW_L4_V1.17.1/Drivers/STM32L4xx_HAL_Driver/Src/stm32l4xx_hal_pwr_ex.c **** 
  98              		.loc 1 244 7 is_stmt 1 view .LVU18
  99 0034 134A     		ldr	r2, .L14
 100 0036 1368     		ldr	r3, [r2]
 101 0038 23F4C063 		bic	r3, r3, #1536
 102 003c 43F40073 		orr	r3, r3, #512
 103 0040 1360     		str	r3, [r2]
 247:/home/barnecle/STM32Cube/Repository/STM32Cube_FW_L4_V1.17.1/Drivers/STM32L4xx_HAL_Driver/Src/stm32l4xx_hal_pwr_ex.c ****       while ((HAL_IS_BIT_SET(PWR->SR2, PWR_SR2_VOSF)) && (wait_loop_index != 0U))
 104              		.loc 1 247 7 view .LVU19
 247:/home/barnecle/STM32Cube/Repository/STM32Cube_FW_L4_V1.17.1/Drivers/STM32L4xx_HAL_Driver/Src/stm32l4xx_hal_pwr_ex.c ****       while ((HAL_IS_BIT_SET(PWR->SR2, PWR_SR2_VOSF)) && (wait_loop_index != 0U))
 105              		.loc 1 247 53 is_stmt 0 view .LVU20
 106 0042 114B     		ldr	r3, .L14+4
 107 0044 1B68     		ldr	r3, [r3]
 108 0046 3222     		movs	r2, #50
 109 0048 02FB03F3 		mul	r3, r2, r3
 247:/home/barnecle/STM32Cube/Repository/STM32Cube_FW_L4_V1.17.1/Drivers/STM32L4xx_HAL_Driver/Src/stm32l4xx_hal_pwr_ex.c ****       while ((HAL_IS_BIT_SET(PWR->SR2, PWR_SR2_VOSF)) && (wait_loop_index != 0U))
 110              		.loc 1 247 72 view .LVU21
 111 004c 0F4A     		ldr	r2, .L14+8
 112 004e A2FB0323 		umull	r2, r3, r2, r3
 113 0052 9B0C     		lsrs	r3, r3, #18
 247:/home/barnecle/STM32Cube/Repository/STM32Cube_FW_L4_V1.17.1/Drivers/STM32L4xx_HAL_Driver/Src/stm32l4xx_hal_pwr_ex.c ****       while ((HAL_IS_BIT_SET(PWR->SR2, PWR_SR2_VOSF)) && (wait_loop_index != 0U))
 114              		.loc 1 247 23 view .LVU22
 115 0054 0133     		adds	r3, r3, #1
 116              	.LVL3:
 248:/home/barnecle/STM32Cube/Repository/STM32Cube_FW_L4_V1.17.1/Drivers/STM32L4xx_HAL_Driver/Src/stm32l4xx_hal_pwr_ex.c ****       {
 117              		.loc 1 248 7 is_stmt 1 view .LVU23
 248:/home/barnecle/STM32Cube/Repository/STM32Cube_FW_L4_V1.17.1/Drivers/STM32L4xx_HAL_Driver/Src/stm32l4xx_hal_pwr_ex.c ****       {
 118              		.loc 1 248 13 is_stmt 0 view .LVU24
 119 0056 00E0     		b	.L7
 120              	.L9:
 250:/home/barnecle/STM32Cube/Repository/STM32Cube_FW_L4_V1.17.1/Drivers/STM32L4xx_HAL_Driver/Src/stm32l4xx_hal_pwr_ex.c ****       }
 121              		.loc 1 250 9 is_stmt 1 view .LVU25
 250:/home/barnecle/STM32Cube/Repository/STM32Cube_FW_L4_V1.17.1/Drivers/STM32L4xx_HAL_Driver/Src/stm32l4xx_hal_pwr_ex.c ****       }
ARM GAS  /tmp/ccNJjxjx.s 			page 8


 122              		.loc 1 250 24 is_stmt 0 view .LVU26
 123 0058 013B     		subs	r3, r3, #1
 124              	.LVL4:
 125              	.L7:
 248:/home/barnecle/STM32Cube/Repository/STM32Cube_FW_L4_V1.17.1/Drivers/STM32L4xx_HAL_Driver/Src/stm32l4xx_hal_pwr_ex.c ****       {
 126              		.loc 1 248 13 is_stmt 1 view .LVU27
 248:/home/barnecle/STM32Cube/Repository/STM32Cube_FW_L4_V1.17.1/Drivers/STM32L4xx_HAL_Driver/Src/stm32l4xx_hal_pwr_ex.c ****       {
 127              		.loc 1 248 15 is_stmt 0 view .LVU28
 128 005a 0A4A     		ldr	r2, .L14
 129 005c 5269     		ldr	r2, [r2, #20]
 248:/home/barnecle/STM32Cube/Repository/STM32Cube_FW_L4_V1.17.1/Drivers/STM32L4xx_HAL_Driver/Src/stm32l4xx_hal_pwr_ex.c ****       {
 130              		.loc 1 248 13 view .LVU29
 131 005e 12F4806F 		tst	r2, #1024
 132 0062 01D0     		beq	.L8
 248:/home/barnecle/STM32Cube/Repository/STM32Cube_FW_L4_V1.17.1/Drivers/STM32L4xx_HAL_Driver/Src/stm32l4xx_hal_pwr_ex.c ****       {
 133              		.loc 1 248 55 discriminator 1 view .LVU30
 134 0064 002B     		cmp	r3, #0
 135 0066 F7D1     		bne	.L9
 136              	.L8:
 252:/home/barnecle/STM32Cube/Repository/STM32Cube_FW_L4_V1.17.1/Drivers/STM32L4xx_HAL_Driver/Src/stm32l4xx_hal_pwr_ex.c ****       {
 137              		.loc 1 252 7 is_stmt 1 view .LVU31
 252:/home/barnecle/STM32Cube/Repository/STM32Cube_FW_L4_V1.17.1/Drivers/STM32L4xx_HAL_Driver/Src/stm32l4xx_hal_pwr_ex.c ****       {
 138              		.loc 1 252 11 is_stmt 0 view .LVU32
 139 0068 064B     		ldr	r3, .L14
 140              	.LVL5:
 252:/home/barnecle/STM32Cube/Repository/STM32Cube_FW_L4_V1.17.1/Drivers/STM32L4xx_HAL_Driver/Src/stm32l4xx_hal_pwr_ex.c ****       {
 141              		.loc 1 252 11 view .LVU33
 142 006a 5B69     		ldr	r3, [r3, #20]
 252:/home/barnecle/STM32Cube/Repository/STM32Cube_FW_L4_V1.17.1/Drivers/STM32L4xx_HAL_Driver/Src/stm32l4xx_hal_pwr_ex.c ****       {
 143              		.loc 1 252 10 view .LVU34
 144 006c 13F4806F 		tst	r3, #1024
 145 0070 03D1     		bne	.L11
 146              		.loc 1 269 10 view .LVU35
 147 0072 0020     		movs	r0, #0
 148              	.LVL6:
 149              		.loc 1 269 10 view .LVU36
 150 0074 7047     		bx	lr
 151              	.LVL7:
 152              	.L10:
 153              		.loc 1 269 10 view .LVU37
 154 0076 0020     		movs	r0, #0
 155              	.LVL8:
 156              		.loc 1 269 10 view .LVU38
 157 0078 7047     		bx	lr
 158              	.LVL9:
 159              	.L11:
 254:/home/barnecle/STM32Cube/Repository/STM32Cube_FW_L4_V1.17.1/Drivers/STM32L4xx_HAL_Driver/Src/stm32l4xx_hal_pwr_ex.c ****       }
 160              		.loc 1 254 16 view .LVU39
 161 007a 0320     		movs	r0, #3
 162              	.LVL10:
 254:/home/barnecle/STM32Cube/Repository/STM32Cube_FW_L4_V1.17.1/Drivers/STM32L4xx_HAL_Driver/Src/stm32l4xx_hal_pwr_ex.c ****       }
 163              		.loc 1 254 16 view .LVU40
 164 007c 7047     		bx	lr
 165              	.LVL11:
 166              	.L12:
 167              		.loc 1 269 10 view .LVU41
 168 007e 0020     		movs	r0, #0
ARM GAS  /tmp/ccNJjxjx.s 			page 9


 169              	.LVL12:
 270:/home/barnecle/STM32Cube/Repository/STM32Cube_FW_L4_V1.17.1/Drivers/STM32L4xx_HAL_Driver/Src/stm32l4xx_hal_pwr_ex.c **** }
 170              		.loc 1 270 1 view .LVU42
 171 0080 7047     		bx	lr
 172              	.L15:
 173 0082 00BF     		.align	2
 174              	.L14:
 175 0084 00700040 		.word	1073770496
 176 0088 00000000 		.word	SystemCoreClock
 177 008c 83DE1B43 		.word	1125899907
 178              		.cfi_endproc
 179              	.LFE133:
 181              		.section	.text.HAL_PWREx_EnableBatteryCharging,"ax",%progbits
 182              		.align	1
 183              		.global	HAL_PWREx_EnableBatteryCharging
 184              		.syntax unified
 185              		.thumb
 186              		.thumb_func
 188              	HAL_PWREx_EnableBatteryCharging:
 189              	.LVL13:
 190              	.LFB134:
 271:/home/barnecle/STM32Cube/Repository/STM32Cube_FW_L4_V1.17.1/Drivers/STM32L4xx_HAL_Driver/Src/stm32l4xx_hal_pwr_ex.c **** 
 272:/home/barnecle/STM32Cube/Repository/STM32Cube_FW_L4_V1.17.1/Drivers/STM32L4xx_HAL_Driver/Src/stm32l4xx_hal_pwr_ex.c **** 
 273:/home/barnecle/STM32Cube/Repository/STM32Cube_FW_L4_V1.17.1/Drivers/STM32L4xx_HAL_Driver/Src/stm32l4xx_hal_pwr_ex.c **** /**
 274:/home/barnecle/STM32Cube/Repository/STM32Cube_FW_L4_V1.17.1/Drivers/STM32L4xx_HAL_Driver/Src/stm32l4xx_hal_pwr_ex.c ****   * @brief Enable battery charging.
 275:/home/barnecle/STM32Cube/Repository/STM32Cube_FW_L4_V1.17.1/Drivers/STM32L4xx_HAL_Driver/Src/stm32l4xx_hal_pwr_ex.c ****   *        When VDD is present, charge the external battery on VBAT through an internal resistor.
 276:/home/barnecle/STM32Cube/Repository/STM32Cube_FW_L4_V1.17.1/Drivers/STM32L4xx_HAL_Driver/Src/stm32l4xx_hal_pwr_ex.c ****   * @param  ResistorSelection specifies the resistor impedance.
 277:/home/barnecle/STM32Cube/Repository/STM32Cube_FW_L4_V1.17.1/Drivers/STM32L4xx_HAL_Driver/Src/stm32l4xx_hal_pwr_ex.c ****   *          This parameter can be one of the following values:
 278:/home/barnecle/STM32Cube/Repository/STM32Cube_FW_L4_V1.17.1/Drivers/STM32L4xx_HAL_Driver/Src/stm32l4xx_hal_pwr_ex.c ****   *            @arg @ref PWR_BATTERY_CHARGING_RESISTOR_5     5 kOhms resistor
 279:/home/barnecle/STM32Cube/Repository/STM32Cube_FW_L4_V1.17.1/Drivers/STM32L4xx_HAL_Driver/Src/stm32l4xx_hal_pwr_ex.c ****   *            @arg @ref PWR_BATTERY_CHARGING_RESISTOR_1_5 1.5 kOhms resistor
 280:/home/barnecle/STM32Cube/Repository/STM32Cube_FW_L4_V1.17.1/Drivers/STM32L4xx_HAL_Driver/Src/stm32l4xx_hal_pwr_ex.c ****   * @retval None
 281:/home/barnecle/STM32Cube/Repository/STM32Cube_FW_L4_V1.17.1/Drivers/STM32L4xx_HAL_Driver/Src/stm32l4xx_hal_pwr_ex.c ****   */
 282:/home/barnecle/STM32Cube/Repository/STM32Cube_FW_L4_V1.17.1/Drivers/STM32L4xx_HAL_Driver/Src/stm32l4xx_hal_pwr_ex.c **** void HAL_PWREx_EnableBatteryCharging(uint32_t ResistorSelection)
 283:/home/barnecle/STM32Cube/Repository/STM32Cube_FW_L4_V1.17.1/Drivers/STM32L4xx_HAL_Driver/Src/stm32l4xx_hal_pwr_ex.c **** {
 191              		.loc 1 283 1 is_stmt 1 view -0
 192              		.cfi_startproc
 193              		@ args = 0, pretend = 0, frame = 0
 194              		@ frame_needed = 0, uses_anonymous_args = 0
 195              		@ link register save eliminated.
 284:/home/barnecle/STM32Cube/Repository/STM32Cube_FW_L4_V1.17.1/Drivers/STM32L4xx_HAL_Driver/Src/stm32l4xx_hal_pwr_ex.c ****   assert_param(IS_PWR_BATTERY_RESISTOR_SELECT(ResistorSelection));
 196              		.loc 1 284 3 view .LVU44
 285:/home/barnecle/STM32Cube/Repository/STM32Cube_FW_L4_V1.17.1/Drivers/STM32L4xx_HAL_Driver/Src/stm32l4xx_hal_pwr_ex.c **** 
 286:/home/barnecle/STM32Cube/Repository/STM32Cube_FW_L4_V1.17.1/Drivers/STM32L4xx_HAL_Driver/Src/stm32l4xx_hal_pwr_ex.c ****   /* Specify resistor selection */
 287:/home/barnecle/STM32Cube/Repository/STM32Cube_FW_L4_V1.17.1/Drivers/STM32L4xx_HAL_Driver/Src/stm32l4xx_hal_pwr_ex.c ****   MODIFY_REG(PWR->CR4, PWR_CR4_VBRS, ResistorSelection);
 197              		.loc 1 287 3 view .LVU45
 198 0000 054A     		ldr	r2, .L17
 199 0002 D368     		ldr	r3, [r2, #12]
 200 0004 23F40073 		bic	r3, r3, #512
 201 0008 0343     		orrs	r3, r3, r0
 202 000a D360     		str	r3, [r2, #12]
 288:/home/barnecle/STM32Cube/Repository/STM32Cube_FW_L4_V1.17.1/Drivers/STM32L4xx_HAL_Driver/Src/stm32l4xx_hal_pwr_ex.c **** 
 289:/home/barnecle/STM32Cube/Repository/STM32Cube_FW_L4_V1.17.1/Drivers/STM32L4xx_HAL_Driver/Src/stm32l4xx_hal_pwr_ex.c ****   /* Enable battery charging */
 290:/home/barnecle/STM32Cube/Repository/STM32Cube_FW_L4_V1.17.1/Drivers/STM32L4xx_HAL_Driver/Src/stm32l4xx_hal_pwr_ex.c ****   SET_BIT(PWR->CR4, PWR_CR4_VBE);
 203              		.loc 1 290 3 view .LVU46
 204 000c D368     		ldr	r3, [r2, #12]
 205 000e 43F48073 		orr	r3, r3, #256
 206 0012 D360     		str	r3, [r2, #12]
ARM GAS  /tmp/ccNJjxjx.s 			page 10


 291:/home/barnecle/STM32Cube/Repository/STM32Cube_FW_L4_V1.17.1/Drivers/STM32L4xx_HAL_Driver/Src/stm32l4xx_hal_pwr_ex.c **** }
 207              		.loc 1 291 1 is_stmt 0 view .LVU47
 208 0014 7047     		bx	lr
 209              	.L18:
 210 0016 00BF     		.align	2
 211              	.L17:
 212 0018 00700040 		.word	1073770496
 213              		.cfi_endproc
 214              	.LFE134:
 216              		.section	.text.HAL_PWREx_DisableBatteryCharging,"ax",%progbits
 217              		.align	1
 218              		.global	HAL_PWREx_DisableBatteryCharging
 219              		.syntax unified
 220              		.thumb
 221              		.thumb_func
 223              	HAL_PWREx_DisableBatteryCharging:
 224              	.LFB135:
 292:/home/barnecle/STM32Cube/Repository/STM32Cube_FW_L4_V1.17.1/Drivers/STM32L4xx_HAL_Driver/Src/stm32l4xx_hal_pwr_ex.c **** 
 293:/home/barnecle/STM32Cube/Repository/STM32Cube_FW_L4_V1.17.1/Drivers/STM32L4xx_HAL_Driver/Src/stm32l4xx_hal_pwr_ex.c **** 
 294:/home/barnecle/STM32Cube/Repository/STM32Cube_FW_L4_V1.17.1/Drivers/STM32L4xx_HAL_Driver/Src/stm32l4xx_hal_pwr_ex.c **** /**
 295:/home/barnecle/STM32Cube/Repository/STM32Cube_FW_L4_V1.17.1/Drivers/STM32L4xx_HAL_Driver/Src/stm32l4xx_hal_pwr_ex.c ****   * @brief Disable battery charging.
 296:/home/barnecle/STM32Cube/Repository/STM32Cube_FW_L4_V1.17.1/Drivers/STM32L4xx_HAL_Driver/Src/stm32l4xx_hal_pwr_ex.c ****   * @retval None
 297:/home/barnecle/STM32Cube/Repository/STM32Cube_FW_L4_V1.17.1/Drivers/STM32L4xx_HAL_Driver/Src/stm32l4xx_hal_pwr_ex.c ****   */
 298:/home/barnecle/STM32Cube/Repository/STM32Cube_FW_L4_V1.17.1/Drivers/STM32L4xx_HAL_Driver/Src/stm32l4xx_hal_pwr_ex.c **** void HAL_PWREx_DisableBatteryCharging(void)
 299:/home/barnecle/STM32Cube/Repository/STM32Cube_FW_L4_V1.17.1/Drivers/STM32L4xx_HAL_Driver/Src/stm32l4xx_hal_pwr_ex.c **** {
 225              		.loc 1 299 1 is_stmt 1 view -0
 226              		.cfi_startproc
 227              		@ args = 0, pretend = 0, frame = 0
 228              		@ frame_needed = 0, uses_anonymous_args = 0
 229              		@ link register save eliminated.
 300:/home/barnecle/STM32Cube/Repository/STM32Cube_FW_L4_V1.17.1/Drivers/STM32L4xx_HAL_Driver/Src/stm32l4xx_hal_pwr_ex.c ****   CLEAR_BIT(PWR->CR4, PWR_CR4_VBE);
 230              		.loc 1 300 3 view .LVU49
 231 0000 024A     		ldr	r2, .L20
 232 0002 D368     		ldr	r3, [r2, #12]
 233 0004 23F48073 		bic	r3, r3, #256
 234 0008 D360     		str	r3, [r2, #12]
 301:/home/barnecle/STM32Cube/Repository/STM32Cube_FW_L4_V1.17.1/Drivers/STM32L4xx_HAL_Driver/Src/stm32l4xx_hal_pwr_ex.c **** }
 235              		.loc 1 301 1 is_stmt 0 view .LVU50
 236 000a 7047     		bx	lr
 237              	.L21:
 238              		.align	2
 239              	.L20:
 240 000c 00700040 		.word	1073770496
 241              		.cfi_endproc
 242              	.LFE135:
 244              		.section	.text.HAL_PWREx_EnableVddUSB,"ax",%progbits
 245              		.align	1
 246              		.global	HAL_PWREx_EnableVddUSB
 247              		.syntax unified
 248              		.thumb
 249              		.thumb_func
 251              	HAL_PWREx_EnableVddUSB:
 252              	.LFB136:
 302:/home/barnecle/STM32Cube/Repository/STM32Cube_FW_L4_V1.17.1/Drivers/STM32L4xx_HAL_Driver/Src/stm32l4xx_hal_pwr_ex.c **** 
 303:/home/barnecle/STM32Cube/Repository/STM32Cube_FW_L4_V1.17.1/Drivers/STM32L4xx_HAL_Driver/Src/stm32l4xx_hal_pwr_ex.c **** 
 304:/home/barnecle/STM32Cube/Repository/STM32Cube_FW_L4_V1.17.1/Drivers/STM32L4xx_HAL_Driver/Src/stm32l4xx_hal_pwr_ex.c **** #if defined(PWR_CR2_USV)
 305:/home/barnecle/STM32Cube/Repository/STM32Cube_FW_L4_V1.17.1/Drivers/STM32L4xx_HAL_Driver/Src/stm32l4xx_hal_pwr_ex.c **** /**
ARM GAS  /tmp/ccNJjxjx.s 			page 11


 306:/home/barnecle/STM32Cube/Repository/STM32Cube_FW_L4_V1.17.1/Drivers/STM32L4xx_HAL_Driver/Src/stm32l4xx_hal_pwr_ex.c ****   * @brief Enable VDDUSB supply.
 307:/home/barnecle/STM32Cube/Repository/STM32Cube_FW_L4_V1.17.1/Drivers/STM32L4xx_HAL_Driver/Src/stm32l4xx_hal_pwr_ex.c ****   * @note  Remove VDDUSB electrical and logical isolation, once VDDUSB supply is present.
 308:/home/barnecle/STM32Cube/Repository/STM32Cube_FW_L4_V1.17.1/Drivers/STM32L4xx_HAL_Driver/Src/stm32l4xx_hal_pwr_ex.c ****   * @retval None
 309:/home/barnecle/STM32Cube/Repository/STM32Cube_FW_L4_V1.17.1/Drivers/STM32L4xx_HAL_Driver/Src/stm32l4xx_hal_pwr_ex.c ****   */
 310:/home/barnecle/STM32Cube/Repository/STM32Cube_FW_L4_V1.17.1/Drivers/STM32L4xx_HAL_Driver/Src/stm32l4xx_hal_pwr_ex.c **** void HAL_PWREx_EnableVddUSB(void)
 311:/home/barnecle/STM32Cube/Repository/STM32Cube_FW_L4_V1.17.1/Drivers/STM32L4xx_HAL_Driver/Src/stm32l4xx_hal_pwr_ex.c **** {
 253              		.loc 1 311 1 is_stmt 1 view -0
 254              		.cfi_startproc
 255              		@ args = 0, pretend = 0, frame = 0
 256              		@ frame_needed = 0, uses_anonymous_args = 0
 257              		@ link register save eliminated.
 312:/home/barnecle/STM32Cube/Repository/STM32Cube_FW_L4_V1.17.1/Drivers/STM32L4xx_HAL_Driver/Src/stm32l4xx_hal_pwr_ex.c ****   SET_BIT(PWR->CR2, PWR_CR2_USV);
 258              		.loc 1 312 3 view .LVU52
 259 0000 024A     		ldr	r2, .L23
 260 0002 5368     		ldr	r3, [r2, #4]
 261 0004 43F48063 		orr	r3, r3, #1024
 262 0008 5360     		str	r3, [r2, #4]
 313:/home/barnecle/STM32Cube/Repository/STM32Cube_FW_L4_V1.17.1/Drivers/STM32L4xx_HAL_Driver/Src/stm32l4xx_hal_pwr_ex.c **** }
 263              		.loc 1 313 1 is_stmt 0 view .LVU53
 264 000a 7047     		bx	lr
 265              	.L24:
 266              		.align	2
 267              	.L23:
 268 000c 00700040 		.word	1073770496
 269              		.cfi_endproc
 270              	.LFE136:
 272              		.section	.text.HAL_PWREx_DisableVddUSB,"ax",%progbits
 273              		.align	1
 274              		.global	HAL_PWREx_DisableVddUSB
 275              		.syntax unified
 276              		.thumb
 277              		.thumb_func
 279              	HAL_PWREx_DisableVddUSB:
 280              	.LFB137:
 314:/home/barnecle/STM32Cube/Repository/STM32Cube_FW_L4_V1.17.1/Drivers/STM32L4xx_HAL_Driver/Src/stm32l4xx_hal_pwr_ex.c **** 
 315:/home/barnecle/STM32Cube/Repository/STM32Cube_FW_L4_V1.17.1/Drivers/STM32L4xx_HAL_Driver/Src/stm32l4xx_hal_pwr_ex.c **** 
 316:/home/barnecle/STM32Cube/Repository/STM32Cube_FW_L4_V1.17.1/Drivers/STM32L4xx_HAL_Driver/Src/stm32l4xx_hal_pwr_ex.c **** /**
 317:/home/barnecle/STM32Cube/Repository/STM32Cube_FW_L4_V1.17.1/Drivers/STM32L4xx_HAL_Driver/Src/stm32l4xx_hal_pwr_ex.c ****   * @brief Disable VDDUSB supply.
 318:/home/barnecle/STM32Cube/Repository/STM32Cube_FW_L4_V1.17.1/Drivers/STM32L4xx_HAL_Driver/Src/stm32l4xx_hal_pwr_ex.c ****   * @retval None
 319:/home/barnecle/STM32Cube/Repository/STM32Cube_FW_L4_V1.17.1/Drivers/STM32L4xx_HAL_Driver/Src/stm32l4xx_hal_pwr_ex.c ****   */
 320:/home/barnecle/STM32Cube/Repository/STM32Cube_FW_L4_V1.17.1/Drivers/STM32L4xx_HAL_Driver/Src/stm32l4xx_hal_pwr_ex.c **** void HAL_PWREx_DisableVddUSB(void)
 321:/home/barnecle/STM32Cube/Repository/STM32Cube_FW_L4_V1.17.1/Drivers/STM32L4xx_HAL_Driver/Src/stm32l4xx_hal_pwr_ex.c **** {
 281              		.loc 1 321 1 is_stmt 1 view -0
 282              		.cfi_startproc
 283              		@ args = 0, pretend = 0, frame = 0
 284              		@ frame_needed = 0, uses_anonymous_args = 0
 285              		@ link register save eliminated.
 322:/home/barnecle/STM32Cube/Repository/STM32Cube_FW_L4_V1.17.1/Drivers/STM32L4xx_HAL_Driver/Src/stm32l4xx_hal_pwr_ex.c ****   CLEAR_BIT(PWR->CR2, PWR_CR2_USV);
 286              		.loc 1 322 3 view .LVU55
 287 0000 024A     		ldr	r2, .L26
 288 0002 5368     		ldr	r3, [r2, #4]
 289 0004 23F48063 		bic	r3, r3, #1024
 290 0008 5360     		str	r3, [r2, #4]
 323:/home/barnecle/STM32Cube/Repository/STM32Cube_FW_L4_V1.17.1/Drivers/STM32L4xx_HAL_Driver/Src/stm32l4xx_hal_pwr_ex.c **** }
 291              		.loc 1 323 1 is_stmt 0 view .LVU56
 292 000a 7047     		bx	lr
 293              	.L27:
ARM GAS  /tmp/ccNJjxjx.s 			page 12


 294              		.align	2
 295              	.L26:
 296 000c 00700040 		.word	1073770496
 297              		.cfi_endproc
 298              	.LFE137:
 300              		.section	.text.HAL_PWREx_EnableInternalWakeUpLine,"ax",%progbits
 301              		.align	1
 302              		.global	HAL_PWREx_EnableInternalWakeUpLine
 303              		.syntax unified
 304              		.thumb
 305              		.thumb_func
 307              	HAL_PWREx_EnableInternalWakeUpLine:
 308              	.LFB138:
 324:/home/barnecle/STM32Cube/Repository/STM32Cube_FW_L4_V1.17.1/Drivers/STM32L4xx_HAL_Driver/Src/stm32l4xx_hal_pwr_ex.c **** #endif /* PWR_CR2_USV */
 325:/home/barnecle/STM32Cube/Repository/STM32Cube_FW_L4_V1.17.1/Drivers/STM32L4xx_HAL_Driver/Src/stm32l4xx_hal_pwr_ex.c **** 
 326:/home/barnecle/STM32Cube/Repository/STM32Cube_FW_L4_V1.17.1/Drivers/STM32L4xx_HAL_Driver/Src/stm32l4xx_hal_pwr_ex.c **** #if defined(PWR_CR2_IOSV)
 327:/home/barnecle/STM32Cube/Repository/STM32Cube_FW_L4_V1.17.1/Drivers/STM32L4xx_HAL_Driver/Src/stm32l4xx_hal_pwr_ex.c **** /**
 328:/home/barnecle/STM32Cube/Repository/STM32Cube_FW_L4_V1.17.1/Drivers/STM32L4xx_HAL_Driver/Src/stm32l4xx_hal_pwr_ex.c ****   * @brief Enable VDDIO2 supply.
 329:/home/barnecle/STM32Cube/Repository/STM32Cube_FW_L4_V1.17.1/Drivers/STM32L4xx_HAL_Driver/Src/stm32l4xx_hal_pwr_ex.c ****   * @note  Remove VDDIO2 electrical and logical isolation, once VDDIO2 supply is present.
 330:/home/barnecle/STM32Cube/Repository/STM32Cube_FW_L4_V1.17.1/Drivers/STM32L4xx_HAL_Driver/Src/stm32l4xx_hal_pwr_ex.c ****   * @retval None
 331:/home/barnecle/STM32Cube/Repository/STM32Cube_FW_L4_V1.17.1/Drivers/STM32L4xx_HAL_Driver/Src/stm32l4xx_hal_pwr_ex.c ****   */
 332:/home/barnecle/STM32Cube/Repository/STM32Cube_FW_L4_V1.17.1/Drivers/STM32L4xx_HAL_Driver/Src/stm32l4xx_hal_pwr_ex.c **** void HAL_PWREx_EnableVddIO2(void)
 333:/home/barnecle/STM32Cube/Repository/STM32Cube_FW_L4_V1.17.1/Drivers/STM32L4xx_HAL_Driver/Src/stm32l4xx_hal_pwr_ex.c **** {
 334:/home/barnecle/STM32Cube/Repository/STM32Cube_FW_L4_V1.17.1/Drivers/STM32L4xx_HAL_Driver/Src/stm32l4xx_hal_pwr_ex.c ****   SET_BIT(PWR->CR2, PWR_CR2_IOSV);
 335:/home/barnecle/STM32Cube/Repository/STM32Cube_FW_L4_V1.17.1/Drivers/STM32L4xx_HAL_Driver/Src/stm32l4xx_hal_pwr_ex.c **** }
 336:/home/barnecle/STM32Cube/Repository/STM32Cube_FW_L4_V1.17.1/Drivers/STM32L4xx_HAL_Driver/Src/stm32l4xx_hal_pwr_ex.c **** 
 337:/home/barnecle/STM32Cube/Repository/STM32Cube_FW_L4_V1.17.1/Drivers/STM32L4xx_HAL_Driver/Src/stm32l4xx_hal_pwr_ex.c **** 
 338:/home/barnecle/STM32Cube/Repository/STM32Cube_FW_L4_V1.17.1/Drivers/STM32L4xx_HAL_Driver/Src/stm32l4xx_hal_pwr_ex.c **** /**
 339:/home/barnecle/STM32Cube/Repository/STM32Cube_FW_L4_V1.17.1/Drivers/STM32L4xx_HAL_Driver/Src/stm32l4xx_hal_pwr_ex.c ****   * @brief Disable VDDIO2 supply.
 340:/home/barnecle/STM32Cube/Repository/STM32Cube_FW_L4_V1.17.1/Drivers/STM32L4xx_HAL_Driver/Src/stm32l4xx_hal_pwr_ex.c ****   * @retval None
 341:/home/barnecle/STM32Cube/Repository/STM32Cube_FW_L4_V1.17.1/Drivers/STM32L4xx_HAL_Driver/Src/stm32l4xx_hal_pwr_ex.c ****   */
 342:/home/barnecle/STM32Cube/Repository/STM32Cube_FW_L4_V1.17.1/Drivers/STM32L4xx_HAL_Driver/Src/stm32l4xx_hal_pwr_ex.c **** void HAL_PWREx_DisableVddIO2(void)
 343:/home/barnecle/STM32Cube/Repository/STM32Cube_FW_L4_V1.17.1/Drivers/STM32L4xx_HAL_Driver/Src/stm32l4xx_hal_pwr_ex.c **** {
 344:/home/barnecle/STM32Cube/Repository/STM32Cube_FW_L4_V1.17.1/Drivers/STM32L4xx_HAL_Driver/Src/stm32l4xx_hal_pwr_ex.c ****   CLEAR_BIT(PWR->CR2, PWR_CR2_IOSV);
 345:/home/barnecle/STM32Cube/Repository/STM32Cube_FW_L4_V1.17.1/Drivers/STM32L4xx_HAL_Driver/Src/stm32l4xx_hal_pwr_ex.c **** }
 346:/home/barnecle/STM32Cube/Repository/STM32Cube_FW_L4_V1.17.1/Drivers/STM32L4xx_HAL_Driver/Src/stm32l4xx_hal_pwr_ex.c **** #endif /* PWR_CR2_IOSV */
 347:/home/barnecle/STM32Cube/Repository/STM32Cube_FW_L4_V1.17.1/Drivers/STM32L4xx_HAL_Driver/Src/stm32l4xx_hal_pwr_ex.c **** 
 348:/home/barnecle/STM32Cube/Repository/STM32Cube_FW_L4_V1.17.1/Drivers/STM32L4xx_HAL_Driver/Src/stm32l4xx_hal_pwr_ex.c **** 
 349:/home/barnecle/STM32Cube/Repository/STM32Cube_FW_L4_V1.17.1/Drivers/STM32L4xx_HAL_Driver/Src/stm32l4xx_hal_pwr_ex.c **** /**
 350:/home/barnecle/STM32Cube/Repository/STM32Cube_FW_L4_V1.17.1/Drivers/STM32L4xx_HAL_Driver/Src/stm32l4xx_hal_pwr_ex.c ****   * @brief Enable Internal Wake-up Line.
 351:/home/barnecle/STM32Cube/Repository/STM32Cube_FW_L4_V1.17.1/Drivers/STM32L4xx_HAL_Driver/Src/stm32l4xx_hal_pwr_ex.c ****   * @retval None
 352:/home/barnecle/STM32Cube/Repository/STM32Cube_FW_L4_V1.17.1/Drivers/STM32L4xx_HAL_Driver/Src/stm32l4xx_hal_pwr_ex.c ****   */
 353:/home/barnecle/STM32Cube/Repository/STM32Cube_FW_L4_V1.17.1/Drivers/STM32L4xx_HAL_Driver/Src/stm32l4xx_hal_pwr_ex.c **** void HAL_PWREx_EnableInternalWakeUpLine(void)
 354:/home/barnecle/STM32Cube/Repository/STM32Cube_FW_L4_V1.17.1/Drivers/STM32L4xx_HAL_Driver/Src/stm32l4xx_hal_pwr_ex.c **** {
 309              		.loc 1 354 1 is_stmt 1 view -0
 310              		.cfi_startproc
 311              		@ args = 0, pretend = 0, frame = 0
 312              		@ frame_needed = 0, uses_anonymous_args = 0
 313              		@ link register save eliminated.
 355:/home/barnecle/STM32Cube/Repository/STM32Cube_FW_L4_V1.17.1/Drivers/STM32L4xx_HAL_Driver/Src/stm32l4xx_hal_pwr_ex.c ****   SET_BIT(PWR->CR3, PWR_CR3_EIWF);
 314              		.loc 1 355 3 view .LVU58
 315 0000 024A     		ldr	r2, .L29
 316 0002 9368     		ldr	r3, [r2, #8]
 317 0004 43F40043 		orr	r3, r3, #32768
 318 0008 9360     		str	r3, [r2, #8]
 356:/home/barnecle/STM32Cube/Repository/STM32Cube_FW_L4_V1.17.1/Drivers/STM32L4xx_HAL_Driver/Src/stm32l4xx_hal_pwr_ex.c **** }
 319              		.loc 1 356 1 is_stmt 0 view .LVU59
ARM GAS  /tmp/ccNJjxjx.s 			page 13


 320 000a 7047     		bx	lr
 321              	.L30:
 322              		.align	2
 323              	.L29:
 324 000c 00700040 		.word	1073770496
 325              		.cfi_endproc
 326              	.LFE138:
 328              		.section	.text.HAL_PWREx_DisableInternalWakeUpLine,"ax",%progbits
 329              		.align	1
 330              		.global	HAL_PWREx_DisableInternalWakeUpLine
 331              		.syntax unified
 332              		.thumb
 333              		.thumb_func
 335              	HAL_PWREx_DisableInternalWakeUpLine:
 336              	.LFB139:
 357:/home/barnecle/STM32Cube/Repository/STM32Cube_FW_L4_V1.17.1/Drivers/STM32L4xx_HAL_Driver/Src/stm32l4xx_hal_pwr_ex.c **** 
 358:/home/barnecle/STM32Cube/Repository/STM32Cube_FW_L4_V1.17.1/Drivers/STM32L4xx_HAL_Driver/Src/stm32l4xx_hal_pwr_ex.c **** 
 359:/home/barnecle/STM32Cube/Repository/STM32Cube_FW_L4_V1.17.1/Drivers/STM32L4xx_HAL_Driver/Src/stm32l4xx_hal_pwr_ex.c **** /**
 360:/home/barnecle/STM32Cube/Repository/STM32Cube_FW_L4_V1.17.1/Drivers/STM32L4xx_HAL_Driver/Src/stm32l4xx_hal_pwr_ex.c ****   * @brief Disable Internal Wake-up Line.
 361:/home/barnecle/STM32Cube/Repository/STM32Cube_FW_L4_V1.17.1/Drivers/STM32L4xx_HAL_Driver/Src/stm32l4xx_hal_pwr_ex.c ****   * @retval None
 362:/home/barnecle/STM32Cube/Repository/STM32Cube_FW_L4_V1.17.1/Drivers/STM32L4xx_HAL_Driver/Src/stm32l4xx_hal_pwr_ex.c ****   */
 363:/home/barnecle/STM32Cube/Repository/STM32Cube_FW_L4_V1.17.1/Drivers/STM32L4xx_HAL_Driver/Src/stm32l4xx_hal_pwr_ex.c **** void HAL_PWREx_DisableInternalWakeUpLine(void)
 364:/home/barnecle/STM32Cube/Repository/STM32Cube_FW_L4_V1.17.1/Drivers/STM32L4xx_HAL_Driver/Src/stm32l4xx_hal_pwr_ex.c **** {
 337              		.loc 1 364 1 is_stmt 1 view -0
 338              		.cfi_startproc
 339              		@ args = 0, pretend = 0, frame = 0
 340              		@ frame_needed = 0, uses_anonymous_args = 0
 341              		@ link register save eliminated.
 365:/home/barnecle/STM32Cube/Repository/STM32Cube_FW_L4_V1.17.1/Drivers/STM32L4xx_HAL_Driver/Src/stm32l4xx_hal_pwr_ex.c ****   CLEAR_BIT(PWR->CR3, PWR_CR3_EIWF);
 342              		.loc 1 365 3 view .LVU61
 343 0000 024A     		ldr	r2, .L32
 344 0002 9368     		ldr	r3, [r2, #8]
 345 0004 23F40043 		bic	r3, r3, #32768
 346 0008 9360     		str	r3, [r2, #8]
 366:/home/barnecle/STM32Cube/Repository/STM32Cube_FW_L4_V1.17.1/Drivers/STM32L4xx_HAL_Driver/Src/stm32l4xx_hal_pwr_ex.c **** }
 347              		.loc 1 366 1 is_stmt 0 view .LVU62
 348 000a 7047     		bx	lr
 349              	.L33:
 350              		.align	2
 351              	.L32:
 352 000c 00700040 		.word	1073770496
 353              		.cfi_endproc
 354              	.LFE139:
 356              		.section	.text.HAL_PWREx_EnableGPIOPullUp,"ax",%progbits
 357              		.align	1
 358              		.global	HAL_PWREx_EnableGPIOPullUp
 359              		.syntax unified
 360              		.thumb
 361              		.thumb_func
 363              	HAL_PWREx_EnableGPIOPullUp:
 364              	.LVL14:
 365              	.LFB140:
 367:/home/barnecle/STM32Cube/Repository/STM32Cube_FW_L4_V1.17.1/Drivers/STM32L4xx_HAL_Driver/Src/stm32l4xx_hal_pwr_ex.c **** 
 368:/home/barnecle/STM32Cube/Repository/STM32Cube_FW_L4_V1.17.1/Drivers/STM32L4xx_HAL_Driver/Src/stm32l4xx_hal_pwr_ex.c **** 
 369:/home/barnecle/STM32Cube/Repository/STM32Cube_FW_L4_V1.17.1/Drivers/STM32L4xx_HAL_Driver/Src/stm32l4xx_hal_pwr_ex.c **** 
 370:/home/barnecle/STM32Cube/Repository/STM32Cube_FW_L4_V1.17.1/Drivers/STM32L4xx_HAL_Driver/Src/stm32l4xx_hal_pwr_ex.c **** /**
 371:/home/barnecle/STM32Cube/Repository/STM32Cube_FW_L4_V1.17.1/Drivers/STM32L4xx_HAL_Driver/Src/stm32l4xx_hal_pwr_ex.c ****   * @brief Enable GPIO pull-up state in Standby and Shutdown modes.
ARM GAS  /tmp/ccNJjxjx.s 			page 14


 372:/home/barnecle/STM32Cube/Repository/STM32Cube_FW_L4_V1.17.1/Drivers/STM32L4xx_HAL_Driver/Src/stm32l4xx_hal_pwr_ex.c ****   * @note  Set the relevant PUy bits of PWR_PUCRx register to configure the I/O in
 373:/home/barnecle/STM32Cube/Repository/STM32Cube_FW_L4_V1.17.1/Drivers/STM32L4xx_HAL_Driver/Src/stm32l4xx_hal_pwr_ex.c ****   *        pull-up state in Standby and Shutdown modes.
 374:/home/barnecle/STM32Cube/Repository/STM32Cube_FW_L4_V1.17.1/Drivers/STM32L4xx_HAL_Driver/Src/stm32l4xx_hal_pwr_ex.c ****   * @note  This state is effective in Standby and Shutdown modes only if APC bit
 375:/home/barnecle/STM32Cube/Repository/STM32Cube_FW_L4_V1.17.1/Drivers/STM32L4xx_HAL_Driver/Src/stm32l4xx_hal_pwr_ex.c ****   *        is set through HAL_PWREx_EnablePullUpPullDownConfig() API.
 376:/home/barnecle/STM32Cube/Repository/STM32Cube_FW_L4_V1.17.1/Drivers/STM32L4xx_HAL_Driver/Src/stm32l4xx_hal_pwr_ex.c ****   * @note  The configuration is lost when exiting the Shutdown mode due to the
 377:/home/barnecle/STM32Cube/Repository/STM32Cube_FW_L4_V1.17.1/Drivers/STM32L4xx_HAL_Driver/Src/stm32l4xx_hal_pwr_ex.c ****   *        power-on reset, maintained when exiting the Standby mode.
 378:/home/barnecle/STM32Cube/Repository/STM32Cube_FW_L4_V1.17.1/Drivers/STM32L4xx_HAL_Driver/Src/stm32l4xx_hal_pwr_ex.c ****   * @note  To avoid any conflict at Standby and Shutdown modes exits, the corresponding
 379:/home/barnecle/STM32Cube/Repository/STM32Cube_FW_L4_V1.17.1/Drivers/STM32L4xx_HAL_Driver/Src/stm32l4xx_hal_pwr_ex.c ****   *        PDy bit of PWR_PDCRx register is cleared unless it is reserved.
 380:/home/barnecle/STM32Cube/Repository/STM32Cube_FW_L4_V1.17.1/Drivers/STM32L4xx_HAL_Driver/Src/stm32l4xx_hal_pwr_ex.c ****   * @note  Even if a PUy bit to set is reserved, the other PUy bits entered as input
 381:/home/barnecle/STM32Cube/Repository/STM32Cube_FW_L4_V1.17.1/Drivers/STM32L4xx_HAL_Driver/Src/stm32l4xx_hal_pwr_ex.c ****   *        parameter at the same time are set.
 382:/home/barnecle/STM32Cube/Repository/STM32Cube_FW_L4_V1.17.1/Drivers/STM32L4xx_HAL_Driver/Src/stm32l4xx_hal_pwr_ex.c ****   * @param  GPIO Specify the IO port. This parameter can be PWR_GPIO_A, ..., PWR_GPIO_H
 383:/home/barnecle/STM32Cube/Repository/STM32Cube_FW_L4_V1.17.1/Drivers/STM32L4xx_HAL_Driver/Src/stm32l4xx_hal_pwr_ex.c ****   *         (or PWR_GPIO_I depending on the devices) to select the GPIO peripheral.
 384:/home/barnecle/STM32Cube/Repository/STM32Cube_FW_L4_V1.17.1/Drivers/STM32L4xx_HAL_Driver/Src/stm32l4xx_hal_pwr_ex.c ****   * @param  GPIONumber Specify the I/O pins numbers.
 385:/home/barnecle/STM32Cube/Repository/STM32Cube_FW_L4_V1.17.1/Drivers/STM32L4xx_HAL_Driver/Src/stm32l4xx_hal_pwr_ex.c ****   *         This parameter can be one of the following values:
 386:/home/barnecle/STM32Cube/Repository/STM32Cube_FW_L4_V1.17.1/Drivers/STM32L4xx_HAL_Driver/Src/stm32l4xx_hal_pwr_ex.c ****   *         PWR_GPIO_BIT_0, ..., PWR_GPIO_BIT_15 (except for the port where less
 387:/home/barnecle/STM32Cube/Repository/STM32Cube_FW_L4_V1.17.1/Drivers/STM32L4xx_HAL_Driver/Src/stm32l4xx_hal_pwr_ex.c ****   *         I/O pins are available) or the logical OR of several of them to set
 388:/home/barnecle/STM32Cube/Repository/STM32Cube_FW_L4_V1.17.1/Drivers/STM32L4xx_HAL_Driver/Src/stm32l4xx_hal_pwr_ex.c ****   *         several bits for a given port in a single API call.
 389:/home/barnecle/STM32Cube/Repository/STM32Cube_FW_L4_V1.17.1/Drivers/STM32L4xx_HAL_Driver/Src/stm32l4xx_hal_pwr_ex.c ****   * @retval HAL Status
 390:/home/barnecle/STM32Cube/Repository/STM32Cube_FW_L4_V1.17.1/Drivers/STM32L4xx_HAL_Driver/Src/stm32l4xx_hal_pwr_ex.c ****   */
 391:/home/barnecle/STM32Cube/Repository/STM32Cube_FW_L4_V1.17.1/Drivers/STM32L4xx_HAL_Driver/Src/stm32l4xx_hal_pwr_ex.c **** HAL_StatusTypeDef HAL_PWREx_EnableGPIOPullUp(uint32_t GPIO, uint32_t GPIONumber)
 392:/home/barnecle/STM32Cube/Repository/STM32Cube_FW_L4_V1.17.1/Drivers/STM32L4xx_HAL_Driver/Src/stm32l4xx_hal_pwr_ex.c **** {
 366              		.loc 1 392 1 is_stmt 1 view -0
 367              		.cfi_startproc
 368              		@ args = 0, pretend = 0, frame = 0
 369              		@ frame_needed = 0, uses_anonymous_args = 0
 370              		@ link register save eliminated.
 393:/home/barnecle/STM32Cube/Repository/STM32Cube_FW_L4_V1.17.1/Drivers/STM32L4xx_HAL_Driver/Src/stm32l4xx_hal_pwr_ex.c ****   HAL_StatusTypeDef status = HAL_OK;
 371              		.loc 1 393 3 view .LVU64
 394:/home/barnecle/STM32Cube/Repository/STM32Cube_FW_L4_V1.17.1/Drivers/STM32L4xx_HAL_Driver/Src/stm32l4xx_hal_pwr_ex.c **** 
 395:/home/barnecle/STM32Cube/Repository/STM32Cube_FW_L4_V1.17.1/Drivers/STM32L4xx_HAL_Driver/Src/stm32l4xx_hal_pwr_ex.c ****   assert_param(IS_PWR_GPIO(GPIO));
 372              		.loc 1 395 3 view .LVU65
 396:/home/barnecle/STM32Cube/Repository/STM32Cube_FW_L4_V1.17.1/Drivers/STM32L4xx_HAL_Driver/Src/stm32l4xx_hal_pwr_ex.c ****   assert_param(IS_PWR_GPIO_BIT_NUMBER(GPIONumber));
 373              		.loc 1 396 3 view .LVU66
 397:/home/barnecle/STM32Cube/Repository/STM32Cube_FW_L4_V1.17.1/Drivers/STM32L4xx_HAL_Driver/Src/stm32l4xx_hal_pwr_ex.c **** 
 398:/home/barnecle/STM32Cube/Repository/STM32Cube_FW_L4_V1.17.1/Drivers/STM32L4xx_HAL_Driver/Src/stm32l4xx_hal_pwr_ex.c ****   switch (GPIO)
 374              		.loc 1 398 3 view .LVU67
 375 0000 0728     		cmp	r0, #7
 376 0002 3FD8     		bhi	.L42
 377 0004 DFE800F0 		tbb	[pc, r0]
 378              	.L37:
 379 0008 04       		.byte	(.L41-.L37)/2
 380 0009 12       		.byte	(.L40-.L37)/2
 381 000a 1E       		.byte	(.L39-.L37)/2
 382 000b 28       		.byte	(.L38-.L37)/2
 383 000c 3E       		.byte	(.L42-.L37)/2
 384 000d 3E       		.byte	(.L42-.L37)/2
 385 000e 3E       		.byte	(.L42-.L37)/2
 386 000f 32       		.byte	(.L36-.L37)/2
 387              		.p2align 1
 388              	.L41:
 399:/home/barnecle/STM32Cube/Repository/STM32Cube_FW_L4_V1.17.1/Drivers/STM32L4xx_HAL_Driver/Src/stm32l4xx_hal_pwr_ex.c ****   {
 400:/home/barnecle/STM32Cube/Repository/STM32Cube_FW_L4_V1.17.1/Drivers/STM32L4xx_HAL_Driver/Src/stm32l4xx_hal_pwr_ex.c ****     case PWR_GPIO_A:
 401:/home/barnecle/STM32Cube/Repository/STM32Cube_FW_L4_V1.17.1/Drivers/STM32L4xx_HAL_Driver/Src/stm32l4xx_hal_pwr_ex.c ****        SET_BIT(PWR->PUCRA, (GPIONumber & (~(PWR_GPIO_BIT_14))));
 389              		.loc 1 401 8 view .LVU68
 390 0010 1D4B     		ldr	r3, .L43
 391 0012 1A6A     		ldr	r2, [r3, #32]
 392 0014 21F48040 		bic	r0, r1, #16384
ARM GAS  /tmp/ccNJjxjx.s 			page 15


 393              	.LVL15:
 394              		.loc 1 401 8 is_stmt 0 view .LVU69
 395 0018 0243     		orrs	r2, r2, r0
 396 001a 1A62     		str	r2, [r3, #32]
 402:/home/barnecle/STM32Cube/Repository/STM32Cube_FW_L4_V1.17.1/Drivers/STM32L4xx_HAL_Driver/Src/stm32l4xx_hal_pwr_ex.c ****        CLEAR_BIT(PWR->PDCRA, (GPIONumber & (~(PWR_GPIO_BIT_13|PWR_GPIO_BIT_15))));
 397              		.loc 1 402 8 is_stmt 1 view .LVU70
 398 001c 5A6A     		ldr	r2, [r3, #36]
 399 001e 21F42041 		bic	r1, r1, #40960
 400              	.LVL16:
 401              		.loc 1 402 8 is_stmt 0 view .LVU71
 402 0022 22EA0101 		bic	r1, r2, r1
 403 0026 5962     		str	r1, [r3, #36]
 403:/home/barnecle/STM32Cube/Repository/STM32Cube_FW_L4_V1.17.1/Drivers/STM32L4xx_HAL_Driver/Src/stm32l4xx_hal_pwr_ex.c ****        break;
 404              		.loc 1 403 8 is_stmt 1 view .LVU72
 393:/home/barnecle/STM32Cube/Repository/STM32Cube_FW_L4_V1.17.1/Drivers/STM32L4xx_HAL_Driver/Src/stm32l4xx_hal_pwr_ex.c **** 
 405              		.loc 1 393 21 is_stmt 0 view .LVU73
 406 0028 0020     		movs	r0, #0
 407              		.loc 1 403 8 view .LVU74
 408 002a 7047     		bx	lr
 409              	.LVL17:
 410              	.L40:
 404:/home/barnecle/STM32Cube/Repository/STM32Cube_FW_L4_V1.17.1/Drivers/STM32L4xx_HAL_Driver/Src/stm32l4xx_hal_pwr_ex.c ****     case PWR_GPIO_B:
 405:/home/barnecle/STM32Cube/Repository/STM32Cube_FW_L4_V1.17.1/Drivers/STM32L4xx_HAL_Driver/Src/stm32l4xx_hal_pwr_ex.c ****        SET_BIT(PWR->PUCRB, GPIONumber);
 411              		.loc 1 405 8 is_stmt 1 view .LVU75
 412 002c 164B     		ldr	r3, .L43
 413 002e 9A6A     		ldr	r2, [r3, #40]
 414 0030 0A43     		orrs	r2, r2, r1
 415 0032 9A62     		str	r2, [r3, #40]
 406:/home/barnecle/STM32Cube/Repository/STM32Cube_FW_L4_V1.17.1/Drivers/STM32L4xx_HAL_Driver/Src/stm32l4xx_hal_pwr_ex.c ****        CLEAR_BIT(PWR->PDCRB, (GPIONumber & (~(PWR_GPIO_BIT_4))));
 416              		.loc 1 406 8 view .LVU76
 417 0034 DA6A     		ldr	r2, [r3, #44]
 418 0036 21F01001 		bic	r1, r1, #16
 419              	.LVL18:
 420              		.loc 1 406 8 is_stmt 0 view .LVU77
 421 003a 22EA0101 		bic	r1, r2, r1
 422 003e D962     		str	r1, [r3, #44]
 407:/home/barnecle/STM32Cube/Repository/STM32Cube_FW_L4_V1.17.1/Drivers/STM32L4xx_HAL_Driver/Src/stm32l4xx_hal_pwr_ex.c ****        break;
 423              		.loc 1 407 8 is_stmt 1 view .LVU78
 393:/home/barnecle/STM32Cube/Repository/STM32Cube_FW_L4_V1.17.1/Drivers/STM32L4xx_HAL_Driver/Src/stm32l4xx_hal_pwr_ex.c **** 
 424              		.loc 1 393 21 is_stmt 0 view .LVU79
 425 0040 0020     		movs	r0, #0
 426              	.LVL19:
 427              		.loc 1 407 8 view .LVU80
 428 0042 7047     		bx	lr
 429              	.LVL20:
 430              	.L39:
 408:/home/barnecle/STM32Cube/Repository/STM32Cube_FW_L4_V1.17.1/Drivers/STM32L4xx_HAL_Driver/Src/stm32l4xx_hal_pwr_ex.c ****     case PWR_GPIO_C:
 409:/home/barnecle/STM32Cube/Repository/STM32Cube_FW_L4_V1.17.1/Drivers/STM32L4xx_HAL_Driver/Src/stm32l4xx_hal_pwr_ex.c ****        SET_BIT(PWR->PUCRC, GPIONumber);
 431              		.loc 1 409 8 is_stmt 1 view .LVU81
 432 0044 104B     		ldr	r3, .L43
 433 0046 1A6B     		ldr	r2, [r3, #48]
 434 0048 0A43     		orrs	r2, r2, r1
 435 004a 1A63     		str	r2, [r3, #48]
 410:/home/barnecle/STM32Cube/Repository/STM32Cube_FW_L4_V1.17.1/Drivers/STM32L4xx_HAL_Driver/Src/stm32l4xx_hal_pwr_ex.c ****        CLEAR_BIT(PWR->PDCRC, GPIONumber);
 436              		.loc 1 410 8 view .LVU82
 437 004c 5A6B     		ldr	r2, [r3, #52]
 438 004e 22EA0101 		bic	r1, r2, r1
ARM GAS  /tmp/ccNJjxjx.s 			page 16


 439              	.LVL21:
 440              		.loc 1 410 8 is_stmt 0 view .LVU83
 441 0052 5963     		str	r1, [r3, #52]
 411:/home/barnecle/STM32Cube/Repository/STM32Cube_FW_L4_V1.17.1/Drivers/STM32L4xx_HAL_Driver/Src/stm32l4xx_hal_pwr_ex.c ****        break;
 442              		.loc 1 411 8 is_stmt 1 view .LVU84
 393:/home/barnecle/STM32Cube/Repository/STM32Cube_FW_L4_V1.17.1/Drivers/STM32L4xx_HAL_Driver/Src/stm32l4xx_hal_pwr_ex.c **** 
 443              		.loc 1 393 21 is_stmt 0 view .LVU85
 444 0054 0020     		movs	r0, #0
 445              	.LVL22:
 446              		.loc 1 411 8 view .LVU86
 447 0056 7047     		bx	lr
 448              	.LVL23:
 449              	.L38:
 412:/home/barnecle/STM32Cube/Repository/STM32Cube_FW_L4_V1.17.1/Drivers/STM32L4xx_HAL_Driver/Src/stm32l4xx_hal_pwr_ex.c **** #if defined(GPIOD)
 413:/home/barnecle/STM32Cube/Repository/STM32Cube_FW_L4_V1.17.1/Drivers/STM32L4xx_HAL_Driver/Src/stm32l4xx_hal_pwr_ex.c ****     case PWR_GPIO_D:
 414:/home/barnecle/STM32Cube/Repository/STM32Cube_FW_L4_V1.17.1/Drivers/STM32L4xx_HAL_Driver/Src/stm32l4xx_hal_pwr_ex.c ****        SET_BIT(PWR->PUCRD, GPIONumber);
 450              		.loc 1 414 8 is_stmt 1 view .LVU87
 451 0058 0B4B     		ldr	r3, .L43
 452 005a 9A6B     		ldr	r2, [r3, #56]
 453 005c 0A43     		orrs	r2, r2, r1
 454 005e 9A63     		str	r2, [r3, #56]
 415:/home/barnecle/STM32Cube/Repository/STM32Cube_FW_L4_V1.17.1/Drivers/STM32L4xx_HAL_Driver/Src/stm32l4xx_hal_pwr_ex.c ****        CLEAR_BIT(PWR->PDCRD, GPIONumber);
 455              		.loc 1 415 8 view .LVU88
 456 0060 DA6B     		ldr	r2, [r3, #60]
 457 0062 22EA0101 		bic	r1, r2, r1
 458              	.LVL24:
 459              		.loc 1 415 8 is_stmt 0 view .LVU89
 460 0066 D963     		str	r1, [r3, #60]
 416:/home/barnecle/STM32Cube/Repository/STM32Cube_FW_L4_V1.17.1/Drivers/STM32L4xx_HAL_Driver/Src/stm32l4xx_hal_pwr_ex.c ****        break;
 461              		.loc 1 416 8 is_stmt 1 view .LVU90
 393:/home/barnecle/STM32Cube/Repository/STM32Cube_FW_L4_V1.17.1/Drivers/STM32L4xx_HAL_Driver/Src/stm32l4xx_hal_pwr_ex.c **** 
 462              		.loc 1 393 21 is_stmt 0 view .LVU91
 463 0068 0020     		movs	r0, #0
 464              	.LVL25:
 465              		.loc 1 416 8 view .LVU92
 466 006a 7047     		bx	lr
 467              	.LVL26:
 468              	.L36:
 417:/home/barnecle/STM32Cube/Repository/STM32Cube_FW_L4_V1.17.1/Drivers/STM32L4xx_HAL_Driver/Src/stm32l4xx_hal_pwr_ex.c **** #endif
 418:/home/barnecle/STM32Cube/Repository/STM32Cube_FW_L4_V1.17.1/Drivers/STM32L4xx_HAL_Driver/Src/stm32l4xx_hal_pwr_ex.c **** #if defined(GPIOE)
 419:/home/barnecle/STM32Cube/Repository/STM32Cube_FW_L4_V1.17.1/Drivers/STM32L4xx_HAL_Driver/Src/stm32l4xx_hal_pwr_ex.c ****     case PWR_GPIO_E:
 420:/home/barnecle/STM32Cube/Repository/STM32Cube_FW_L4_V1.17.1/Drivers/STM32L4xx_HAL_Driver/Src/stm32l4xx_hal_pwr_ex.c ****        SET_BIT(PWR->PUCRE, GPIONumber);
 421:/home/barnecle/STM32Cube/Repository/STM32Cube_FW_L4_V1.17.1/Drivers/STM32L4xx_HAL_Driver/Src/stm32l4xx_hal_pwr_ex.c ****        CLEAR_BIT(PWR->PDCRE, GPIONumber);
 422:/home/barnecle/STM32Cube/Repository/STM32Cube_FW_L4_V1.17.1/Drivers/STM32L4xx_HAL_Driver/Src/stm32l4xx_hal_pwr_ex.c ****        break;
 423:/home/barnecle/STM32Cube/Repository/STM32Cube_FW_L4_V1.17.1/Drivers/STM32L4xx_HAL_Driver/Src/stm32l4xx_hal_pwr_ex.c **** #endif
 424:/home/barnecle/STM32Cube/Repository/STM32Cube_FW_L4_V1.17.1/Drivers/STM32L4xx_HAL_Driver/Src/stm32l4xx_hal_pwr_ex.c **** #if defined(GPIOF)
 425:/home/barnecle/STM32Cube/Repository/STM32Cube_FW_L4_V1.17.1/Drivers/STM32L4xx_HAL_Driver/Src/stm32l4xx_hal_pwr_ex.c ****     case PWR_GPIO_F:
 426:/home/barnecle/STM32Cube/Repository/STM32Cube_FW_L4_V1.17.1/Drivers/STM32L4xx_HAL_Driver/Src/stm32l4xx_hal_pwr_ex.c ****        SET_BIT(PWR->PUCRF, GPIONumber);
 427:/home/barnecle/STM32Cube/Repository/STM32Cube_FW_L4_V1.17.1/Drivers/STM32L4xx_HAL_Driver/Src/stm32l4xx_hal_pwr_ex.c ****        CLEAR_BIT(PWR->PDCRF, GPIONumber);
 428:/home/barnecle/STM32Cube/Repository/STM32Cube_FW_L4_V1.17.1/Drivers/STM32L4xx_HAL_Driver/Src/stm32l4xx_hal_pwr_ex.c ****        break;
 429:/home/barnecle/STM32Cube/Repository/STM32Cube_FW_L4_V1.17.1/Drivers/STM32L4xx_HAL_Driver/Src/stm32l4xx_hal_pwr_ex.c **** #endif
 430:/home/barnecle/STM32Cube/Repository/STM32Cube_FW_L4_V1.17.1/Drivers/STM32L4xx_HAL_Driver/Src/stm32l4xx_hal_pwr_ex.c **** #if defined(GPIOG)
 431:/home/barnecle/STM32Cube/Repository/STM32Cube_FW_L4_V1.17.1/Drivers/STM32L4xx_HAL_Driver/Src/stm32l4xx_hal_pwr_ex.c ****     case PWR_GPIO_G:
 432:/home/barnecle/STM32Cube/Repository/STM32Cube_FW_L4_V1.17.1/Drivers/STM32L4xx_HAL_Driver/Src/stm32l4xx_hal_pwr_ex.c ****        SET_BIT(PWR->PUCRG, GPIONumber);
 433:/home/barnecle/STM32Cube/Repository/STM32Cube_FW_L4_V1.17.1/Drivers/STM32L4xx_HAL_Driver/Src/stm32l4xx_hal_pwr_ex.c ****        CLEAR_BIT(PWR->PDCRG, GPIONumber);
 434:/home/barnecle/STM32Cube/Repository/STM32Cube_FW_L4_V1.17.1/Drivers/STM32L4xx_HAL_Driver/Src/stm32l4xx_hal_pwr_ex.c ****        break;
 435:/home/barnecle/STM32Cube/Repository/STM32Cube_FW_L4_V1.17.1/Drivers/STM32L4xx_HAL_Driver/Src/stm32l4xx_hal_pwr_ex.c **** #endif
ARM GAS  /tmp/ccNJjxjx.s 			page 17


 436:/home/barnecle/STM32Cube/Repository/STM32Cube_FW_L4_V1.17.1/Drivers/STM32L4xx_HAL_Driver/Src/stm32l4xx_hal_pwr_ex.c ****     case PWR_GPIO_H:
 437:/home/barnecle/STM32Cube/Repository/STM32Cube_FW_L4_V1.17.1/Drivers/STM32L4xx_HAL_Driver/Src/stm32l4xx_hal_pwr_ex.c ****        SET_BIT(PWR->PUCRH, (GPIONumber & PWR_PORTH_AVAILABLE_PINS));
 469              		.loc 1 437 8 is_stmt 1 view .LVU93
 470 006c 064B     		ldr	r3, .L43
 471 006e 9A6D     		ldr	r2, [r3, #88]
 472 0070 01F00B01 		and	r1, r1, #11
 473              	.LVL27:
 474              		.loc 1 437 8 is_stmt 0 view .LVU94
 475 0074 0A43     		orrs	r2, r2, r1
 476 0076 9A65     		str	r2, [r3, #88]
 438:/home/barnecle/STM32Cube/Repository/STM32Cube_FW_L4_V1.17.1/Drivers/STM32L4xx_HAL_Driver/Src/stm32l4xx_hal_pwr_ex.c **** #if defined (STM32L496xx) || defined (STM32L4A6xx)
 439:/home/barnecle/STM32Cube/Repository/STM32Cube_FW_L4_V1.17.1/Drivers/STM32L4xx_HAL_Driver/Src/stm32l4xx_hal_pwr_ex.c ****        CLEAR_BIT(PWR->PDCRH, ((GPIONumber & PWR_PORTH_AVAILABLE_PINS) & (~(PWR_GPIO_BIT_3))));
 440:/home/barnecle/STM32Cube/Repository/STM32Cube_FW_L4_V1.17.1/Drivers/STM32L4xx_HAL_Driver/Src/stm32l4xx_hal_pwr_ex.c **** #else
 441:/home/barnecle/STM32Cube/Repository/STM32Cube_FW_L4_V1.17.1/Drivers/STM32L4xx_HAL_Driver/Src/stm32l4xx_hal_pwr_ex.c ****        CLEAR_BIT(PWR->PDCRH, (GPIONumber & PWR_PORTH_AVAILABLE_PINS));
 477              		.loc 1 441 8 is_stmt 1 view .LVU95
 478 0078 DA6D     		ldr	r2, [r3, #92]
 479 007a 22EA0101 		bic	r1, r2, r1
 480 007e D965     		str	r1, [r3, #92]
 442:/home/barnecle/STM32Cube/Repository/STM32Cube_FW_L4_V1.17.1/Drivers/STM32L4xx_HAL_Driver/Src/stm32l4xx_hal_pwr_ex.c **** #endif
 443:/home/barnecle/STM32Cube/Repository/STM32Cube_FW_L4_V1.17.1/Drivers/STM32L4xx_HAL_Driver/Src/stm32l4xx_hal_pwr_ex.c ****        break;
 481              		.loc 1 443 8 view .LVU96
 393:/home/barnecle/STM32Cube/Repository/STM32Cube_FW_L4_V1.17.1/Drivers/STM32L4xx_HAL_Driver/Src/stm32l4xx_hal_pwr_ex.c **** 
 482              		.loc 1 393 21 is_stmt 0 view .LVU97
 483 0080 0020     		movs	r0, #0
 484              	.LVL28:
 485              		.loc 1 443 8 view .LVU98
 486 0082 7047     		bx	lr
 487              	.LVL29:
 488              	.L42:
 398:/home/barnecle/STM32Cube/Repository/STM32Cube_FW_L4_V1.17.1/Drivers/STM32L4xx_HAL_Driver/Src/stm32l4xx_hal_pwr_ex.c ****   {
 489              		.loc 1 398 3 view .LVU99
 490 0084 0120     		movs	r0, #1
 491              	.LVL30:
 444:/home/barnecle/STM32Cube/Repository/STM32Cube_FW_L4_V1.17.1/Drivers/STM32L4xx_HAL_Driver/Src/stm32l4xx_hal_pwr_ex.c **** #if defined(GPIOI)
 445:/home/barnecle/STM32Cube/Repository/STM32Cube_FW_L4_V1.17.1/Drivers/STM32L4xx_HAL_Driver/Src/stm32l4xx_hal_pwr_ex.c ****     case PWR_GPIO_I:
 446:/home/barnecle/STM32Cube/Repository/STM32Cube_FW_L4_V1.17.1/Drivers/STM32L4xx_HAL_Driver/Src/stm32l4xx_hal_pwr_ex.c ****        SET_BIT(PWR->PUCRI, (GPIONumber & PWR_PORTI_AVAILABLE_PINS));
 447:/home/barnecle/STM32Cube/Repository/STM32Cube_FW_L4_V1.17.1/Drivers/STM32L4xx_HAL_Driver/Src/stm32l4xx_hal_pwr_ex.c ****        CLEAR_BIT(PWR->PDCRI, (GPIONumber & PWR_PORTI_AVAILABLE_PINS));
 448:/home/barnecle/STM32Cube/Repository/STM32Cube_FW_L4_V1.17.1/Drivers/STM32L4xx_HAL_Driver/Src/stm32l4xx_hal_pwr_ex.c ****        break;
 449:/home/barnecle/STM32Cube/Repository/STM32Cube_FW_L4_V1.17.1/Drivers/STM32L4xx_HAL_Driver/Src/stm32l4xx_hal_pwr_ex.c **** #endif
 450:/home/barnecle/STM32Cube/Repository/STM32Cube_FW_L4_V1.17.1/Drivers/STM32L4xx_HAL_Driver/Src/stm32l4xx_hal_pwr_ex.c ****     default:
 451:/home/barnecle/STM32Cube/Repository/STM32Cube_FW_L4_V1.17.1/Drivers/STM32L4xx_HAL_Driver/Src/stm32l4xx_hal_pwr_ex.c ****       status = HAL_ERROR;
 452:/home/barnecle/STM32Cube/Repository/STM32Cube_FW_L4_V1.17.1/Drivers/STM32L4xx_HAL_Driver/Src/stm32l4xx_hal_pwr_ex.c ****       break;
 453:/home/barnecle/STM32Cube/Repository/STM32Cube_FW_L4_V1.17.1/Drivers/STM32L4xx_HAL_Driver/Src/stm32l4xx_hal_pwr_ex.c ****   }
 454:/home/barnecle/STM32Cube/Repository/STM32Cube_FW_L4_V1.17.1/Drivers/STM32L4xx_HAL_Driver/Src/stm32l4xx_hal_pwr_ex.c **** 
 455:/home/barnecle/STM32Cube/Repository/STM32Cube_FW_L4_V1.17.1/Drivers/STM32L4xx_HAL_Driver/Src/stm32l4xx_hal_pwr_ex.c ****   return status;
 492              		.loc 1 455 3 is_stmt 1 view .LVU100
 456:/home/barnecle/STM32Cube/Repository/STM32Cube_FW_L4_V1.17.1/Drivers/STM32L4xx_HAL_Driver/Src/stm32l4xx_hal_pwr_ex.c **** }
 493              		.loc 1 456 1 is_stmt 0 view .LVU101
 494 0086 7047     		bx	lr
 495              	.L44:
 496              		.align	2
 497              	.L43:
 498 0088 00700040 		.word	1073770496
 499              		.cfi_endproc
 500              	.LFE140:
 502              		.section	.text.HAL_PWREx_DisableGPIOPullUp,"ax",%progbits
 503              		.align	1
ARM GAS  /tmp/ccNJjxjx.s 			page 18


 504              		.global	HAL_PWREx_DisableGPIOPullUp
 505              		.syntax unified
 506              		.thumb
 507              		.thumb_func
 509              	HAL_PWREx_DisableGPIOPullUp:
 510              	.LVL31:
 511              	.LFB141:
 457:/home/barnecle/STM32Cube/Repository/STM32Cube_FW_L4_V1.17.1/Drivers/STM32L4xx_HAL_Driver/Src/stm32l4xx_hal_pwr_ex.c **** 
 458:/home/barnecle/STM32Cube/Repository/STM32Cube_FW_L4_V1.17.1/Drivers/STM32L4xx_HAL_Driver/Src/stm32l4xx_hal_pwr_ex.c **** 
 459:/home/barnecle/STM32Cube/Repository/STM32Cube_FW_L4_V1.17.1/Drivers/STM32L4xx_HAL_Driver/Src/stm32l4xx_hal_pwr_ex.c **** /**
 460:/home/barnecle/STM32Cube/Repository/STM32Cube_FW_L4_V1.17.1/Drivers/STM32L4xx_HAL_Driver/Src/stm32l4xx_hal_pwr_ex.c ****   * @brief Disable GPIO pull-up state in Standby mode and Shutdown modes.
 461:/home/barnecle/STM32Cube/Repository/STM32Cube_FW_L4_V1.17.1/Drivers/STM32L4xx_HAL_Driver/Src/stm32l4xx_hal_pwr_ex.c ****   * @note  Reset the relevant PUy bits of PWR_PUCRx register used to configure the I/O
 462:/home/barnecle/STM32Cube/Repository/STM32Cube_FW_L4_V1.17.1/Drivers/STM32L4xx_HAL_Driver/Src/stm32l4xx_hal_pwr_ex.c ****   *        in pull-up state in Standby and Shutdown modes.
 463:/home/barnecle/STM32Cube/Repository/STM32Cube_FW_L4_V1.17.1/Drivers/STM32L4xx_HAL_Driver/Src/stm32l4xx_hal_pwr_ex.c ****   * @note  Even if a PUy bit to reset is reserved, the other PUy bits entered as input
 464:/home/barnecle/STM32Cube/Repository/STM32Cube_FW_L4_V1.17.1/Drivers/STM32L4xx_HAL_Driver/Src/stm32l4xx_hal_pwr_ex.c ****   *        parameter at the same time are reset.
 465:/home/barnecle/STM32Cube/Repository/STM32Cube_FW_L4_V1.17.1/Drivers/STM32L4xx_HAL_Driver/Src/stm32l4xx_hal_pwr_ex.c ****   * @param  GPIO Specifies the IO port. This parameter can be PWR_GPIO_A, ..., PWR_GPIO_H
 466:/home/barnecle/STM32Cube/Repository/STM32Cube_FW_L4_V1.17.1/Drivers/STM32L4xx_HAL_Driver/Src/stm32l4xx_hal_pwr_ex.c ****   *          (or PWR_GPIO_I depending on the devices) to select the GPIO peripheral.
 467:/home/barnecle/STM32Cube/Repository/STM32Cube_FW_L4_V1.17.1/Drivers/STM32L4xx_HAL_Driver/Src/stm32l4xx_hal_pwr_ex.c ****   * @param  GPIONumber Specify the I/O pins numbers.
 468:/home/barnecle/STM32Cube/Repository/STM32Cube_FW_L4_V1.17.1/Drivers/STM32L4xx_HAL_Driver/Src/stm32l4xx_hal_pwr_ex.c ****   *         This parameter can be one of the following values:
 469:/home/barnecle/STM32Cube/Repository/STM32Cube_FW_L4_V1.17.1/Drivers/STM32L4xx_HAL_Driver/Src/stm32l4xx_hal_pwr_ex.c ****   *         PWR_GPIO_BIT_0, ..., PWR_GPIO_BIT_15 (except for the port where less
 470:/home/barnecle/STM32Cube/Repository/STM32Cube_FW_L4_V1.17.1/Drivers/STM32L4xx_HAL_Driver/Src/stm32l4xx_hal_pwr_ex.c ****   *         I/O pins are available) or the logical OR of several of them to reset
 471:/home/barnecle/STM32Cube/Repository/STM32Cube_FW_L4_V1.17.1/Drivers/STM32L4xx_HAL_Driver/Src/stm32l4xx_hal_pwr_ex.c ****   *         several bits for a given port in a single API call.
 472:/home/barnecle/STM32Cube/Repository/STM32Cube_FW_L4_V1.17.1/Drivers/STM32L4xx_HAL_Driver/Src/stm32l4xx_hal_pwr_ex.c ****   * @retval HAL Status
 473:/home/barnecle/STM32Cube/Repository/STM32Cube_FW_L4_V1.17.1/Drivers/STM32L4xx_HAL_Driver/Src/stm32l4xx_hal_pwr_ex.c ****   */
 474:/home/barnecle/STM32Cube/Repository/STM32Cube_FW_L4_V1.17.1/Drivers/STM32L4xx_HAL_Driver/Src/stm32l4xx_hal_pwr_ex.c **** HAL_StatusTypeDef HAL_PWREx_DisableGPIOPullUp(uint32_t GPIO, uint32_t GPIONumber)
 475:/home/barnecle/STM32Cube/Repository/STM32Cube_FW_L4_V1.17.1/Drivers/STM32L4xx_HAL_Driver/Src/stm32l4xx_hal_pwr_ex.c **** {
 512              		.loc 1 475 1 is_stmt 1 view -0
 513              		.cfi_startproc
 514              		@ args = 0, pretend = 0, frame = 0
 515              		@ frame_needed = 0, uses_anonymous_args = 0
 516              		@ link register save eliminated.
 476:/home/barnecle/STM32Cube/Repository/STM32Cube_FW_L4_V1.17.1/Drivers/STM32L4xx_HAL_Driver/Src/stm32l4xx_hal_pwr_ex.c ****   HAL_StatusTypeDef status = HAL_OK;
 517              		.loc 1 476 3 view .LVU103
 477:/home/barnecle/STM32Cube/Repository/STM32Cube_FW_L4_V1.17.1/Drivers/STM32L4xx_HAL_Driver/Src/stm32l4xx_hal_pwr_ex.c **** 
 478:/home/barnecle/STM32Cube/Repository/STM32Cube_FW_L4_V1.17.1/Drivers/STM32L4xx_HAL_Driver/Src/stm32l4xx_hal_pwr_ex.c ****   assert_param(IS_PWR_GPIO(GPIO));
 518              		.loc 1 478 3 view .LVU104
 479:/home/barnecle/STM32Cube/Repository/STM32Cube_FW_L4_V1.17.1/Drivers/STM32L4xx_HAL_Driver/Src/stm32l4xx_hal_pwr_ex.c ****   assert_param(IS_PWR_GPIO_BIT_NUMBER(GPIONumber));
 519              		.loc 1 479 3 view .LVU105
 480:/home/barnecle/STM32Cube/Repository/STM32Cube_FW_L4_V1.17.1/Drivers/STM32L4xx_HAL_Driver/Src/stm32l4xx_hal_pwr_ex.c **** 
 481:/home/barnecle/STM32Cube/Repository/STM32Cube_FW_L4_V1.17.1/Drivers/STM32L4xx_HAL_Driver/Src/stm32l4xx_hal_pwr_ex.c ****   switch (GPIO)
 520              		.loc 1 481 3 view .LVU106
 521 0000 0728     		cmp	r0, #7
 522 0002 2CD8     		bhi	.L53
 523 0004 DFE800F0 		tbb	[pc, r0]
 524              	.L48:
 525 0008 04       		.byte	(.L52-.L48)/2
 526 0009 0D       		.byte	(.L51-.L48)/2
 527 000a 14       		.byte	(.L50-.L48)/2
 528 000b 1B       		.byte	(.L49-.L48)/2
 529 000c 2B       		.byte	(.L53-.L48)/2
 530 000d 2B       		.byte	(.L53-.L48)/2
 531 000e 2B       		.byte	(.L53-.L48)/2
 532 000f 22       		.byte	(.L47-.L48)/2
 533              		.p2align 1
 534              	.L52:
 482:/home/barnecle/STM32Cube/Repository/STM32Cube_FW_L4_V1.17.1/Drivers/STM32L4xx_HAL_Driver/Src/stm32l4xx_hal_pwr_ex.c ****   {
 483:/home/barnecle/STM32Cube/Repository/STM32Cube_FW_L4_V1.17.1/Drivers/STM32L4xx_HAL_Driver/Src/stm32l4xx_hal_pwr_ex.c ****     case PWR_GPIO_A:
ARM GAS  /tmp/ccNJjxjx.s 			page 19


 484:/home/barnecle/STM32Cube/Repository/STM32Cube_FW_L4_V1.17.1/Drivers/STM32L4xx_HAL_Driver/Src/stm32l4xx_hal_pwr_ex.c ****        CLEAR_BIT(PWR->PUCRA, (GPIONumber & (~(PWR_GPIO_BIT_14))));
 535              		.loc 1 484 8 view .LVU107
 536 0010 144A     		ldr	r2, .L54
 537 0012 136A     		ldr	r3, [r2, #32]
 538 0014 21F48041 		bic	r1, r1, #16384
 539              	.LVL32:
 540              		.loc 1 484 8 is_stmt 0 view .LVU108
 541 0018 23EA0101 		bic	r1, r3, r1
 542 001c 1162     		str	r1, [r2, #32]
 485:/home/barnecle/STM32Cube/Repository/STM32Cube_FW_L4_V1.17.1/Drivers/STM32L4xx_HAL_Driver/Src/stm32l4xx_hal_pwr_ex.c ****        break;
 543              		.loc 1 485 8 is_stmt 1 view .LVU109
 476:/home/barnecle/STM32Cube/Repository/STM32Cube_FW_L4_V1.17.1/Drivers/STM32L4xx_HAL_Driver/Src/stm32l4xx_hal_pwr_ex.c **** 
 544              		.loc 1 476 21 is_stmt 0 view .LVU110
 545 001e 0020     		movs	r0, #0
 546              	.LVL33:
 547              		.loc 1 485 8 view .LVU111
 548 0020 7047     		bx	lr
 549              	.LVL34:
 550              	.L51:
 486:/home/barnecle/STM32Cube/Repository/STM32Cube_FW_L4_V1.17.1/Drivers/STM32L4xx_HAL_Driver/Src/stm32l4xx_hal_pwr_ex.c ****     case PWR_GPIO_B:
 487:/home/barnecle/STM32Cube/Repository/STM32Cube_FW_L4_V1.17.1/Drivers/STM32L4xx_HAL_Driver/Src/stm32l4xx_hal_pwr_ex.c ****        CLEAR_BIT(PWR->PUCRB, GPIONumber);
 551              		.loc 1 487 8 is_stmt 1 view .LVU112
 552 0022 104A     		ldr	r2, .L54
 553 0024 936A     		ldr	r3, [r2, #40]
 554 0026 23EA0101 		bic	r1, r3, r1
 555              	.LVL35:
 556              		.loc 1 487 8 is_stmt 0 view .LVU113
 557 002a 9162     		str	r1, [r2, #40]
 488:/home/barnecle/STM32Cube/Repository/STM32Cube_FW_L4_V1.17.1/Drivers/STM32L4xx_HAL_Driver/Src/stm32l4xx_hal_pwr_ex.c ****        break;
 558              		.loc 1 488 8 is_stmt 1 view .LVU114
 476:/home/barnecle/STM32Cube/Repository/STM32Cube_FW_L4_V1.17.1/Drivers/STM32L4xx_HAL_Driver/Src/stm32l4xx_hal_pwr_ex.c **** 
 559              		.loc 1 476 21 is_stmt 0 view .LVU115
 560 002c 0020     		movs	r0, #0
 561              	.LVL36:
 562              		.loc 1 488 8 view .LVU116
 563 002e 7047     		bx	lr
 564              	.LVL37:
 565              	.L50:
 489:/home/barnecle/STM32Cube/Repository/STM32Cube_FW_L4_V1.17.1/Drivers/STM32L4xx_HAL_Driver/Src/stm32l4xx_hal_pwr_ex.c ****     case PWR_GPIO_C:
 490:/home/barnecle/STM32Cube/Repository/STM32Cube_FW_L4_V1.17.1/Drivers/STM32L4xx_HAL_Driver/Src/stm32l4xx_hal_pwr_ex.c ****        CLEAR_BIT(PWR->PUCRC, GPIONumber);
 566              		.loc 1 490 8 is_stmt 1 view .LVU117
 567 0030 0C4A     		ldr	r2, .L54
 568 0032 136B     		ldr	r3, [r2, #48]
 569 0034 23EA0101 		bic	r1, r3, r1
 570              	.LVL38:
 571              		.loc 1 490 8 is_stmt 0 view .LVU118
 572 0038 1163     		str	r1, [r2, #48]
 491:/home/barnecle/STM32Cube/Repository/STM32Cube_FW_L4_V1.17.1/Drivers/STM32L4xx_HAL_Driver/Src/stm32l4xx_hal_pwr_ex.c ****        break;
 573              		.loc 1 491 8 is_stmt 1 view .LVU119
 476:/home/barnecle/STM32Cube/Repository/STM32Cube_FW_L4_V1.17.1/Drivers/STM32L4xx_HAL_Driver/Src/stm32l4xx_hal_pwr_ex.c **** 
 574              		.loc 1 476 21 is_stmt 0 view .LVU120
 575 003a 0020     		movs	r0, #0
 576              	.LVL39:
 577              		.loc 1 491 8 view .LVU121
 578 003c 7047     		bx	lr
 579              	.LVL40:
 580              	.L49:
ARM GAS  /tmp/ccNJjxjx.s 			page 20


 492:/home/barnecle/STM32Cube/Repository/STM32Cube_FW_L4_V1.17.1/Drivers/STM32L4xx_HAL_Driver/Src/stm32l4xx_hal_pwr_ex.c **** #if defined(GPIOD)
 493:/home/barnecle/STM32Cube/Repository/STM32Cube_FW_L4_V1.17.1/Drivers/STM32L4xx_HAL_Driver/Src/stm32l4xx_hal_pwr_ex.c ****     case PWR_GPIO_D:
 494:/home/barnecle/STM32Cube/Repository/STM32Cube_FW_L4_V1.17.1/Drivers/STM32L4xx_HAL_Driver/Src/stm32l4xx_hal_pwr_ex.c ****        CLEAR_BIT(PWR->PUCRD, GPIONumber);
 581              		.loc 1 494 8 is_stmt 1 view .LVU122
 582 003e 094A     		ldr	r2, .L54
 583 0040 936B     		ldr	r3, [r2, #56]
 584 0042 23EA0101 		bic	r1, r3, r1
 585              	.LVL41:
 586              		.loc 1 494 8 is_stmt 0 view .LVU123
 587 0046 9163     		str	r1, [r2, #56]
 495:/home/barnecle/STM32Cube/Repository/STM32Cube_FW_L4_V1.17.1/Drivers/STM32L4xx_HAL_Driver/Src/stm32l4xx_hal_pwr_ex.c ****        break;
 588              		.loc 1 495 8 is_stmt 1 view .LVU124
 476:/home/barnecle/STM32Cube/Repository/STM32Cube_FW_L4_V1.17.1/Drivers/STM32L4xx_HAL_Driver/Src/stm32l4xx_hal_pwr_ex.c **** 
 589              		.loc 1 476 21 is_stmt 0 view .LVU125
 590 0048 0020     		movs	r0, #0
 591              	.LVL42:
 592              		.loc 1 495 8 view .LVU126
 593 004a 7047     		bx	lr
 594              	.LVL43:
 595              	.L47:
 496:/home/barnecle/STM32Cube/Repository/STM32Cube_FW_L4_V1.17.1/Drivers/STM32L4xx_HAL_Driver/Src/stm32l4xx_hal_pwr_ex.c **** #endif
 497:/home/barnecle/STM32Cube/Repository/STM32Cube_FW_L4_V1.17.1/Drivers/STM32L4xx_HAL_Driver/Src/stm32l4xx_hal_pwr_ex.c **** #if defined(GPIOE)
 498:/home/barnecle/STM32Cube/Repository/STM32Cube_FW_L4_V1.17.1/Drivers/STM32L4xx_HAL_Driver/Src/stm32l4xx_hal_pwr_ex.c ****     case PWR_GPIO_E:
 499:/home/barnecle/STM32Cube/Repository/STM32Cube_FW_L4_V1.17.1/Drivers/STM32L4xx_HAL_Driver/Src/stm32l4xx_hal_pwr_ex.c ****        CLEAR_BIT(PWR->PUCRE, GPIONumber);
 500:/home/barnecle/STM32Cube/Repository/STM32Cube_FW_L4_V1.17.1/Drivers/STM32L4xx_HAL_Driver/Src/stm32l4xx_hal_pwr_ex.c ****        break;
 501:/home/barnecle/STM32Cube/Repository/STM32Cube_FW_L4_V1.17.1/Drivers/STM32L4xx_HAL_Driver/Src/stm32l4xx_hal_pwr_ex.c **** #endif
 502:/home/barnecle/STM32Cube/Repository/STM32Cube_FW_L4_V1.17.1/Drivers/STM32L4xx_HAL_Driver/Src/stm32l4xx_hal_pwr_ex.c **** #if defined(GPIOF)
 503:/home/barnecle/STM32Cube/Repository/STM32Cube_FW_L4_V1.17.1/Drivers/STM32L4xx_HAL_Driver/Src/stm32l4xx_hal_pwr_ex.c ****     case PWR_GPIO_F:
 504:/home/barnecle/STM32Cube/Repository/STM32Cube_FW_L4_V1.17.1/Drivers/STM32L4xx_HAL_Driver/Src/stm32l4xx_hal_pwr_ex.c ****        CLEAR_BIT(PWR->PUCRF, GPIONumber);
 505:/home/barnecle/STM32Cube/Repository/STM32Cube_FW_L4_V1.17.1/Drivers/STM32L4xx_HAL_Driver/Src/stm32l4xx_hal_pwr_ex.c ****        break;
 506:/home/barnecle/STM32Cube/Repository/STM32Cube_FW_L4_V1.17.1/Drivers/STM32L4xx_HAL_Driver/Src/stm32l4xx_hal_pwr_ex.c **** #endif
 507:/home/barnecle/STM32Cube/Repository/STM32Cube_FW_L4_V1.17.1/Drivers/STM32L4xx_HAL_Driver/Src/stm32l4xx_hal_pwr_ex.c **** #if defined(GPIOG)
 508:/home/barnecle/STM32Cube/Repository/STM32Cube_FW_L4_V1.17.1/Drivers/STM32L4xx_HAL_Driver/Src/stm32l4xx_hal_pwr_ex.c ****     case PWR_GPIO_G:
 509:/home/barnecle/STM32Cube/Repository/STM32Cube_FW_L4_V1.17.1/Drivers/STM32L4xx_HAL_Driver/Src/stm32l4xx_hal_pwr_ex.c ****        CLEAR_BIT(PWR->PUCRG, GPIONumber);
 510:/home/barnecle/STM32Cube/Repository/STM32Cube_FW_L4_V1.17.1/Drivers/STM32L4xx_HAL_Driver/Src/stm32l4xx_hal_pwr_ex.c ****        break;
 511:/home/barnecle/STM32Cube/Repository/STM32Cube_FW_L4_V1.17.1/Drivers/STM32L4xx_HAL_Driver/Src/stm32l4xx_hal_pwr_ex.c **** #endif
 512:/home/barnecle/STM32Cube/Repository/STM32Cube_FW_L4_V1.17.1/Drivers/STM32L4xx_HAL_Driver/Src/stm32l4xx_hal_pwr_ex.c ****     case PWR_GPIO_H:
 513:/home/barnecle/STM32Cube/Repository/STM32Cube_FW_L4_V1.17.1/Drivers/STM32L4xx_HAL_Driver/Src/stm32l4xx_hal_pwr_ex.c ****        CLEAR_BIT(PWR->PUCRH, (GPIONumber & PWR_PORTH_AVAILABLE_PINS));
 596              		.loc 1 513 8 is_stmt 1 view .LVU127
 597 004c 054A     		ldr	r2, .L54
 598 004e 936D     		ldr	r3, [r2, #88]
 599 0050 01F00B01 		and	r1, r1, #11
 600              	.LVL44:
 601              		.loc 1 513 8 is_stmt 0 view .LVU128
 602 0054 23EA0101 		bic	r1, r3, r1
 603 0058 9165     		str	r1, [r2, #88]
 514:/home/barnecle/STM32Cube/Repository/STM32Cube_FW_L4_V1.17.1/Drivers/STM32L4xx_HAL_Driver/Src/stm32l4xx_hal_pwr_ex.c ****        break;
 604              		.loc 1 514 8 is_stmt 1 view .LVU129
 476:/home/barnecle/STM32Cube/Repository/STM32Cube_FW_L4_V1.17.1/Drivers/STM32L4xx_HAL_Driver/Src/stm32l4xx_hal_pwr_ex.c **** 
 605              		.loc 1 476 21 is_stmt 0 view .LVU130
 606 005a 0020     		movs	r0, #0
 607              	.LVL45:
 608              		.loc 1 514 8 view .LVU131
 609 005c 7047     		bx	lr
 610              	.LVL46:
 611              	.L53:
 481:/home/barnecle/STM32Cube/Repository/STM32Cube_FW_L4_V1.17.1/Drivers/STM32L4xx_HAL_Driver/Src/stm32l4xx_hal_pwr_ex.c ****   {
ARM GAS  /tmp/ccNJjxjx.s 			page 21


 612              		.loc 1 481 3 view .LVU132
 613 005e 0120     		movs	r0, #1
 614              	.LVL47:
 515:/home/barnecle/STM32Cube/Repository/STM32Cube_FW_L4_V1.17.1/Drivers/STM32L4xx_HAL_Driver/Src/stm32l4xx_hal_pwr_ex.c **** #if defined(GPIOI)
 516:/home/barnecle/STM32Cube/Repository/STM32Cube_FW_L4_V1.17.1/Drivers/STM32L4xx_HAL_Driver/Src/stm32l4xx_hal_pwr_ex.c ****     case PWR_GPIO_I:
 517:/home/barnecle/STM32Cube/Repository/STM32Cube_FW_L4_V1.17.1/Drivers/STM32L4xx_HAL_Driver/Src/stm32l4xx_hal_pwr_ex.c ****        CLEAR_BIT(PWR->PUCRI, (GPIONumber & PWR_PORTI_AVAILABLE_PINS));
 518:/home/barnecle/STM32Cube/Repository/STM32Cube_FW_L4_V1.17.1/Drivers/STM32L4xx_HAL_Driver/Src/stm32l4xx_hal_pwr_ex.c ****        break;
 519:/home/barnecle/STM32Cube/Repository/STM32Cube_FW_L4_V1.17.1/Drivers/STM32L4xx_HAL_Driver/Src/stm32l4xx_hal_pwr_ex.c **** #endif
 520:/home/barnecle/STM32Cube/Repository/STM32Cube_FW_L4_V1.17.1/Drivers/STM32L4xx_HAL_Driver/Src/stm32l4xx_hal_pwr_ex.c ****     default:
 521:/home/barnecle/STM32Cube/Repository/STM32Cube_FW_L4_V1.17.1/Drivers/STM32L4xx_HAL_Driver/Src/stm32l4xx_hal_pwr_ex.c ****        status = HAL_ERROR;
 522:/home/barnecle/STM32Cube/Repository/STM32Cube_FW_L4_V1.17.1/Drivers/STM32L4xx_HAL_Driver/Src/stm32l4xx_hal_pwr_ex.c ****        break;
 523:/home/barnecle/STM32Cube/Repository/STM32Cube_FW_L4_V1.17.1/Drivers/STM32L4xx_HAL_Driver/Src/stm32l4xx_hal_pwr_ex.c ****   }
 524:/home/barnecle/STM32Cube/Repository/STM32Cube_FW_L4_V1.17.1/Drivers/STM32L4xx_HAL_Driver/Src/stm32l4xx_hal_pwr_ex.c **** 
 525:/home/barnecle/STM32Cube/Repository/STM32Cube_FW_L4_V1.17.1/Drivers/STM32L4xx_HAL_Driver/Src/stm32l4xx_hal_pwr_ex.c ****   return status;
 615              		.loc 1 525 3 is_stmt 1 view .LVU133
 526:/home/barnecle/STM32Cube/Repository/STM32Cube_FW_L4_V1.17.1/Drivers/STM32L4xx_HAL_Driver/Src/stm32l4xx_hal_pwr_ex.c **** }
 616              		.loc 1 526 1 is_stmt 0 view .LVU134
 617 0060 7047     		bx	lr
 618              	.L55:
 619 0062 00BF     		.align	2
 620              	.L54:
 621 0064 00700040 		.word	1073770496
 622              		.cfi_endproc
 623              	.LFE141:
 625              		.section	.text.HAL_PWREx_EnableGPIOPullDown,"ax",%progbits
 626              		.align	1
 627              		.global	HAL_PWREx_EnableGPIOPullDown
 628              		.syntax unified
 629              		.thumb
 630              		.thumb_func
 632              	HAL_PWREx_EnableGPIOPullDown:
 633              	.LVL48:
 634              	.LFB142:
 527:/home/barnecle/STM32Cube/Repository/STM32Cube_FW_L4_V1.17.1/Drivers/STM32L4xx_HAL_Driver/Src/stm32l4xx_hal_pwr_ex.c **** 
 528:/home/barnecle/STM32Cube/Repository/STM32Cube_FW_L4_V1.17.1/Drivers/STM32L4xx_HAL_Driver/Src/stm32l4xx_hal_pwr_ex.c **** 
 529:/home/barnecle/STM32Cube/Repository/STM32Cube_FW_L4_V1.17.1/Drivers/STM32L4xx_HAL_Driver/Src/stm32l4xx_hal_pwr_ex.c **** 
 530:/home/barnecle/STM32Cube/Repository/STM32Cube_FW_L4_V1.17.1/Drivers/STM32L4xx_HAL_Driver/Src/stm32l4xx_hal_pwr_ex.c **** /**
 531:/home/barnecle/STM32Cube/Repository/STM32Cube_FW_L4_V1.17.1/Drivers/STM32L4xx_HAL_Driver/Src/stm32l4xx_hal_pwr_ex.c ****   * @brief Enable GPIO pull-down state in Standby and Shutdown modes.
 532:/home/barnecle/STM32Cube/Repository/STM32Cube_FW_L4_V1.17.1/Drivers/STM32L4xx_HAL_Driver/Src/stm32l4xx_hal_pwr_ex.c ****   * @note  Set the relevant PDy bits of PWR_PDCRx register to configure the I/O in
 533:/home/barnecle/STM32Cube/Repository/STM32Cube_FW_L4_V1.17.1/Drivers/STM32L4xx_HAL_Driver/Src/stm32l4xx_hal_pwr_ex.c ****   *        pull-down state in Standby and Shutdown modes.
 534:/home/barnecle/STM32Cube/Repository/STM32Cube_FW_L4_V1.17.1/Drivers/STM32L4xx_HAL_Driver/Src/stm32l4xx_hal_pwr_ex.c ****   * @note  This state is effective in Standby and Shutdown modes only if APC bit
 535:/home/barnecle/STM32Cube/Repository/STM32Cube_FW_L4_V1.17.1/Drivers/STM32L4xx_HAL_Driver/Src/stm32l4xx_hal_pwr_ex.c ****   *        is set through HAL_PWREx_EnablePullUpPullDownConfig() API.
 536:/home/barnecle/STM32Cube/Repository/STM32Cube_FW_L4_V1.17.1/Drivers/STM32L4xx_HAL_Driver/Src/stm32l4xx_hal_pwr_ex.c ****   * @note  The configuration is lost when exiting the Shutdown mode due to the
 537:/home/barnecle/STM32Cube/Repository/STM32Cube_FW_L4_V1.17.1/Drivers/STM32L4xx_HAL_Driver/Src/stm32l4xx_hal_pwr_ex.c ****   *        power-on reset, maintained when exiting the Standby mode.
 538:/home/barnecle/STM32Cube/Repository/STM32Cube_FW_L4_V1.17.1/Drivers/STM32L4xx_HAL_Driver/Src/stm32l4xx_hal_pwr_ex.c ****   * @note  To avoid any conflict at Standby and Shutdown modes exits, the corresponding
 539:/home/barnecle/STM32Cube/Repository/STM32Cube_FW_L4_V1.17.1/Drivers/STM32L4xx_HAL_Driver/Src/stm32l4xx_hal_pwr_ex.c ****   *        PUy bit of PWR_PUCRx register is cleared unless it is reserved.
 540:/home/barnecle/STM32Cube/Repository/STM32Cube_FW_L4_V1.17.1/Drivers/STM32L4xx_HAL_Driver/Src/stm32l4xx_hal_pwr_ex.c ****   * @note  Even if a PDy bit to set is reserved, the other PDy bits entered as input
 541:/home/barnecle/STM32Cube/Repository/STM32Cube_FW_L4_V1.17.1/Drivers/STM32L4xx_HAL_Driver/Src/stm32l4xx_hal_pwr_ex.c ****   *        parameter at the same time are set.
 542:/home/barnecle/STM32Cube/Repository/STM32Cube_FW_L4_V1.17.1/Drivers/STM32L4xx_HAL_Driver/Src/stm32l4xx_hal_pwr_ex.c ****   * @param  GPIO Specify the IO port. This parameter can be PWR_GPIO_A..PWR_GPIO_H
 543:/home/barnecle/STM32Cube/Repository/STM32Cube_FW_L4_V1.17.1/Drivers/STM32L4xx_HAL_Driver/Src/stm32l4xx_hal_pwr_ex.c ****   *         (or PWR_GPIO_I depending on the devices) to select the GPIO peripheral.
 544:/home/barnecle/STM32Cube/Repository/STM32Cube_FW_L4_V1.17.1/Drivers/STM32L4xx_HAL_Driver/Src/stm32l4xx_hal_pwr_ex.c ****   * @param  GPIONumber Specify the I/O pins numbers.
 545:/home/barnecle/STM32Cube/Repository/STM32Cube_FW_L4_V1.17.1/Drivers/STM32L4xx_HAL_Driver/Src/stm32l4xx_hal_pwr_ex.c ****   *         This parameter can be one of the following values:
 546:/home/barnecle/STM32Cube/Repository/STM32Cube_FW_L4_V1.17.1/Drivers/STM32L4xx_HAL_Driver/Src/stm32l4xx_hal_pwr_ex.c ****   *         PWR_GPIO_BIT_0, ..., PWR_GPIO_BIT_15 (except for the port where less
 547:/home/barnecle/STM32Cube/Repository/STM32Cube_FW_L4_V1.17.1/Drivers/STM32L4xx_HAL_Driver/Src/stm32l4xx_hal_pwr_ex.c ****   *         I/O pins are available) or the logical OR of several of them to set
 548:/home/barnecle/STM32Cube/Repository/STM32Cube_FW_L4_V1.17.1/Drivers/STM32L4xx_HAL_Driver/Src/stm32l4xx_hal_pwr_ex.c ****   *         several bits for a given port in a single API call.
 549:/home/barnecle/STM32Cube/Repository/STM32Cube_FW_L4_V1.17.1/Drivers/STM32L4xx_HAL_Driver/Src/stm32l4xx_hal_pwr_ex.c ****   * @retval HAL Status
 550:/home/barnecle/STM32Cube/Repository/STM32Cube_FW_L4_V1.17.1/Drivers/STM32L4xx_HAL_Driver/Src/stm32l4xx_hal_pwr_ex.c ****   */
ARM GAS  /tmp/ccNJjxjx.s 			page 22


 551:/home/barnecle/STM32Cube/Repository/STM32Cube_FW_L4_V1.17.1/Drivers/STM32L4xx_HAL_Driver/Src/stm32l4xx_hal_pwr_ex.c **** HAL_StatusTypeDef HAL_PWREx_EnableGPIOPullDown(uint32_t GPIO, uint32_t GPIONumber)
 552:/home/barnecle/STM32Cube/Repository/STM32Cube_FW_L4_V1.17.1/Drivers/STM32L4xx_HAL_Driver/Src/stm32l4xx_hal_pwr_ex.c **** {
 635              		.loc 1 552 1 is_stmt 1 view -0
 636              		.cfi_startproc
 637              		@ args = 0, pretend = 0, frame = 0
 638              		@ frame_needed = 0, uses_anonymous_args = 0
 639              		@ link register save eliminated.
 553:/home/barnecle/STM32Cube/Repository/STM32Cube_FW_L4_V1.17.1/Drivers/STM32L4xx_HAL_Driver/Src/stm32l4xx_hal_pwr_ex.c ****   HAL_StatusTypeDef status = HAL_OK;
 640              		.loc 1 553 3 view .LVU136
 554:/home/barnecle/STM32Cube/Repository/STM32Cube_FW_L4_V1.17.1/Drivers/STM32L4xx_HAL_Driver/Src/stm32l4xx_hal_pwr_ex.c **** 
 555:/home/barnecle/STM32Cube/Repository/STM32Cube_FW_L4_V1.17.1/Drivers/STM32L4xx_HAL_Driver/Src/stm32l4xx_hal_pwr_ex.c ****   assert_param(IS_PWR_GPIO(GPIO));
 641              		.loc 1 555 3 view .LVU137
 556:/home/barnecle/STM32Cube/Repository/STM32Cube_FW_L4_V1.17.1/Drivers/STM32L4xx_HAL_Driver/Src/stm32l4xx_hal_pwr_ex.c ****   assert_param(IS_PWR_GPIO_BIT_NUMBER(GPIONumber));
 642              		.loc 1 556 3 view .LVU138
 557:/home/barnecle/STM32Cube/Repository/STM32Cube_FW_L4_V1.17.1/Drivers/STM32L4xx_HAL_Driver/Src/stm32l4xx_hal_pwr_ex.c **** 
 558:/home/barnecle/STM32Cube/Repository/STM32Cube_FW_L4_V1.17.1/Drivers/STM32L4xx_HAL_Driver/Src/stm32l4xx_hal_pwr_ex.c ****   switch (GPIO)
 643              		.loc 1 558 3 view .LVU139
 644 0000 0728     		cmp	r0, #7
 645 0002 3FD8     		bhi	.L64
 646 0004 DFE800F0 		tbb	[pc, r0]
 647              	.L59:
 648 0008 04       		.byte	(.L63-.L59)/2
 649 0009 12       		.byte	(.L62-.L59)/2
 650 000a 1E       		.byte	(.L61-.L59)/2
 651 000b 28       		.byte	(.L60-.L59)/2
 652 000c 3E       		.byte	(.L64-.L59)/2
 653 000d 3E       		.byte	(.L64-.L59)/2
 654 000e 3E       		.byte	(.L64-.L59)/2
 655 000f 32       		.byte	(.L58-.L59)/2
 656              		.p2align 1
 657              	.L63:
 559:/home/barnecle/STM32Cube/Repository/STM32Cube_FW_L4_V1.17.1/Drivers/STM32L4xx_HAL_Driver/Src/stm32l4xx_hal_pwr_ex.c ****   {
 560:/home/barnecle/STM32Cube/Repository/STM32Cube_FW_L4_V1.17.1/Drivers/STM32L4xx_HAL_Driver/Src/stm32l4xx_hal_pwr_ex.c ****     case PWR_GPIO_A:
 561:/home/barnecle/STM32Cube/Repository/STM32Cube_FW_L4_V1.17.1/Drivers/STM32L4xx_HAL_Driver/Src/stm32l4xx_hal_pwr_ex.c ****        SET_BIT(PWR->PDCRA, (GPIONumber & (~(PWR_GPIO_BIT_13|PWR_GPIO_BIT_15))));
 658              		.loc 1 561 8 view .LVU140
 659 0010 1D4B     		ldr	r3, .L65
 660 0012 5A6A     		ldr	r2, [r3, #36]
 661 0014 21F42040 		bic	r0, r1, #40960
 662              	.LVL49:
 663              		.loc 1 561 8 is_stmt 0 view .LVU141
 664 0018 0243     		orrs	r2, r2, r0
 665 001a 5A62     		str	r2, [r3, #36]
 562:/home/barnecle/STM32Cube/Repository/STM32Cube_FW_L4_V1.17.1/Drivers/STM32L4xx_HAL_Driver/Src/stm32l4xx_hal_pwr_ex.c ****        CLEAR_BIT(PWR->PUCRA, (GPIONumber & (~(PWR_GPIO_BIT_14))));
 666              		.loc 1 562 8 is_stmt 1 view .LVU142
 667 001c 1A6A     		ldr	r2, [r3, #32]
 668 001e 21F48041 		bic	r1, r1, #16384
 669              	.LVL50:
 670              		.loc 1 562 8 is_stmt 0 view .LVU143
 671 0022 22EA0101 		bic	r1, r2, r1
 672 0026 1962     		str	r1, [r3, #32]
 563:/home/barnecle/STM32Cube/Repository/STM32Cube_FW_L4_V1.17.1/Drivers/STM32L4xx_HAL_Driver/Src/stm32l4xx_hal_pwr_ex.c ****        break;
 673              		.loc 1 563 8 is_stmt 1 view .LVU144
 553:/home/barnecle/STM32Cube/Repository/STM32Cube_FW_L4_V1.17.1/Drivers/STM32L4xx_HAL_Driver/Src/stm32l4xx_hal_pwr_ex.c **** 
 674              		.loc 1 553 21 is_stmt 0 view .LVU145
 675 0028 0020     		movs	r0, #0
 676              		.loc 1 563 8 view .LVU146
 677 002a 7047     		bx	lr
ARM GAS  /tmp/ccNJjxjx.s 			page 23


 678              	.LVL51:
 679              	.L62:
 564:/home/barnecle/STM32Cube/Repository/STM32Cube_FW_L4_V1.17.1/Drivers/STM32L4xx_HAL_Driver/Src/stm32l4xx_hal_pwr_ex.c ****     case PWR_GPIO_B:
 565:/home/barnecle/STM32Cube/Repository/STM32Cube_FW_L4_V1.17.1/Drivers/STM32L4xx_HAL_Driver/Src/stm32l4xx_hal_pwr_ex.c ****        SET_BIT(PWR->PDCRB, (GPIONumber & (~(PWR_GPIO_BIT_4))));
 680              		.loc 1 565 8 is_stmt 1 view .LVU147
 681 002c 164B     		ldr	r3, .L65
 682 002e DA6A     		ldr	r2, [r3, #44]
 683 0030 21F01000 		bic	r0, r1, #16
 684              	.LVL52:
 685              		.loc 1 565 8 is_stmt 0 view .LVU148
 686 0034 0243     		orrs	r2, r2, r0
 687 0036 DA62     		str	r2, [r3, #44]
 566:/home/barnecle/STM32Cube/Repository/STM32Cube_FW_L4_V1.17.1/Drivers/STM32L4xx_HAL_Driver/Src/stm32l4xx_hal_pwr_ex.c ****        CLEAR_BIT(PWR->PUCRB, GPIONumber);
 688              		.loc 1 566 8 is_stmt 1 view .LVU149
 689 0038 9A6A     		ldr	r2, [r3, #40]
 690 003a 22EA0101 		bic	r1, r2, r1
 691              	.LVL53:
 692              		.loc 1 566 8 is_stmt 0 view .LVU150
 693 003e 9962     		str	r1, [r3, #40]
 567:/home/barnecle/STM32Cube/Repository/STM32Cube_FW_L4_V1.17.1/Drivers/STM32L4xx_HAL_Driver/Src/stm32l4xx_hal_pwr_ex.c ****        break;
 694              		.loc 1 567 8 is_stmt 1 view .LVU151
 553:/home/barnecle/STM32Cube/Repository/STM32Cube_FW_L4_V1.17.1/Drivers/STM32L4xx_HAL_Driver/Src/stm32l4xx_hal_pwr_ex.c **** 
 695              		.loc 1 553 21 is_stmt 0 view .LVU152
 696 0040 0020     		movs	r0, #0
 697              		.loc 1 567 8 view .LVU153
 698 0042 7047     		bx	lr
 699              	.LVL54:
 700              	.L61:
 568:/home/barnecle/STM32Cube/Repository/STM32Cube_FW_L4_V1.17.1/Drivers/STM32L4xx_HAL_Driver/Src/stm32l4xx_hal_pwr_ex.c ****     case PWR_GPIO_C:
 569:/home/barnecle/STM32Cube/Repository/STM32Cube_FW_L4_V1.17.1/Drivers/STM32L4xx_HAL_Driver/Src/stm32l4xx_hal_pwr_ex.c ****        SET_BIT(PWR->PDCRC, GPIONumber);
 701              		.loc 1 569 8 is_stmt 1 view .LVU154
 702 0044 104B     		ldr	r3, .L65
 703 0046 5A6B     		ldr	r2, [r3, #52]
 704 0048 0A43     		orrs	r2, r2, r1
 705 004a 5A63     		str	r2, [r3, #52]
 570:/home/barnecle/STM32Cube/Repository/STM32Cube_FW_L4_V1.17.1/Drivers/STM32L4xx_HAL_Driver/Src/stm32l4xx_hal_pwr_ex.c ****        CLEAR_BIT(PWR->PUCRC, GPIONumber);
 706              		.loc 1 570 8 view .LVU155
 707 004c 1A6B     		ldr	r2, [r3, #48]
 708 004e 22EA0101 		bic	r1, r2, r1
 709              	.LVL55:
 710              		.loc 1 570 8 is_stmt 0 view .LVU156
 711 0052 1963     		str	r1, [r3, #48]
 571:/home/barnecle/STM32Cube/Repository/STM32Cube_FW_L4_V1.17.1/Drivers/STM32L4xx_HAL_Driver/Src/stm32l4xx_hal_pwr_ex.c ****        break;
 712              		.loc 1 571 8 is_stmt 1 view .LVU157
 553:/home/barnecle/STM32Cube/Repository/STM32Cube_FW_L4_V1.17.1/Drivers/STM32L4xx_HAL_Driver/Src/stm32l4xx_hal_pwr_ex.c **** 
 713              		.loc 1 553 21 is_stmt 0 view .LVU158
 714 0054 0020     		movs	r0, #0
 715              	.LVL56:
 716              		.loc 1 571 8 view .LVU159
 717 0056 7047     		bx	lr
 718              	.LVL57:
 719              	.L60:
 572:/home/barnecle/STM32Cube/Repository/STM32Cube_FW_L4_V1.17.1/Drivers/STM32L4xx_HAL_Driver/Src/stm32l4xx_hal_pwr_ex.c **** #if defined(GPIOD)
 573:/home/barnecle/STM32Cube/Repository/STM32Cube_FW_L4_V1.17.1/Drivers/STM32L4xx_HAL_Driver/Src/stm32l4xx_hal_pwr_ex.c ****     case PWR_GPIO_D:
 574:/home/barnecle/STM32Cube/Repository/STM32Cube_FW_L4_V1.17.1/Drivers/STM32L4xx_HAL_Driver/Src/stm32l4xx_hal_pwr_ex.c ****        SET_BIT(PWR->PDCRD, GPIONumber);
 720              		.loc 1 574 8 is_stmt 1 view .LVU160
 721 0058 0B4B     		ldr	r3, .L65
ARM GAS  /tmp/ccNJjxjx.s 			page 24


 722 005a DA6B     		ldr	r2, [r3, #60]
 723 005c 0A43     		orrs	r2, r2, r1
 724 005e DA63     		str	r2, [r3, #60]
 575:/home/barnecle/STM32Cube/Repository/STM32Cube_FW_L4_V1.17.1/Drivers/STM32L4xx_HAL_Driver/Src/stm32l4xx_hal_pwr_ex.c ****        CLEAR_BIT(PWR->PUCRD, GPIONumber);
 725              		.loc 1 575 8 view .LVU161
 726 0060 9A6B     		ldr	r2, [r3, #56]
 727 0062 22EA0101 		bic	r1, r2, r1
 728              	.LVL58:
 729              		.loc 1 575 8 is_stmt 0 view .LVU162
 730 0066 9963     		str	r1, [r3, #56]
 576:/home/barnecle/STM32Cube/Repository/STM32Cube_FW_L4_V1.17.1/Drivers/STM32L4xx_HAL_Driver/Src/stm32l4xx_hal_pwr_ex.c ****        break;
 731              		.loc 1 576 8 is_stmt 1 view .LVU163
 553:/home/barnecle/STM32Cube/Repository/STM32Cube_FW_L4_V1.17.1/Drivers/STM32L4xx_HAL_Driver/Src/stm32l4xx_hal_pwr_ex.c **** 
 732              		.loc 1 553 21 is_stmt 0 view .LVU164
 733 0068 0020     		movs	r0, #0
 734              	.LVL59:
 735              		.loc 1 576 8 view .LVU165
 736 006a 7047     		bx	lr
 737              	.LVL60:
 738              	.L58:
 577:/home/barnecle/STM32Cube/Repository/STM32Cube_FW_L4_V1.17.1/Drivers/STM32L4xx_HAL_Driver/Src/stm32l4xx_hal_pwr_ex.c **** #endif
 578:/home/barnecle/STM32Cube/Repository/STM32Cube_FW_L4_V1.17.1/Drivers/STM32L4xx_HAL_Driver/Src/stm32l4xx_hal_pwr_ex.c **** #if defined(GPIOE)
 579:/home/barnecle/STM32Cube/Repository/STM32Cube_FW_L4_V1.17.1/Drivers/STM32L4xx_HAL_Driver/Src/stm32l4xx_hal_pwr_ex.c ****     case PWR_GPIO_E:
 580:/home/barnecle/STM32Cube/Repository/STM32Cube_FW_L4_V1.17.1/Drivers/STM32L4xx_HAL_Driver/Src/stm32l4xx_hal_pwr_ex.c ****        SET_BIT(PWR->PDCRE, GPIONumber);
 581:/home/barnecle/STM32Cube/Repository/STM32Cube_FW_L4_V1.17.1/Drivers/STM32L4xx_HAL_Driver/Src/stm32l4xx_hal_pwr_ex.c ****        CLEAR_BIT(PWR->PUCRE, GPIONumber);
 582:/home/barnecle/STM32Cube/Repository/STM32Cube_FW_L4_V1.17.1/Drivers/STM32L4xx_HAL_Driver/Src/stm32l4xx_hal_pwr_ex.c ****        break;
 583:/home/barnecle/STM32Cube/Repository/STM32Cube_FW_L4_V1.17.1/Drivers/STM32L4xx_HAL_Driver/Src/stm32l4xx_hal_pwr_ex.c **** #endif
 584:/home/barnecle/STM32Cube/Repository/STM32Cube_FW_L4_V1.17.1/Drivers/STM32L4xx_HAL_Driver/Src/stm32l4xx_hal_pwr_ex.c **** #if defined(GPIOF)
 585:/home/barnecle/STM32Cube/Repository/STM32Cube_FW_L4_V1.17.1/Drivers/STM32L4xx_HAL_Driver/Src/stm32l4xx_hal_pwr_ex.c ****     case PWR_GPIO_F:
 586:/home/barnecle/STM32Cube/Repository/STM32Cube_FW_L4_V1.17.1/Drivers/STM32L4xx_HAL_Driver/Src/stm32l4xx_hal_pwr_ex.c ****        SET_BIT(PWR->PDCRF, GPIONumber);
 587:/home/barnecle/STM32Cube/Repository/STM32Cube_FW_L4_V1.17.1/Drivers/STM32L4xx_HAL_Driver/Src/stm32l4xx_hal_pwr_ex.c ****        CLEAR_BIT(PWR->PUCRF, GPIONumber);
 588:/home/barnecle/STM32Cube/Repository/STM32Cube_FW_L4_V1.17.1/Drivers/STM32L4xx_HAL_Driver/Src/stm32l4xx_hal_pwr_ex.c ****        break;
 589:/home/barnecle/STM32Cube/Repository/STM32Cube_FW_L4_V1.17.1/Drivers/STM32L4xx_HAL_Driver/Src/stm32l4xx_hal_pwr_ex.c **** #endif
 590:/home/barnecle/STM32Cube/Repository/STM32Cube_FW_L4_V1.17.1/Drivers/STM32L4xx_HAL_Driver/Src/stm32l4xx_hal_pwr_ex.c **** #if defined(GPIOG)
 591:/home/barnecle/STM32Cube/Repository/STM32Cube_FW_L4_V1.17.1/Drivers/STM32L4xx_HAL_Driver/Src/stm32l4xx_hal_pwr_ex.c ****     case PWR_GPIO_G:
 592:/home/barnecle/STM32Cube/Repository/STM32Cube_FW_L4_V1.17.1/Drivers/STM32L4xx_HAL_Driver/Src/stm32l4xx_hal_pwr_ex.c ****        SET_BIT(PWR->PDCRG, GPIONumber);
 593:/home/barnecle/STM32Cube/Repository/STM32Cube_FW_L4_V1.17.1/Drivers/STM32L4xx_HAL_Driver/Src/stm32l4xx_hal_pwr_ex.c ****        CLEAR_BIT(PWR->PUCRG, GPIONumber);
 594:/home/barnecle/STM32Cube/Repository/STM32Cube_FW_L4_V1.17.1/Drivers/STM32L4xx_HAL_Driver/Src/stm32l4xx_hal_pwr_ex.c ****        break;
 595:/home/barnecle/STM32Cube/Repository/STM32Cube_FW_L4_V1.17.1/Drivers/STM32L4xx_HAL_Driver/Src/stm32l4xx_hal_pwr_ex.c **** #endif
 596:/home/barnecle/STM32Cube/Repository/STM32Cube_FW_L4_V1.17.1/Drivers/STM32L4xx_HAL_Driver/Src/stm32l4xx_hal_pwr_ex.c ****     case PWR_GPIO_H:
 597:/home/barnecle/STM32Cube/Repository/STM32Cube_FW_L4_V1.17.1/Drivers/STM32L4xx_HAL_Driver/Src/stm32l4xx_hal_pwr_ex.c **** #if defined (STM32L496xx) || defined (STM32L4A6xx)
 598:/home/barnecle/STM32Cube/Repository/STM32Cube_FW_L4_V1.17.1/Drivers/STM32L4xx_HAL_Driver/Src/stm32l4xx_hal_pwr_ex.c ****        SET_BIT(PWR->PDCRH, ((GPIONumber & PWR_PORTH_AVAILABLE_PINS) & (~(PWR_GPIO_BIT_3))));
 599:/home/barnecle/STM32Cube/Repository/STM32Cube_FW_L4_V1.17.1/Drivers/STM32L4xx_HAL_Driver/Src/stm32l4xx_hal_pwr_ex.c **** #else
 600:/home/barnecle/STM32Cube/Repository/STM32Cube_FW_L4_V1.17.1/Drivers/STM32L4xx_HAL_Driver/Src/stm32l4xx_hal_pwr_ex.c ****        SET_BIT(PWR->PDCRH, (GPIONumber & PWR_PORTH_AVAILABLE_PINS));
 739              		.loc 1 600 8 is_stmt 1 view .LVU166
 740 006c 064B     		ldr	r3, .L65
 741 006e DA6D     		ldr	r2, [r3, #92]
 742 0070 01F00B01 		and	r1, r1, #11
 743              	.LVL61:
 744              		.loc 1 600 8 is_stmt 0 view .LVU167
 745 0074 0A43     		orrs	r2, r2, r1
 746 0076 DA65     		str	r2, [r3, #92]
 601:/home/barnecle/STM32Cube/Repository/STM32Cube_FW_L4_V1.17.1/Drivers/STM32L4xx_HAL_Driver/Src/stm32l4xx_hal_pwr_ex.c **** #endif
 602:/home/barnecle/STM32Cube/Repository/STM32Cube_FW_L4_V1.17.1/Drivers/STM32L4xx_HAL_Driver/Src/stm32l4xx_hal_pwr_ex.c ****        CLEAR_BIT(PWR->PUCRH, (GPIONumber & PWR_PORTH_AVAILABLE_PINS));
 747              		.loc 1 602 8 is_stmt 1 view .LVU168
 748 0078 9A6D     		ldr	r2, [r3, #88]
 749 007a 22EA0101 		bic	r1, r2, r1
ARM GAS  /tmp/ccNJjxjx.s 			page 25


 750 007e 9965     		str	r1, [r3, #88]
 603:/home/barnecle/STM32Cube/Repository/STM32Cube_FW_L4_V1.17.1/Drivers/STM32L4xx_HAL_Driver/Src/stm32l4xx_hal_pwr_ex.c ****        break;
 751              		.loc 1 603 8 view .LVU169
 553:/home/barnecle/STM32Cube/Repository/STM32Cube_FW_L4_V1.17.1/Drivers/STM32L4xx_HAL_Driver/Src/stm32l4xx_hal_pwr_ex.c **** 
 752              		.loc 1 553 21 is_stmt 0 view .LVU170
 753 0080 0020     		movs	r0, #0
 754              	.LVL62:
 755              		.loc 1 603 8 view .LVU171
 756 0082 7047     		bx	lr
 757              	.LVL63:
 758              	.L64:
 558:/home/barnecle/STM32Cube/Repository/STM32Cube_FW_L4_V1.17.1/Drivers/STM32L4xx_HAL_Driver/Src/stm32l4xx_hal_pwr_ex.c ****   {
 759              		.loc 1 558 3 view .LVU172
 760 0084 0120     		movs	r0, #1
 761              	.LVL64:
 604:/home/barnecle/STM32Cube/Repository/STM32Cube_FW_L4_V1.17.1/Drivers/STM32L4xx_HAL_Driver/Src/stm32l4xx_hal_pwr_ex.c **** #if defined(GPIOI)
 605:/home/barnecle/STM32Cube/Repository/STM32Cube_FW_L4_V1.17.1/Drivers/STM32L4xx_HAL_Driver/Src/stm32l4xx_hal_pwr_ex.c ****     case PWR_GPIO_I:
 606:/home/barnecle/STM32Cube/Repository/STM32Cube_FW_L4_V1.17.1/Drivers/STM32L4xx_HAL_Driver/Src/stm32l4xx_hal_pwr_ex.c ****        SET_BIT(PWR->PDCRI, (GPIONumber & PWR_PORTI_AVAILABLE_PINS));
 607:/home/barnecle/STM32Cube/Repository/STM32Cube_FW_L4_V1.17.1/Drivers/STM32L4xx_HAL_Driver/Src/stm32l4xx_hal_pwr_ex.c ****        CLEAR_BIT(PWR->PUCRI, (GPIONumber & PWR_PORTI_AVAILABLE_PINS));
 608:/home/barnecle/STM32Cube/Repository/STM32Cube_FW_L4_V1.17.1/Drivers/STM32L4xx_HAL_Driver/Src/stm32l4xx_hal_pwr_ex.c ****        break;
 609:/home/barnecle/STM32Cube/Repository/STM32Cube_FW_L4_V1.17.1/Drivers/STM32L4xx_HAL_Driver/Src/stm32l4xx_hal_pwr_ex.c **** #endif
 610:/home/barnecle/STM32Cube/Repository/STM32Cube_FW_L4_V1.17.1/Drivers/STM32L4xx_HAL_Driver/Src/stm32l4xx_hal_pwr_ex.c ****     default:
 611:/home/barnecle/STM32Cube/Repository/STM32Cube_FW_L4_V1.17.1/Drivers/STM32L4xx_HAL_Driver/Src/stm32l4xx_hal_pwr_ex.c ****       status = HAL_ERROR;
 612:/home/barnecle/STM32Cube/Repository/STM32Cube_FW_L4_V1.17.1/Drivers/STM32L4xx_HAL_Driver/Src/stm32l4xx_hal_pwr_ex.c ****       break;
 613:/home/barnecle/STM32Cube/Repository/STM32Cube_FW_L4_V1.17.1/Drivers/STM32L4xx_HAL_Driver/Src/stm32l4xx_hal_pwr_ex.c ****   }
 614:/home/barnecle/STM32Cube/Repository/STM32Cube_FW_L4_V1.17.1/Drivers/STM32L4xx_HAL_Driver/Src/stm32l4xx_hal_pwr_ex.c **** 
 615:/home/barnecle/STM32Cube/Repository/STM32Cube_FW_L4_V1.17.1/Drivers/STM32L4xx_HAL_Driver/Src/stm32l4xx_hal_pwr_ex.c ****   return status;
 762              		.loc 1 615 3 is_stmt 1 view .LVU173
 616:/home/barnecle/STM32Cube/Repository/STM32Cube_FW_L4_V1.17.1/Drivers/STM32L4xx_HAL_Driver/Src/stm32l4xx_hal_pwr_ex.c **** }
 763              		.loc 1 616 1 is_stmt 0 view .LVU174
 764 0086 7047     		bx	lr
 765              	.L66:
 766              		.align	2
 767              	.L65:
 768 0088 00700040 		.word	1073770496
 769              		.cfi_endproc
 770              	.LFE142:
 772              		.section	.text.HAL_PWREx_DisableGPIOPullDown,"ax",%progbits
 773              		.align	1
 774              		.global	HAL_PWREx_DisableGPIOPullDown
 775              		.syntax unified
 776              		.thumb
 777              		.thumb_func
 779              	HAL_PWREx_DisableGPIOPullDown:
 780              	.LVL65:
 781              	.LFB143:
 617:/home/barnecle/STM32Cube/Repository/STM32Cube_FW_L4_V1.17.1/Drivers/STM32L4xx_HAL_Driver/Src/stm32l4xx_hal_pwr_ex.c **** 
 618:/home/barnecle/STM32Cube/Repository/STM32Cube_FW_L4_V1.17.1/Drivers/STM32L4xx_HAL_Driver/Src/stm32l4xx_hal_pwr_ex.c **** 
 619:/home/barnecle/STM32Cube/Repository/STM32Cube_FW_L4_V1.17.1/Drivers/STM32L4xx_HAL_Driver/Src/stm32l4xx_hal_pwr_ex.c **** /**
 620:/home/barnecle/STM32Cube/Repository/STM32Cube_FW_L4_V1.17.1/Drivers/STM32L4xx_HAL_Driver/Src/stm32l4xx_hal_pwr_ex.c ****   * @brief Disable GPIO pull-down state in Standby and Shutdown modes.
 621:/home/barnecle/STM32Cube/Repository/STM32Cube_FW_L4_V1.17.1/Drivers/STM32L4xx_HAL_Driver/Src/stm32l4xx_hal_pwr_ex.c ****   * @note  Reset the relevant PDy bits of PWR_PDCRx register used to configure the I/O
 622:/home/barnecle/STM32Cube/Repository/STM32Cube_FW_L4_V1.17.1/Drivers/STM32L4xx_HAL_Driver/Src/stm32l4xx_hal_pwr_ex.c ****   *        in pull-down state in Standby and Shutdown modes.
 623:/home/barnecle/STM32Cube/Repository/STM32Cube_FW_L4_V1.17.1/Drivers/STM32L4xx_HAL_Driver/Src/stm32l4xx_hal_pwr_ex.c ****   * @note  Even if a PDy bit to reset is reserved, the other PDy bits entered as input
 624:/home/barnecle/STM32Cube/Repository/STM32Cube_FW_L4_V1.17.1/Drivers/STM32L4xx_HAL_Driver/Src/stm32l4xx_hal_pwr_ex.c ****   *        parameter at the same time are reset.
 625:/home/barnecle/STM32Cube/Repository/STM32Cube_FW_L4_V1.17.1/Drivers/STM32L4xx_HAL_Driver/Src/stm32l4xx_hal_pwr_ex.c ****   * @param  GPIO Specifies the IO port. This parameter can be PWR_GPIO_A..PWR_GPIO_H
 626:/home/barnecle/STM32Cube/Repository/STM32Cube_FW_L4_V1.17.1/Drivers/STM32L4xx_HAL_Driver/Src/stm32l4xx_hal_pwr_ex.c ****   *         (or PWR_GPIO_I depending on the devices) to select the GPIO peripheral.
 627:/home/barnecle/STM32Cube/Repository/STM32Cube_FW_L4_V1.17.1/Drivers/STM32L4xx_HAL_Driver/Src/stm32l4xx_hal_pwr_ex.c ****   * @param  GPIONumber Specify the I/O pins numbers.
ARM GAS  /tmp/ccNJjxjx.s 			page 26


 628:/home/barnecle/STM32Cube/Repository/STM32Cube_FW_L4_V1.17.1/Drivers/STM32L4xx_HAL_Driver/Src/stm32l4xx_hal_pwr_ex.c ****   *         This parameter can be one of the following values:
 629:/home/barnecle/STM32Cube/Repository/STM32Cube_FW_L4_V1.17.1/Drivers/STM32L4xx_HAL_Driver/Src/stm32l4xx_hal_pwr_ex.c ****   *         PWR_GPIO_BIT_0, ..., PWR_GPIO_BIT_15 (except for the port where less
 630:/home/barnecle/STM32Cube/Repository/STM32Cube_FW_L4_V1.17.1/Drivers/STM32L4xx_HAL_Driver/Src/stm32l4xx_hal_pwr_ex.c ****   *         I/O pins are available) or the logical OR of several of them to reset
 631:/home/barnecle/STM32Cube/Repository/STM32Cube_FW_L4_V1.17.1/Drivers/STM32L4xx_HAL_Driver/Src/stm32l4xx_hal_pwr_ex.c ****   *         several bits for a given port in a single API call.
 632:/home/barnecle/STM32Cube/Repository/STM32Cube_FW_L4_V1.17.1/Drivers/STM32L4xx_HAL_Driver/Src/stm32l4xx_hal_pwr_ex.c ****   * @retval HAL Status
 633:/home/barnecle/STM32Cube/Repository/STM32Cube_FW_L4_V1.17.1/Drivers/STM32L4xx_HAL_Driver/Src/stm32l4xx_hal_pwr_ex.c ****   */
 634:/home/barnecle/STM32Cube/Repository/STM32Cube_FW_L4_V1.17.1/Drivers/STM32L4xx_HAL_Driver/Src/stm32l4xx_hal_pwr_ex.c **** HAL_StatusTypeDef HAL_PWREx_DisableGPIOPullDown(uint32_t GPIO, uint32_t GPIONumber)
 635:/home/barnecle/STM32Cube/Repository/STM32Cube_FW_L4_V1.17.1/Drivers/STM32L4xx_HAL_Driver/Src/stm32l4xx_hal_pwr_ex.c **** {
 782              		.loc 1 635 1 is_stmt 1 view -0
 783              		.cfi_startproc
 784              		@ args = 0, pretend = 0, frame = 0
 785              		@ frame_needed = 0, uses_anonymous_args = 0
 786              		@ link register save eliminated.
 636:/home/barnecle/STM32Cube/Repository/STM32Cube_FW_L4_V1.17.1/Drivers/STM32L4xx_HAL_Driver/Src/stm32l4xx_hal_pwr_ex.c ****   HAL_StatusTypeDef status = HAL_OK;
 787              		.loc 1 636 3 view .LVU176
 637:/home/barnecle/STM32Cube/Repository/STM32Cube_FW_L4_V1.17.1/Drivers/STM32L4xx_HAL_Driver/Src/stm32l4xx_hal_pwr_ex.c **** 
 638:/home/barnecle/STM32Cube/Repository/STM32Cube_FW_L4_V1.17.1/Drivers/STM32L4xx_HAL_Driver/Src/stm32l4xx_hal_pwr_ex.c ****   assert_param(IS_PWR_GPIO(GPIO));
 788              		.loc 1 638 3 view .LVU177
 639:/home/barnecle/STM32Cube/Repository/STM32Cube_FW_L4_V1.17.1/Drivers/STM32L4xx_HAL_Driver/Src/stm32l4xx_hal_pwr_ex.c ****   assert_param(IS_PWR_GPIO_BIT_NUMBER(GPIONumber));
 789              		.loc 1 639 3 view .LVU178
 640:/home/barnecle/STM32Cube/Repository/STM32Cube_FW_L4_V1.17.1/Drivers/STM32L4xx_HAL_Driver/Src/stm32l4xx_hal_pwr_ex.c **** 
 641:/home/barnecle/STM32Cube/Repository/STM32Cube_FW_L4_V1.17.1/Drivers/STM32L4xx_HAL_Driver/Src/stm32l4xx_hal_pwr_ex.c ****   switch (GPIO)
 790              		.loc 1 641 3 view .LVU179
 791 0000 0728     		cmp	r0, #7
 792 0002 2ED8     		bhi	.L75
 793 0004 DFE800F0 		tbb	[pc, r0]
 794              	.L70:
 795 0008 04       		.byte	(.L74-.L70)/2
 796 0009 0D       		.byte	(.L73-.L70)/2
 797 000a 16       		.byte	(.L72-.L70)/2
 798 000b 1D       		.byte	(.L71-.L70)/2
 799 000c 2D       		.byte	(.L75-.L70)/2
 800 000d 2D       		.byte	(.L75-.L70)/2
 801 000e 2D       		.byte	(.L75-.L70)/2
 802 000f 24       		.byte	(.L69-.L70)/2
 803              		.p2align 1
 804              	.L74:
 642:/home/barnecle/STM32Cube/Repository/STM32Cube_FW_L4_V1.17.1/Drivers/STM32L4xx_HAL_Driver/Src/stm32l4xx_hal_pwr_ex.c ****   {
 643:/home/barnecle/STM32Cube/Repository/STM32Cube_FW_L4_V1.17.1/Drivers/STM32L4xx_HAL_Driver/Src/stm32l4xx_hal_pwr_ex.c ****     case PWR_GPIO_A:
 644:/home/barnecle/STM32Cube/Repository/STM32Cube_FW_L4_V1.17.1/Drivers/STM32L4xx_HAL_Driver/Src/stm32l4xx_hal_pwr_ex.c ****        CLEAR_BIT(PWR->PDCRA, (GPIONumber & (~(PWR_GPIO_BIT_13|PWR_GPIO_BIT_15))));
 805              		.loc 1 644 8 view .LVU180
 806 0010 154A     		ldr	r2, .L76
 807 0012 536A     		ldr	r3, [r2, #36]
 808 0014 21F42041 		bic	r1, r1, #40960
 809              	.LVL66:
 810              		.loc 1 644 8 is_stmt 0 view .LVU181
 811 0018 23EA0101 		bic	r1, r3, r1
 812 001c 5162     		str	r1, [r2, #36]
 645:/home/barnecle/STM32Cube/Repository/STM32Cube_FW_L4_V1.17.1/Drivers/STM32L4xx_HAL_Driver/Src/stm32l4xx_hal_pwr_ex.c ****        break;
 813              		.loc 1 645 8 is_stmt 1 view .LVU182
 636:/home/barnecle/STM32Cube/Repository/STM32Cube_FW_L4_V1.17.1/Drivers/STM32L4xx_HAL_Driver/Src/stm32l4xx_hal_pwr_ex.c **** 
 814              		.loc 1 636 21 is_stmt 0 view .LVU183
 815 001e 0020     		movs	r0, #0
 816              	.LVL67:
 817              		.loc 1 645 8 view .LVU184
 818 0020 7047     		bx	lr
 819              	.LVL68:
ARM GAS  /tmp/ccNJjxjx.s 			page 27


 820              	.L73:
 646:/home/barnecle/STM32Cube/Repository/STM32Cube_FW_L4_V1.17.1/Drivers/STM32L4xx_HAL_Driver/Src/stm32l4xx_hal_pwr_ex.c ****     case PWR_GPIO_B:
 647:/home/barnecle/STM32Cube/Repository/STM32Cube_FW_L4_V1.17.1/Drivers/STM32L4xx_HAL_Driver/Src/stm32l4xx_hal_pwr_ex.c ****        CLEAR_BIT(PWR->PDCRB, (GPIONumber & (~(PWR_GPIO_BIT_4))));
 821              		.loc 1 647 8 is_stmt 1 view .LVU185
 822 0022 114A     		ldr	r2, .L76
 823 0024 D36A     		ldr	r3, [r2, #44]
 824 0026 21F01001 		bic	r1, r1, #16
 825              	.LVL69:
 826              		.loc 1 647 8 is_stmt 0 view .LVU186
 827 002a 23EA0101 		bic	r1, r3, r1
 828 002e D162     		str	r1, [r2, #44]
 648:/home/barnecle/STM32Cube/Repository/STM32Cube_FW_L4_V1.17.1/Drivers/STM32L4xx_HAL_Driver/Src/stm32l4xx_hal_pwr_ex.c ****        break;
 829              		.loc 1 648 8 is_stmt 1 view .LVU187
 636:/home/barnecle/STM32Cube/Repository/STM32Cube_FW_L4_V1.17.1/Drivers/STM32L4xx_HAL_Driver/Src/stm32l4xx_hal_pwr_ex.c **** 
 830              		.loc 1 636 21 is_stmt 0 view .LVU188
 831 0030 0020     		movs	r0, #0
 832              	.LVL70:
 833              		.loc 1 648 8 view .LVU189
 834 0032 7047     		bx	lr
 835              	.LVL71:
 836              	.L72:
 649:/home/barnecle/STM32Cube/Repository/STM32Cube_FW_L4_V1.17.1/Drivers/STM32L4xx_HAL_Driver/Src/stm32l4xx_hal_pwr_ex.c ****     case PWR_GPIO_C:
 650:/home/barnecle/STM32Cube/Repository/STM32Cube_FW_L4_V1.17.1/Drivers/STM32L4xx_HAL_Driver/Src/stm32l4xx_hal_pwr_ex.c ****        CLEAR_BIT(PWR->PDCRC, GPIONumber);
 837              		.loc 1 650 8 is_stmt 1 view .LVU190
 838 0034 0C4A     		ldr	r2, .L76
 839 0036 536B     		ldr	r3, [r2, #52]
 840 0038 23EA0101 		bic	r1, r3, r1
 841              	.LVL72:
 842              		.loc 1 650 8 is_stmt 0 view .LVU191
 843 003c 5163     		str	r1, [r2, #52]
 651:/home/barnecle/STM32Cube/Repository/STM32Cube_FW_L4_V1.17.1/Drivers/STM32L4xx_HAL_Driver/Src/stm32l4xx_hal_pwr_ex.c ****        break;
 844              		.loc 1 651 8 is_stmt 1 view .LVU192
 636:/home/barnecle/STM32Cube/Repository/STM32Cube_FW_L4_V1.17.1/Drivers/STM32L4xx_HAL_Driver/Src/stm32l4xx_hal_pwr_ex.c **** 
 845              		.loc 1 636 21 is_stmt 0 view .LVU193
 846 003e 0020     		movs	r0, #0
 847              	.LVL73:
 848              		.loc 1 651 8 view .LVU194
 849 0040 7047     		bx	lr
 850              	.LVL74:
 851              	.L71:
 652:/home/barnecle/STM32Cube/Repository/STM32Cube_FW_L4_V1.17.1/Drivers/STM32L4xx_HAL_Driver/Src/stm32l4xx_hal_pwr_ex.c **** #if defined(GPIOD)
 653:/home/barnecle/STM32Cube/Repository/STM32Cube_FW_L4_V1.17.1/Drivers/STM32L4xx_HAL_Driver/Src/stm32l4xx_hal_pwr_ex.c ****     case PWR_GPIO_D:
 654:/home/barnecle/STM32Cube/Repository/STM32Cube_FW_L4_V1.17.1/Drivers/STM32L4xx_HAL_Driver/Src/stm32l4xx_hal_pwr_ex.c ****        CLEAR_BIT(PWR->PDCRD, GPIONumber);
 852              		.loc 1 654 8 is_stmt 1 view .LVU195
 853 0042 094A     		ldr	r2, .L76
 854 0044 D36B     		ldr	r3, [r2, #60]
 855 0046 23EA0101 		bic	r1, r3, r1
 856              	.LVL75:
 857              		.loc 1 654 8 is_stmt 0 view .LVU196
 858 004a D163     		str	r1, [r2, #60]
 655:/home/barnecle/STM32Cube/Repository/STM32Cube_FW_L4_V1.17.1/Drivers/STM32L4xx_HAL_Driver/Src/stm32l4xx_hal_pwr_ex.c ****        break;
 859              		.loc 1 655 8 is_stmt 1 view .LVU197
 636:/home/barnecle/STM32Cube/Repository/STM32Cube_FW_L4_V1.17.1/Drivers/STM32L4xx_HAL_Driver/Src/stm32l4xx_hal_pwr_ex.c **** 
 860              		.loc 1 636 21 is_stmt 0 view .LVU198
 861 004c 0020     		movs	r0, #0
 862              	.LVL76:
 863              		.loc 1 655 8 view .LVU199
ARM GAS  /tmp/ccNJjxjx.s 			page 28


 864 004e 7047     		bx	lr
 865              	.LVL77:
 866              	.L69:
 656:/home/barnecle/STM32Cube/Repository/STM32Cube_FW_L4_V1.17.1/Drivers/STM32L4xx_HAL_Driver/Src/stm32l4xx_hal_pwr_ex.c **** #endif
 657:/home/barnecle/STM32Cube/Repository/STM32Cube_FW_L4_V1.17.1/Drivers/STM32L4xx_HAL_Driver/Src/stm32l4xx_hal_pwr_ex.c **** #if defined(GPIOE)
 658:/home/barnecle/STM32Cube/Repository/STM32Cube_FW_L4_V1.17.1/Drivers/STM32L4xx_HAL_Driver/Src/stm32l4xx_hal_pwr_ex.c ****     case PWR_GPIO_E:
 659:/home/barnecle/STM32Cube/Repository/STM32Cube_FW_L4_V1.17.1/Drivers/STM32L4xx_HAL_Driver/Src/stm32l4xx_hal_pwr_ex.c ****        CLEAR_BIT(PWR->PDCRE, GPIONumber);
 660:/home/barnecle/STM32Cube/Repository/STM32Cube_FW_L4_V1.17.1/Drivers/STM32L4xx_HAL_Driver/Src/stm32l4xx_hal_pwr_ex.c ****        break;
 661:/home/barnecle/STM32Cube/Repository/STM32Cube_FW_L4_V1.17.1/Drivers/STM32L4xx_HAL_Driver/Src/stm32l4xx_hal_pwr_ex.c **** #endif
 662:/home/barnecle/STM32Cube/Repository/STM32Cube_FW_L4_V1.17.1/Drivers/STM32L4xx_HAL_Driver/Src/stm32l4xx_hal_pwr_ex.c **** #if defined(GPIOF)
 663:/home/barnecle/STM32Cube/Repository/STM32Cube_FW_L4_V1.17.1/Drivers/STM32L4xx_HAL_Driver/Src/stm32l4xx_hal_pwr_ex.c ****     case PWR_GPIO_F:
 664:/home/barnecle/STM32Cube/Repository/STM32Cube_FW_L4_V1.17.1/Drivers/STM32L4xx_HAL_Driver/Src/stm32l4xx_hal_pwr_ex.c ****        CLEAR_BIT(PWR->PDCRF, GPIONumber);
 665:/home/barnecle/STM32Cube/Repository/STM32Cube_FW_L4_V1.17.1/Drivers/STM32L4xx_HAL_Driver/Src/stm32l4xx_hal_pwr_ex.c ****        break;
 666:/home/barnecle/STM32Cube/Repository/STM32Cube_FW_L4_V1.17.1/Drivers/STM32L4xx_HAL_Driver/Src/stm32l4xx_hal_pwr_ex.c **** #endif
 667:/home/barnecle/STM32Cube/Repository/STM32Cube_FW_L4_V1.17.1/Drivers/STM32L4xx_HAL_Driver/Src/stm32l4xx_hal_pwr_ex.c **** #if defined(GPIOG)
 668:/home/barnecle/STM32Cube/Repository/STM32Cube_FW_L4_V1.17.1/Drivers/STM32L4xx_HAL_Driver/Src/stm32l4xx_hal_pwr_ex.c ****     case PWR_GPIO_G:
 669:/home/barnecle/STM32Cube/Repository/STM32Cube_FW_L4_V1.17.1/Drivers/STM32L4xx_HAL_Driver/Src/stm32l4xx_hal_pwr_ex.c ****        CLEAR_BIT(PWR->PDCRG, GPIONumber);
 670:/home/barnecle/STM32Cube/Repository/STM32Cube_FW_L4_V1.17.1/Drivers/STM32L4xx_HAL_Driver/Src/stm32l4xx_hal_pwr_ex.c ****        break;
 671:/home/barnecle/STM32Cube/Repository/STM32Cube_FW_L4_V1.17.1/Drivers/STM32L4xx_HAL_Driver/Src/stm32l4xx_hal_pwr_ex.c **** #endif
 672:/home/barnecle/STM32Cube/Repository/STM32Cube_FW_L4_V1.17.1/Drivers/STM32L4xx_HAL_Driver/Src/stm32l4xx_hal_pwr_ex.c ****     case PWR_GPIO_H:
 673:/home/barnecle/STM32Cube/Repository/STM32Cube_FW_L4_V1.17.1/Drivers/STM32L4xx_HAL_Driver/Src/stm32l4xx_hal_pwr_ex.c **** #if defined (STM32L496xx) || defined (STM32L4A6xx)
 674:/home/barnecle/STM32Cube/Repository/STM32Cube_FW_L4_V1.17.1/Drivers/STM32L4xx_HAL_Driver/Src/stm32l4xx_hal_pwr_ex.c ****        CLEAR_BIT(PWR->PDCRH, ((GPIONumber & PWR_PORTH_AVAILABLE_PINS) & (~(PWR_GPIO_BIT_3))));
 675:/home/barnecle/STM32Cube/Repository/STM32Cube_FW_L4_V1.17.1/Drivers/STM32L4xx_HAL_Driver/Src/stm32l4xx_hal_pwr_ex.c **** #else
 676:/home/barnecle/STM32Cube/Repository/STM32Cube_FW_L4_V1.17.1/Drivers/STM32L4xx_HAL_Driver/Src/stm32l4xx_hal_pwr_ex.c ****        CLEAR_BIT(PWR->PDCRH, (GPIONumber & PWR_PORTH_AVAILABLE_PINS));
 867              		.loc 1 676 8 is_stmt 1 view .LVU200
 868 0050 054A     		ldr	r2, .L76
 869 0052 D36D     		ldr	r3, [r2, #92]
 870 0054 01F00B01 		and	r1, r1, #11
 871              	.LVL78:
 872              		.loc 1 676 8 is_stmt 0 view .LVU201
 873 0058 23EA0101 		bic	r1, r3, r1
 874 005c D165     		str	r1, [r2, #92]
 677:/home/barnecle/STM32Cube/Repository/STM32Cube_FW_L4_V1.17.1/Drivers/STM32L4xx_HAL_Driver/Src/stm32l4xx_hal_pwr_ex.c **** #endif
 678:/home/barnecle/STM32Cube/Repository/STM32Cube_FW_L4_V1.17.1/Drivers/STM32L4xx_HAL_Driver/Src/stm32l4xx_hal_pwr_ex.c ****        break;
 875              		.loc 1 678 8 is_stmt 1 view .LVU202
 636:/home/barnecle/STM32Cube/Repository/STM32Cube_FW_L4_V1.17.1/Drivers/STM32L4xx_HAL_Driver/Src/stm32l4xx_hal_pwr_ex.c **** 
 876              		.loc 1 636 21 is_stmt 0 view .LVU203
 877 005e 0020     		movs	r0, #0
 878              	.LVL79:
 879              		.loc 1 678 8 view .LVU204
 880 0060 7047     		bx	lr
 881              	.LVL80:
 882              	.L75:
 641:/home/barnecle/STM32Cube/Repository/STM32Cube_FW_L4_V1.17.1/Drivers/STM32L4xx_HAL_Driver/Src/stm32l4xx_hal_pwr_ex.c ****   {
 883              		.loc 1 641 3 view .LVU205
 884 0062 0120     		movs	r0, #1
 885              	.LVL81:
 679:/home/barnecle/STM32Cube/Repository/STM32Cube_FW_L4_V1.17.1/Drivers/STM32L4xx_HAL_Driver/Src/stm32l4xx_hal_pwr_ex.c **** #if defined(GPIOI)
 680:/home/barnecle/STM32Cube/Repository/STM32Cube_FW_L4_V1.17.1/Drivers/STM32L4xx_HAL_Driver/Src/stm32l4xx_hal_pwr_ex.c ****     case PWR_GPIO_I:
 681:/home/barnecle/STM32Cube/Repository/STM32Cube_FW_L4_V1.17.1/Drivers/STM32L4xx_HAL_Driver/Src/stm32l4xx_hal_pwr_ex.c ****        CLEAR_BIT(PWR->PDCRI, (GPIONumber & PWR_PORTI_AVAILABLE_PINS));
 682:/home/barnecle/STM32Cube/Repository/STM32Cube_FW_L4_V1.17.1/Drivers/STM32L4xx_HAL_Driver/Src/stm32l4xx_hal_pwr_ex.c ****        break;
 683:/home/barnecle/STM32Cube/Repository/STM32Cube_FW_L4_V1.17.1/Drivers/STM32L4xx_HAL_Driver/Src/stm32l4xx_hal_pwr_ex.c **** #endif
 684:/home/barnecle/STM32Cube/Repository/STM32Cube_FW_L4_V1.17.1/Drivers/STM32L4xx_HAL_Driver/Src/stm32l4xx_hal_pwr_ex.c ****     default:
 685:/home/barnecle/STM32Cube/Repository/STM32Cube_FW_L4_V1.17.1/Drivers/STM32L4xx_HAL_Driver/Src/stm32l4xx_hal_pwr_ex.c ****       status = HAL_ERROR;
 686:/home/barnecle/STM32Cube/Repository/STM32Cube_FW_L4_V1.17.1/Drivers/STM32L4xx_HAL_Driver/Src/stm32l4xx_hal_pwr_ex.c ****       break;
 687:/home/barnecle/STM32Cube/Repository/STM32Cube_FW_L4_V1.17.1/Drivers/STM32L4xx_HAL_Driver/Src/stm32l4xx_hal_pwr_ex.c ****   }
 688:/home/barnecle/STM32Cube/Repository/STM32Cube_FW_L4_V1.17.1/Drivers/STM32L4xx_HAL_Driver/Src/stm32l4xx_hal_pwr_ex.c **** 
ARM GAS  /tmp/ccNJjxjx.s 			page 29


 689:/home/barnecle/STM32Cube/Repository/STM32Cube_FW_L4_V1.17.1/Drivers/STM32L4xx_HAL_Driver/Src/stm32l4xx_hal_pwr_ex.c ****   return status;
 886              		.loc 1 689 3 is_stmt 1 view .LVU206
 690:/home/barnecle/STM32Cube/Repository/STM32Cube_FW_L4_V1.17.1/Drivers/STM32L4xx_HAL_Driver/Src/stm32l4xx_hal_pwr_ex.c **** }
 887              		.loc 1 690 1 is_stmt 0 view .LVU207
 888 0064 7047     		bx	lr
 889              	.L77:
 890 0066 00BF     		.align	2
 891              	.L76:
 892 0068 00700040 		.word	1073770496
 893              		.cfi_endproc
 894              	.LFE143:
 896              		.section	.text.HAL_PWREx_EnablePullUpPullDownConfig,"ax",%progbits
 897              		.align	1
 898              		.global	HAL_PWREx_EnablePullUpPullDownConfig
 899              		.syntax unified
 900              		.thumb
 901              		.thumb_func
 903              	HAL_PWREx_EnablePullUpPullDownConfig:
 904              	.LFB144:
 691:/home/barnecle/STM32Cube/Repository/STM32Cube_FW_L4_V1.17.1/Drivers/STM32L4xx_HAL_Driver/Src/stm32l4xx_hal_pwr_ex.c **** 
 692:/home/barnecle/STM32Cube/Repository/STM32Cube_FW_L4_V1.17.1/Drivers/STM32L4xx_HAL_Driver/Src/stm32l4xx_hal_pwr_ex.c **** 
 693:/home/barnecle/STM32Cube/Repository/STM32Cube_FW_L4_V1.17.1/Drivers/STM32L4xx_HAL_Driver/Src/stm32l4xx_hal_pwr_ex.c **** 
 694:/home/barnecle/STM32Cube/Repository/STM32Cube_FW_L4_V1.17.1/Drivers/STM32L4xx_HAL_Driver/Src/stm32l4xx_hal_pwr_ex.c **** /**
 695:/home/barnecle/STM32Cube/Repository/STM32Cube_FW_L4_V1.17.1/Drivers/STM32L4xx_HAL_Driver/Src/stm32l4xx_hal_pwr_ex.c ****   * @brief Enable pull-up and pull-down configuration.
 696:/home/barnecle/STM32Cube/Repository/STM32Cube_FW_L4_V1.17.1/Drivers/STM32L4xx_HAL_Driver/Src/stm32l4xx_hal_pwr_ex.c ****   * @note  When APC bit is set, the I/O pull-up and pull-down configurations defined in
 697:/home/barnecle/STM32Cube/Repository/STM32Cube_FW_L4_V1.17.1/Drivers/STM32L4xx_HAL_Driver/Src/stm32l4xx_hal_pwr_ex.c ****   *        PWR_PUCRx and PWR_PDCRx registers are applied in Standby and Shutdown modes.
 698:/home/barnecle/STM32Cube/Repository/STM32Cube_FW_L4_V1.17.1/Drivers/STM32L4xx_HAL_Driver/Src/stm32l4xx_hal_pwr_ex.c ****   * @note  Pull-up set by PUy bit of PWR_PUCRx register is not activated if the corresponding
 699:/home/barnecle/STM32Cube/Repository/STM32Cube_FW_L4_V1.17.1/Drivers/STM32L4xx_HAL_Driver/Src/stm32l4xx_hal_pwr_ex.c ****   *        PDy bit of PWR_PDCRx register is also set (pull-down configuration priority is higher).
 700:/home/barnecle/STM32Cube/Repository/STM32Cube_FW_L4_V1.17.1/Drivers/STM32L4xx_HAL_Driver/Src/stm32l4xx_hal_pwr_ex.c ****   *        HAL_PWREx_EnableGPIOPullUp() and HAL_PWREx_EnableGPIOPullDown() API's ensure there
 701:/home/barnecle/STM32Cube/Repository/STM32Cube_FW_L4_V1.17.1/Drivers/STM32L4xx_HAL_Driver/Src/stm32l4xx_hal_pwr_ex.c ****   *        is no conflict when setting PUy or PDy bit.
 702:/home/barnecle/STM32Cube/Repository/STM32Cube_FW_L4_V1.17.1/Drivers/STM32L4xx_HAL_Driver/Src/stm32l4xx_hal_pwr_ex.c ****   * @retval None
 703:/home/barnecle/STM32Cube/Repository/STM32Cube_FW_L4_V1.17.1/Drivers/STM32L4xx_HAL_Driver/Src/stm32l4xx_hal_pwr_ex.c ****   */
 704:/home/barnecle/STM32Cube/Repository/STM32Cube_FW_L4_V1.17.1/Drivers/STM32L4xx_HAL_Driver/Src/stm32l4xx_hal_pwr_ex.c **** void HAL_PWREx_EnablePullUpPullDownConfig(void)
 705:/home/barnecle/STM32Cube/Repository/STM32Cube_FW_L4_V1.17.1/Drivers/STM32L4xx_HAL_Driver/Src/stm32l4xx_hal_pwr_ex.c **** {
 905              		.loc 1 705 1 is_stmt 1 view -0
 906              		.cfi_startproc
 907              		@ args = 0, pretend = 0, frame = 0
 908              		@ frame_needed = 0, uses_anonymous_args = 0
 909              		@ link register save eliminated.
 706:/home/barnecle/STM32Cube/Repository/STM32Cube_FW_L4_V1.17.1/Drivers/STM32L4xx_HAL_Driver/Src/stm32l4xx_hal_pwr_ex.c ****   SET_BIT(PWR->CR3, PWR_CR3_APC);
 910              		.loc 1 706 3 view .LVU209
 911 0000 024A     		ldr	r2, .L79
 912 0002 9368     		ldr	r3, [r2, #8]
 913 0004 43F48063 		orr	r3, r3, #1024
 914 0008 9360     		str	r3, [r2, #8]
 707:/home/barnecle/STM32Cube/Repository/STM32Cube_FW_L4_V1.17.1/Drivers/STM32L4xx_HAL_Driver/Src/stm32l4xx_hal_pwr_ex.c **** }
 915              		.loc 1 707 1 is_stmt 0 view .LVU210
 916 000a 7047     		bx	lr
 917              	.L80:
 918              		.align	2
 919              	.L79:
 920 000c 00700040 		.word	1073770496
 921              		.cfi_endproc
 922              	.LFE144:
 924              		.section	.text.HAL_PWREx_DisablePullUpPullDownConfig,"ax",%progbits
 925              		.align	1
 926              		.global	HAL_PWREx_DisablePullUpPullDownConfig
ARM GAS  /tmp/ccNJjxjx.s 			page 30


 927              		.syntax unified
 928              		.thumb
 929              		.thumb_func
 931              	HAL_PWREx_DisablePullUpPullDownConfig:
 932              	.LFB145:
 708:/home/barnecle/STM32Cube/Repository/STM32Cube_FW_L4_V1.17.1/Drivers/STM32L4xx_HAL_Driver/Src/stm32l4xx_hal_pwr_ex.c **** 
 709:/home/barnecle/STM32Cube/Repository/STM32Cube_FW_L4_V1.17.1/Drivers/STM32L4xx_HAL_Driver/Src/stm32l4xx_hal_pwr_ex.c **** 
 710:/home/barnecle/STM32Cube/Repository/STM32Cube_FW_L4_V1.17.1/Drivers/STM32L4xx_HAL_Driver/Src/stm32l4xx_hal_pwr_ex.c **** /**
 711:/home/barnecle/STM32Cube/Repository/STM32Cube_FW_L4_V1.17.1/Drivers/STM32L4xx_HAL_Driver/Src/stm32l4xx_hal_pwr_ex.c ****   * @brief Disable pull-up and pull-down configuration.
 712:/home/barnecle/STM32Cube/Repository/STM32Cube_FW_L4_V1.17.1/Drivers/STM32L4xx_HAL_Driver/Src/stm32l4xx_hal_pwr_ex.c ****   * @note  When APC bit is cleared, the I/O pull-up and pull-down configurations defined in
 713:/home/barnecle/STM32Cube/Repository/STM32Cube_FW_L4_V1.17.1/Drivers/STM32L4xx_HAL_Driver/Src/stm32l4xx_hal_pwr_ex.c ****   *        PWR_PUCRx and PWR_PDCRx registers are not applied in Standby and Shutdown modes.
 714:/home/barnecle/STM32Cube/Repository/STM32Cube_FW_L4_V1.17.1/Drivers/STM32L4xx_HAL_Driver/Src/stm32l4xx_hal_pwr_ex.c ****   * @retval None
 715:/home/barnecle/STM32Cube/Repository/STM32Cube_FW_L4_V1.17.1/Drivers/STM32L4xx_HAL_Driver/Src/stm32l4xx_hal_pwr_ex.c ****   */
 716:/home/barnecle/STM32Cube/Repository/STM32Cube_FW_L4_V1.17.1/Drivers/STM32L4xx_HAL_Driver/Src/stm32l4xx_hal_pwr_ex.c **** void HAL_PWREx_DisablePullUpPullDownConfig(void)
 717:/home/barnecle/STM32Cube/Repository/STM32Cube_FW_L4_V1.17.1/Drivers/STM32L4xx_HAL_Driver/Src/stm32l4xx_hal_pwr_ex.c **** {
 933              		.loc 1 717 1 is_stmt 1 view -0
 934              		.cfi_startproc
 935              		@ args = 0, pretend = 0, frame = 0
 936              		@ frame_needed = 0, uses_anonymous_args = 0
 937              		@ link register save eliminated.
 718:/home/barnecle/STM32Cube/Repository/STM32Cube_FW_L4_V1.17.1/Drivers/STM32L4xx_HAL_Driver/Src/stm32l4xx_hal_pwr_ex.c ****   CLEAR_BIT(PWR->CR3, PWR_CR3_APC);
 938              		.loc 1 718 3 view .LVU212
 939 0000 024A     		ldr	r2, .L82
 940 0002 9368     		ldr	r3, [r2, #8]
 941 0004 23F48063 		bic	r3, r3, #1024
 942 0008 9360     		str	r3, [r2, #8]
 719:/home/barnecle/STM32Cube/Repository/STM32Cube_FW_L4_V1.17.1/Drivers/STM32L4xx_HAL_Driver/Src/stm32l4xx_hal_pwr_ex.c **** }
 943              		.loc 1 719 1 is_stmt 0 view .LVU213
 944 000a 7047     		bx	lr
 945              	.L83:
 946              		.align	2
 947              	.L82:
 948 000c 00700040 		.word	1073770496
 949              		.cfi_endproc
 950              	.LFE145:
 952              		.section	.text.HAL_PWREx_SetSRAM2ContentRetention,"ax",%progbits
 953              		.align	1
 954              		.global	HAL_PWREx_SetSRAM2ContentRetention
 955              		.syntax unified
 956              		.thumb
 957              		.thumb_func
 959              	HAL_PWREx_SetSRAM2ContentRetention:
 960              	.LVL82:
 961              	.LFB148:
 720:/home/barnecle/STM32Cube/Repository/STM32Cube_FW_L4_V1.17.1/Drivers/STM32L4xx_HAL_Driver/Src/stm32l4xx_hal_pwr_ex.c **** 
 721:/home/barnecle/STM32Cube/Repository/STM32Cube_FW_L4_V1.17.1/Drivers/STM32L4xx_HAL_Driver/Src/stm32l4xx_hal_pwr_ex.c **** 
 722:/home/barnecle/STM32Cube/Repository/STM32Cube_FW_L4_V1.17.1/Drivers/STM32L4xx_HAL_Driver/Src/stm32l4xx_hal_pwr_ex.c **** 
 723:/home/barnecle/STM32Cube/Repository/STM32Cube_FW_L4_V1.17.1/Drivers/STM32L4xx_HAL_Driver/Src/stm32l4xx_hal_pwr_ex.c **** /**
 724:/home/barnecle/STM32Cube/Repository/STM32Cube_FW_L4_V1.17.1/Drivers/STM32L4xx_HAL_Driver/Src/stm32l4xx_hal_pwr_ex.c ****   * @brief Enable Full SRAM2 content retention in Standby mode.
 725:/home/barnecle/STM32Cube/Repository/STM32Cube_FW_L4_V1.17.1/Drivers/STM32L4xx_HAL_Driver/Src/stm32l4xx_hal_pwr_ex.c ****   * @retval None
 726:/home/barnecle/STM32Cube/Repository/STM32Cube_FW_L4_V1.17.1/Drivers/STM32L4xx_HAL_Driver/Src/stm32l4xx_hal_pwr_ex.c ****   */
 727:/home/barnecle/STM32Cube/Repository/STM32Cube_FW_L4_V1.17.1/Drivers/STM32L4xx_HAL_Driver/Src/stm32l4xx_hal_pwr_ex.c **** void HAL_PWREx_EnableSRAM2ContentRetention(void)
 728:/home/barnecle/STM32Cube/Repository/STM32Cube_FW_L4_V1.17.1/Drivers/STM32L4xx_HAL_Driver/Src/stm32l4xx_hal_pwr_ex.c **** {
 729:/home/barnecle/STM32Cube/Repository/STM32Cube_FW_L4_V1.17.1/Drivers/STM32L4xx_HAL_Driver/Src/stm32l4xx_hal_pwr_ex.c ****   (void) HAL_PWREx_SetSRAM2ContentRetention(PWR_FULL_SRAM2_RETENTION);
 730:/home/barnecle/STM32Cube/Repository/STM32Cube_FW_L4_V1.17.1/Drivers/STM32L4xx_HAL_Driver/Src/stm32l4xx_hal_pwr_ex.c **** }
 731:/home/barnecle/STM32Cube/Repository/STM32Cube_FW_L4_V1.17.1/Drivers/STM32L4xx_HAL_Driver/Src/stm32l4xx_hal_pwr_ex.c **** 
 732:/home/barnecle/STM32Cube/Repository/STM32Cube_FW_L4_V1.17.1/Drivers/STM32L4xx_HAL_Driver/Src/stm32l4xx_hal_pwr_ex.c **** /**
ARM GAS  /tmp/ccNJjxjx.s 			page 31


 733:/home/barnecle/STM32Cube/Repository/STM32Cube_FW_L4_V1.17.1/Drivers/STM32L4xx_HAL_Driver/Src/stm32l4xx_hal_pwr_ex.c ****   * @brief Disable SRAM2 content retention in Standby mode.
 734:/home/barnecle/STM32Cube/Repository/STM32Cube_FW_L4_V1.17.1/Drivers/STM32L4xx_HAL_Driver/Src/stm32l4xx_hal_pwr_ex.c ****   * @retval None
 735:/home/barnecle/STM32Cube/Repository/STM32Cube_FW_L4_V1.17.1/Drivers/STM32L4xx_HAL_Driver/Src/stm32l4xx_hal_pwr_ex.c ****   */
 736:/home/barnecle/STM32Cube/Repository/STM32Cube_FW_L4_V1.17.1/Drivers/STM32L4xx_HAL_Driver/Src/stm32l4xx_hal_pwr_ex.c **** void HAL_PWREx_DisableSRAM2ContentRetention(void)
 737:/home/barnecle/STM32Cube/Repository/STM32Cube_FW_L4_V1.17.1/Drivers/STM32L4xx_HAL_Driver/Src/stm32l4xx_hal_pwr_ex.c **** {
 738:/home/barnecle/STM32Cube/Repository/STM32Cube_FW_L4_V1.17.1/Drivers/STM32L4xx_HAL_Driver/Src/stm32l4xx_hal_pwr_ex.c ****   (void) HAL_PWREx_SetSRAM2ContentRetention(PWR_NO_SRAM2_RETENTION);
 739:/home/barnecle/STM32Cube/Repository/STM32Cube_FW_L4_V1.17.1/Drivers/STM32L4xx_HAL_Driver/Src/stm32l4xx_hal_pwr_ex.c **** }
 740:/home/barnecle/STM32Cube/Repository/STM32Cube_FW_L4_V1.17.1/Drivers/STM32L4xx_HAL_Driver/Src/stm32l4xx_hal_pwr_ex.c **** 
 741:/home/barnecle/STM32Cube/Repository/STM32Cube_FW_L4_V1.17.1/Drivers/STM32L4xx_HAL_Driver/Src/stm32l4xx_hal_pwr_ex.c **** /**
 742:/home/barnecle/STM32Cube/Repository/STM32Cube_FW_L4_V1.17.1/Drivers/STM32L4xx_HAL_Driver/Src/stm32l4xx_hal_pwr_ex.c ****   * @brief Enable SRAM2 content retention in Standby mode.
 743:/home/barnecle/STM32Cube/Repository/STM32Cube_FW_L4_V1.17.1/Drivers/STM32L4xx_HAL_Driver/Src/stm32l4xx_hal_pwr_ex.c ****   * @param  SRAM2Size: specifies the SRAM2 size kept in Standby mode
 744:/home/barnecle/STM32Cube/Repository/STM32Cube_FW_L4_V1.17.1/Drivers/STM32L4xx_HAL_Driver/Src/stm32l4xx_hal_pwr_ex.c ****   *          This parameter can be one of the following values:
 745:/home/barnecle/STM32Cube/Repository/STM32Cube_FW_L4_V1.17.1/Drivers/STM32L4xx_HAL_Driver/Src/stm32l4xx_hal_pwr_ex.c ****   *            @arg @ref PWR_NO_SRAM2_RETENTION        SRAM2 is powered off in Standby mode (SRAM2 
 746:/home/barnecle/STM32Cube/Repository/STM32Cube_FW_L4_V1.17.1/Drivers/STM32L4xx_HAL_Driver/Src/stm32l4xx_hal_pwr_ex.c ****   *            @arg @ref PWR_FULL_SRAM2_RETENTION      Full SRAM2 is powered by the low-power regul
 747:/home/barnecle/STM32Cube/Repository/STM32Cube_FW_L4_V1.17.1/Drivers/STM32L4xx_HAL_Driver/Src/stm32l4xx_hal_pwr_ex.c ****   *            @arg @ref PWR_4KBYTES_SRAM2_RETENTION   Only 4 Kbytes of SRAM2 is powered by the low
 748:/home/barnecle/STM32Cube/Repository/STM32Cube_FW_L4_V1.17.1/Drivers/STM32L4xx_HAL_Driver/Src/stm32l4xx_hal_pwr_ex.c ****   * @note  PWR_4KBYTES_SRAM2_RETENTION parameter is not available on all devices
 749:/home/barnecle/STM32Cube/Repository/STM32Cube_FW_L4_V1.17.1/Drivers/STM32L4xx_HAL_Driver/Src/stm32l4xx_hal_pwr_ex.c ****   * @retval HAL Status
 750:/home/barnecle/STM32Cube/Repository/STM32Cube_FW_L4_V1.17.1/Drivers/STM32L4xx_HAL_Driver/Src/stm32l4xx_hal_pwr_ex.c ****   */
 751:/home/barnecle/STM32Cube/Repository/STM32Cube_FW_L4_V1.17.1/Drivers/STM32L4xx_HAL_Driver/Src/stm32l4xx_hal_pwr_ex.c **** HAL_StatusTypeDef HAL_PWREx_SetSRAM2ContentRetention(uint32_t SRAM2Size)
 752:/home/barnecle/STM32Cube/Repository/STM32Cube_FW_L4_V1.17.1/Drivers/STM32L4xx_HAL_Driver/Src/stm32l4xx_hal_pwr_ex.c **** {
 962              		.loc 1 752 1 is_stmt 1 view -0
 963              		.cfi_startproc
 964              		@ args = 0, pretend = 0, frame = 0
 965              		@ frame_needed = 0, uses_anonymous_args = 0
 966              		@ link register save eliminated.
 753:/home/barnecle/STM32Cube/Repository/STM32Cube_FW_L4_V1.17.1/Drivers/STM32L4xx_HAL_Driver/Src/stm32l4xx_hal_pwr_ex.c ****   assert_param(IS_PWR_SRAM2_RETENTION(SRAM2Size));
 967              		.loc 1 753 3 view .LVU215
 754:/home/barnecle/STM32Cube/Repository/STM32Cube_FW_L4_V1.17.1/Drivers/STM32L4xx_HAL_Driver/Src/stm32l4xx_hal_pwr_ex.c **** 
 755:/home/barnecle/STM32Cube/Repository/STM32Cube_FW_L4_V1.17.1/Drivers/STM32L4xx_HAL_Driver/Src/stm32l4xx_hal_pwr_ex.c ****   if (SRAM2Size == PWR_NO_SRAM2_RETENTION)
 968              		.loc 1 755 3 view .LVU216
 969              		.loc 1 755 6 is_stmt 0 view .LVU217
 970 0000 28B9     		cbnz	r0, .L85
 756:/home/barnecle/STM32Cube/Repository/STM32Cube_FW_L4_V1.17.1/Drivers/STM32L4xx_HAL_Driver/Src/stm32l4xx_hal_pwr_ex.c ****   {
 757:/home/barnecle/STM32Cube/Repository/STM32Cube_FW_L4_V1.17.1/Drivers/STM32L4xx_HAL_Driver/Src/stm32l4xx_hal_pwr_ex.c ****     CLEAR_BIT(PWR->CR3, PWR_CR3_RRS);
 971              		.loc 1 757 5 is_stmt 1 view .LVU218
 972 0002 094A     		ldr	r2, .L88
 973 0004 9368     		ldr	r3, [r2, #8]
 974 0006 23F48073 		bic	r3, r3, #256
 975 000a 9360     		str	r3, [r2, #8]
 976 000c 7047     		bx	lr
 977              	.L85:
 758:/home/barnecle/STM32Cube/Repository/STM32Cube_FW_L4_V1.17.1/Drivers/STM32L4xx_HAL_Driver/Src/stm32l4xx_hal_pwr_ex.c ****   }
 759:/home/barnecle/STM32Cube/Repository/STM32Cube_FW_L4_V1.17.1/Drivers/STM32L4xx_HAL_Driver/Src/stm32l4xx_hal_pwr_ex.c ****   else if (SRAM2Size == PWR_FULL_SRAM2_RETENTION)
 978              		.loc 1 759 8 view .LVU219
 979              		.loc 1 759 11 is_stmt 0 view .LVU220
 980 000e B0F5807F 		cmp	r0, #256
 981 0012 06D1     		bne	.L87
 760:/home/barnecle/STM32Cube/Repository/STM32Cube_FW_L4_V1.17.1/Drivers/STM32L4xx_HAL_Driver/Src/stm32l4xx_hal_pwr_ex.c ****   {
 761:/home/barnecle/STM32Cube/Repository/STM32Cube_FW_L4_V1.17.1/Drivers/STM32L4xx_HAL_Driver/Src/stm32l4xx_hal_pwr_ex.c ****     MODIFY_REG(PWR->CR3, PWR_CR3_RRS, PWR_FULL_SRAM2_RETENTION);
 982              		.loc 1 761 5 is_stmt 1 view .LVU221
 983 0014 044A     		ldr	r2, .L88
 984 0016 9368     		ldr	r3, [r2, #8]
 985 0018 43F48073 		orr	r3, r3, #256
 986 001c 9360     		str	r3, [r2, #8]
 762:/home/barnecle/STM32Cube/Repository/STM32Cube_FW_L4_V1.17.1/Drivers/STM32L4xx_HAL_Driver/Src/stm32l4xx_hal_pwr_ex.c ****   }
 763:/home/barnecle/STM32Cube/Repository/STM32Cube_FW_L4_V1.17.1/Drivers/STM32L4xx_HAL_Driver/Src/stm32l4xx_hal_pwr_ex.c **** #if defined(PWR_CR3_RRS_1)
 764:/home/barnecle/STM32Cube/Repository/STM32Cube_FW_L4_V1.17.1/Drivers/STM32L4xx_HAL_Driver/Src/stm32l4xx_hal_pwr_ex.c ****   else if (SRAM2Size == PWR_4KBYTES_SRAM2_RETENTION)
ARM GAS  /tmp/ccNJjxjx.s 			page 32


 765:/home/barnecle/STM32Cube/Repository/STM32Cube_FW_L4_V1.17.1/Drivers/STM32L4xx_HAL_Driver/Src/stm32l4xx_hal_pwr_ex.c ****   {
 766:/home/barnecle/STM32Cube/Repository/STM32Cube_FW_L4_V1.17.1/Drivers/STM32L4xx_HAL_Driver/Src/stm32l4xx_hal_pwr_ex.c ****     MODIFY_REG(PWR->CR3, PWR_CR3_RRS, PWR_4KBYTES_SRAM2_RETENTION);
 767:/home/barnecle/STM32Cube/Repository/STM32Cube_FW_L4_V1.17.1/Drivers/STM32L4xx_HAL_Driver/Src/stm32l4xx_hal_pwr_ex.c ****   }
 768:/home/barnecle/STM32Cube/Repository/STM32Cube_FW_L4_V1.17.1/Drivers/STM32L4xx_HAL_Driver/Src/stm32l4xx_hal_pwr_ex.c **** #endif /* PWR_CR3_RRS_1 */
 769:/home/barnecle/STM32Cube/Repository/STM32Cube_FW_L4_V1.17.1/Drivers/STM32L4xx_HAL_Driver/Src/stm32l4xx_hal_pwr_ex.c ****   else {
 770:/home/barnecle/STM32Cube/Repository/STM32Cube_FW_L4_V1.17.1/Drivers/STM32L4xx_HAL_Driver/Src/stm32l4xx_hal_pwr_ex.c ****     return HAL_ERROR;
 771:/home/barnecle/STM32Cube/Repository/STM32Cube_FW_L4_V1.17.1/Drivers/STM32L4xx_HAL_Driver/Src/stm32l4xx_hal_pwr_ex.c ****   }
 772:/home/barnecle/STM32Cube/Repository/STM32Cube_FW_L4_V1.17.1/Drivers/STM32L4xx_HAL_Driver/Src/stm32l4xx_hal_pwr_ex.c **** 
 773:/home/barnecle/STM32Cube/Repository/STM32Cube_FW_L4_V1.17.1/Drivers/STM32L4xx_HAL_Driver/Src/stm32l4xx_hal_pwr_ex.c ****   return HAL_OK;
 987              		.loc 1 773 10 is_stmt 0 view .LVU222
 988 001e 0020     		movs	r0, #0
 989              	.LVL83:
 990              		.loc 1 773 10 view .LVU223
 991 0020 7047     		bx	lr
 992              	.LVL84:
 993              	.L87:
 770:/home/barnecle/STM32Cube/Repository/STM32Cube_FW_L4_V1.17.1/Drivers/STM32L4xx_HAL_Driver/Src/stm32l4xx_hal_pwr_ex.c ****   }
 994              		.loc 1 770 12 view .LVU224
 995 0022 0120     		movs	r0, #1
 996              	.LVL85:
 774:/home/barnecle/STM32Cube/Repository/STM32Cube_FW_L4_V1.17.1/Drivers/STM32L4xx_HAL_Driver/Src/stm32l4xx_hal_pwr_ex.c **** }
 997              		.loc 1 774 1 view .LVU225
 998 0024 7047     		bx	lr
 999              	.L89:
 1000 0026 00BF     		.align	2
 1001              	.L88:
 1002 0028 00700040 		.word	1073770496
 1003              		.cfi_endproc
 1004              	.LFE148:
 1006              		.section	.text.HAL_PWREx_EnableSRAM2ContentRetention,"ax",%progbits
 1007              		.align	1
 1008              		.global	HAL_PWREx_EnableSRAM2ContentRetention
 1009              		.syntax unified
 1010              		.thumb
 1011              		.thumb_func
 1013              	HAL_PWREx_EnableSRAM2ContentRetention:
 1014              	.LFB146:
 728:/home/barnecle/STM32Cube/Repository/STM32Cube_FW_L4_V1.17.1/Drivers/STM32L4xx_HAL_Driver/Src/stm32l4xx_hal_pwr_ex.c ****   (void) HAL_PWREx_SetSRAM2ContentRetention(PWR_FULL_SRAM2_RETENTION);
 1015              		.loc 1 728 1 is_stmt 1 view -0
 1016              		.cfi_startproc
 1017              		@ args = 0, pretend = 0, frame = 0
 1018              		@ frame_needed = 0, uses_anonymous_args = 0
 1019 0000 08B5     		push	{r3, lr}
 1020              	.LCFI0:
 1021              		.cfi_def_cfa_offset 8
 1022              		.cfi_offset 3, -8
 1023              		.cfi_offset 14, -4
 729:/home/barnecle/STM32Cube/Repository/STM32Cube_FW_L4_V1.17.1/Drivers/STM32L4xx_HAL_Driver/Src/stm32l4xx_hal_pwr_ex.c **** }
 1024              		.loc 1 729 3 view .LVU227
 729:/home/barnecle/STM32Cube/Repository/STM32Cube_FW_L4_V1.17.1/Drivers/STM32L4xx_HAL_Driver/Src/stm32l4xx_hal_pwr_ex.c **** }
 1025              		.loc 1 729 10 is_stmt 0 view .LVU228
 1026 0002 4FF48070 		mov	r0, #256
 1027 0006 FFF7FEFF 		bl	HAL_PWREx_SetSRAM2ContentRetention
 1028              	.LVL86:
 730:/home/barnecle/STM32Cube/Repository/STM32Cube_FW_L4_V1.17.1/Drivers/STM32L4xx_HAL_Driver/Src/stm32l4xx_hal_pwr_ex.c **** 
 1029              		.loc 1 730 1 view .LVU229
 1030 000a 08BD     		pop	{r3, pc}
ARM GAS  /tmp/ccNJjxjx.s 			page 33


 1031              		.cfi_endproc
 1032              	.LFE146:
 1034              		.section	.text.HAL_PWREx_DisableSRAM2ContentRetention,"ax",%progbits
 1035              		.align	1
 1036              		.global	HAL_PWREx_DisableSRAM2ContentRetention
 1037              		.syntax unified
 1038              		.thumb
 1039              		.thumb_func
 1041              	HAL_PWREx_DisableSRAM2ContentRetention:
 1042              	.LFB147:
 737:/home/barnecle/STM32Cube/Repository/STM32Cube_FW_L4_V1.17.1/Drivers/STM32L4xx_HAL_Driver/Src/stm32l4xx_hal_pwr_ex.c ****   (void) HAL_PWREx_SetSRAM2ContentRetention(PWR_NO_SRAM2_RETENTION);
 1043              		.loc 1 737 1 is_stmt 1 view -0
 1044              		.cfi_startproc
 1045              		@ args = 0, pretend = 0, frame = 0
 1046              		@ frame_needed = 0, uses_anonymous_args = 0
 1047 0000 08B5     		push	{r3, lr}
 1048              	.LCFI1:
 1049              		.cfi_def_cfa_offset 8
 1050              		.cfi_offset 3, -8
 1051              		.cfi_offset 14, -4
 738:/home/barnecle/STM32Cube/Repository/STM32Cube_FW_L4_V1.17.1/Drivers/STM32L4xx_HAL_Driver/Src/stm32l4xx_hal_pwr_ex.c **** }
 1052              		.loc 1 738 3 view .LVU231
 738:/home/barnecle/STM32Cube/Repository/STM32Cube_FW_L4_V1.17.1/Drivers/STM32L4xx_HAL_Driver/Src/stm32l4xx_hal_pwr_ex.c **** }
 1053              		.loc 1 738 10 is_stmt 0 view .LVU232
 1054 0002 0020     		movs	r0, #0
 1055 0004 FFF7FEFF 		bl	HAL_PWREx_SetSRAM2ContentRetention
 1056              	.LVL87:
 739:/home/barnecle/STM32Cube/Repository/STM32Cube_FW_L4_V1.17.1/Drivers/STM32L4xx_HAL_Driver/Src/stm32l4xx_hal_pwr_ex.c **** 
 1057              		.loc 1 739 1 view .LVU233
 1058 0008 08BD     		pop	{r3, pc}
 1059              		.cfi_endproc
 1060              	.LFE147:
 1062              		.section	.text.HAL_PWREx_EnableBORPVD_ULP,"ax",%progbits
 1063              		.align	1
 1064              		.global	HAL_PWREx_EnableBORPVD_ULP
 1065              		.syntax unified
 1066              		.thumb
 1067              		.thumb_func
 1069              	HAL_PWREx_EnableBORPVD_ULP:
 1070              	.LFB149:
 775:/home/barnecle/STM32Cube/Repository/STM32Cube_FW_L4_V1.17.1/Drivers/STM32L4xx_HAL_Driver/Src/stm32l4xx_hal_pwr_ex.c **** 
 776:/home/barnecle/STM32Cube/Repository/STM32Cube_FW_L4_V1.17.1/Drivers/STM32L4xx_HAL_Driver/Src/stm32l4xx_hal_pwr_ex.c **** 
 777:/home/barnecle/STM32Cube/Repository/STM32Cube_FW_L4_V1.17.1/Drivers/STM32L4xx_HAL_Driver/Src/stm32l4xx_hal_pwr_ex.c **** #if defined(PWR_CR3_ENULP)
 778:/home/barnecle/STM32Cube/Repository/STM32Cube_FW_L4_V1.17.1/Drivers/STM32L4xx_HAL_Driver/Src/stm32l4xx_hal_pwr_ex.c **** /**
 779:/home/barnecle/STM32Cube/Repository/STM32Cube_FW_L4_V1.17.1/Drivers/STM32L4xx_HAL_Driver/Src/stm32l4xx_hal_pwr_ex.c ****   * @brief Enable Ultra Low Power BORL, BORH and PVD for STOP2 and Standby modes.
 780:/home/barnecle/STM32Cube/Repository/STM32Cube_FW_L4_V1.17.1/Drivers/STM32L4xx_HAL_Driver/Src/stm32l4xx_hal_pwr_ex.c ****   * @note  All the other modes are not affected by this bit.
 781:/home/barnecle/STM32Cube/Repository/STM32Cube_FW_L4_V1.17.1/Drivers/STM32L4xx_HAL_Driver/Src/stm32l4xx_hal_pwr_ex.c ****   * @retval None
 782:/home/barnecle/STM32Cube/Repository/STM32Cube_FW_L4_V1.17.1/Drivers/STM32L4xx_HAL_Driver/Src/stm32l4xx_hal_pwr_ex.c ****   */
 783:/home/barnecle/STM32Cube/Repository/STM32Cube_FW_L4_V1.17.1/Drivers/STM32L4xx_HAL_Driver/Src/stm32l4xx_hal_pwr_ex.c **** void HAL_PWREx_EnableBORPVD_ULP(void)
 784:/home/barnecle/STM32Cube/Repository/STM32Cube_FW_L4_V1.17.1/Drivers/STM32L4xx_HAL_Driver/Src/stm32l4xx_hal_pwr_ex.c **** {
 1071              		.loc 1 784 1 is_stmt 1 view -0
 1072              		.cfi_startproc
 1073              		@ args = 0, pretend = 0, frame = 0
 1074              		@ frame_needed = 0, uses_anonymous_args = 0
 1075              		@ link register save eliminated.
 785:/home/barnecle/STM32Cube/Repository/STM32Cube_FW_L4_V1.17.1/Drivers/STM32L4xx_HAL_Driver/Src/stm32l4xx_hal_pwr_ex.c ****   SET_BIT(PWR->CR3, PWR_CR3_ENULP);
 1076              		.loc 1 785 3 view .LVU235
ARM GAS  /tmp/ccNJjxjx.s 			page 34


 1077 0000 024A     		ldr	r2, .L95
 1078 0002 9368     		ldr	r3, [r2, #8]
 1079 0004 43F40063 		orr	r3, r3, #2048
 1080 0008 9360     		str	r3, [r2, #8]
 786:/home/barnecle/STM32Cube/Repository/STM32Cube_FW_L4_V1.17.1/Drivers/STM32L4xx_HAL_Driver/Src/stm32l4xx_hal_pwr_ex.c **** }
 1081              		.loc 1 786 1 is_stmt 0 view .LVU236
 1082 000a 7047     		bx	lr
 1083              	.L96:
 1084              		.align	2
 1085              	.L95:
 1086 000c 00700040 		.word	1073770496
 1087              		.cfi_endproc
 1088              	.LFE149:
 1090              		.section	.text.HAL_PWREx_DisableBORPVD_ULP,"ax",%progbits
 1091              		.align	1
 1092              		.global	HAL_PWREx_DisableBORPVD_ULP
 1093              		.syntax unified
 1094              		.thumb
 1095              		.thumb_func
 1097              	HAL_PWREx_DisableBORPVD_ULP:
 1098              	.LFB150:
 787:/home/barnecle/STM32Cube/Repository/STM32Cube_FW_L4_V1.17.1/Drivers/STM32L4xx_HAL_Driver/Src/stm32l4xx_hal_pwr_ex.c **** 
 788:/home/barnecle/STM32Cube/Repository/STM32Cube_FW_L4_V1.17.1/Drivers/STM32L4xx_HAL_Driver/Src/stm32l4xx_hal_pwr_ex.c **** 
 789:/home/barnecle/STM32Cube/Repository/STM32Cube_FW_L4_V1.17.1/Drivers/STM32L4xx_HAL_Driver/Src/stm32l4xx_hal_pwr_ex.c **** /**
 790:/home/barnecle/STM32Cube/Repository/STM32Cube_FW_L4_V1.17.1/Drivers/STM32L4xx_HAL_Driver/Src/stm32l4xx_hal_pwr_ex.c ****   * @brief Disable Ultra Low Power BORL, BORH and PVD for STOP2 and Standby modes.
 791:/home/barnecle/STM32Cube/Repository/STM32Cube_FW_L4_V1.17.1/Drivers/STM32L4xx_HAL_Driver/Src/stm32l4xx_hal_pwr_ex.c ****   * @note  All the other modes are not affected by this bit
 792:/home/barnecle/STM32Cube/Repository/STM32Cube_FW_L4_V1.17.1/Drivers/STM32L4xx_HAL_Driver/Src/stm32l4xx_hal_pwr_ex.c ****   * @retval None
 793:/home/barnecle/STM32Cube/Repository/STM32Cube_FW_L4_V1.17.1/Drivers/STM32L4xx_HAL_Driver/Src/stm32l4xx_hal_pwr_ex.c ****   */
 794:/home/barnecle/STM32Cube/Repository/STM32Cube_FW_L4_V1.17.1/Drivers/STM32L4xx_HAL_Driver/Src/stm32l4xx_hal_pwr_ex.c **** void HAL_PWREx_DisableBORPVD_ULP(void)
 795:/home/barnecle/STM32Cube/Repository/STM32Cube_FW_L4_V1.17.1/Drivers/STM32L4xx_HAL_Driver/Src/stm32l4xx_hal_pwr_ex.c **** {
 1099              		.loc 1 795 1 is_stmt 1 view -0
 1100              		.cfi_startproc
 1101              		@ args = 0, pretend = 0, frame = 0
 1102              		@ frame_needed = 0, uses_anonymous_args = 0
 1103              		@ link register save eliminated.
 796:/home/barnecle/STM32Cube/Repository/STM32Cube_FW_L4_V1.17.1/Drivers/STM32L4xx_HAL_Driver/Src/stm32l4xx_hal_pwr_ex.c ****   CLEAR_BIT(PWR->CR3, PWR_CR3_ENULP);
 1104              		.loc 1 796 3 view .LVU238
 1105 0000 024A     		ldr	r2, .L98
 1106 0002 9368     		ldr	r3, [r2, #8]
 1107 0004 23F40063 		bic	r3, r3, #2048
 1108 0008 9360     		str	r3, [r2, #8]
 797:/home/barnecle/STM32Cube/Repository/STM32Cube_FW_L4_V1.17.1/Drivers/STM32L4xx_HAL_Driver/Src/stm32l4xx_hal_pwr_ex.c **** }
 1109              		.loc 1 797 1 is_stmt 0 view .LVU239
 1110 000a 7047     		bx	lr
 1111              	.L99:
 1112              		.align	2
 1113              	.L98:
 1114 000c 00700040 		.word	1073770496
 1115              		.cfi_endproc
 1116              	.LFE150:
 1118              		.section	.text.HAL_PWREx_EnableExtSMPS_0V95,"ax",%progbits
 1119              		.align	1
 1120              		.global	HAL_PWREx_EnableExtSMPS_0V95
 1121              		.syntax unified
 1122              		.thumb
 1123              		.thumb_func
 1125              	HAL_PWREx_EnableExtSMPS_0V95:
ARM GAS  /tmp/ccNJjxjx.s 			page 35


 1126              	.LFB151:
 798:/home/barnecle/STM32Cube/Repository/STM32Cube_FW_L4_V1.17.1/Drivers/STM32L4xx_HAL_Driver/Src/stm32l4xx_hal_pwr_ex.c **** #endif /* PWR_CR3_ENULP */
 799:/home/barnecle/STM32Cube/Repository/STM32Cube_FW_L4_V1.17.1/Drivers/STM32L4xx_HAL_Driver/Src/stm32l4xx_hal_pwr_ex.c **** 
 800:/home/barnecle/STM32Cube/Repository/STM32Cube_FW_L4_V1.17.1/Drivers/STM32L4xx_HAL_Driver/Src/stm32l4xx_hal_pwr_ex.c **** 
 801:/home/barnecle/STM32Cube/Repository/STM32Cube_FW_L4_V1.17.1/Drivers/STM32L4xx_HAL_Driver/Src/stm32l4xx_hal_pwr_ex.c **** #if defined(PWR_CR4_EXT_SMPS_ON)
 802:/home/barnecle/STM32Cube/Repository/STM32Cube_FW_L4_V1.17.1/Drivers/STM32L4xx_HAL_Driver/Src/stm32l4xx_hal_pwr_ex.c **** /**
 803:/home/barnecle/STM32Cube/Repository/STM32Cube_FW_L4_V1.17.1/Drivers/STM32L4xx_HAL_Driver/Src/stm32l4xx_hal_pwr_ex.c ****   * @brief Enable the CFLDO working @ 0.95V.
 804:/home/barnecle/STM32Cube/Repository/STM32Cube_FW_L4_V1.17.1/Drivers/STM32L4xx_HAL_Driver/Src/stm32l4xx_hal_pwr_ex.c ****   * @note  When external SMPS is used & CFLDO operating in Range 2, the regulated voltage of the
 805:/home/barnecle/STM32Cube/Repository/STM32Cube_FW_L4_V1.17.1/Drivers/STM32L4xx_HAL_Driver/Src/stm32l4xx_hal_pwr_ex.c ****   *        internal CFLDO can be reduced to 0.95V.
 806:/home/barnecle/STM32Cube/Repository/STM32Cube_FW_L4_V1.17.1/Drivers/STM32L4xx_HAL_Driver/Src/stm32l4xx_hal_pwr_ex.c ****   * @retval None
 807:/home/barnecle/STM32Cube/Repository/STM32Cube_FW_L4_V1.17.1/Drivers/STM32L4xx_HAL_Driver/Src/stm32l4xx_hal_pwr_ex.c ****   */
 808:/home/barnecle/STM32Cube/Repository/STM32Cube_FW_L4_V1.17.1/Drivers/STM32L4xx_HAL_Driver/Src/stm32l4xx_hal_pwr_ex.c **** void HAL_PWREx_EnableExtSMPS_0V95(void)
 809:/home/barnecle/STM32Cube/Repository/STM32Cube_FW_L4_V1.17.1/Drivers/STM32L4xx_HAL_Driver/Src/stm32l4xx_hal_pwr_ex.c **** {
 1127              		.loc 1 809 1 is_stmt 1 view -0
 1128              		.cfi_startproc
 1129              		@ args = 0, pretend = 0, frame = 0
 1130              		@ frame_needed = 0, uses_anonymous_args = 0
 1131              		@ link register save eliminated.
 810:/home/barnecle/STM32Cube/Repository/STM32Cube_FW_L4_V1.17.1/Drivers/STM32L4xx_HAL_Driver/Src/stm32l4xx_hal_pwr_ex.c ****   SET_BIT(PWR->CR4, PWR_CR4_EXT_SMPS_ON);
 1132              		.loc 1 810 3 view .LVU241
 1133 0000 024A     		ldr	r2, .L101
 1134 0002 D368     		ldr	r3, [r2, #12]
 1135 0004 43F40053 		orr	r3, r3, #8192
 1136 0008 D360     		str	r3, [r2, #12]
 811:/home/barnecle/STM32Cube/Repository/STM32Cube_FW_L4_V1.17.1/Drivers/STM32L4xx_HAL_Driver/Src/stm32l4xx_hal_pwr_ex.c **** }
 1137              		.loc 1 811 1 is_stmt 0 view .LVU242
 1138 000a 7047     		bx	lr
 1139              	.L102:
 1140              		.align	2
 1141              	.L101:
 1142 000c 00700040 		.word	1073770496
 1143              		.cfi_endproc
 1144              	.LFE151:
 1146              		.section	.text.HAL_PWREx_DisableExtSMPS_0V95,"ax",%progbits
 1147              		.align	1
 1148              		.global	HAL_PWREx_DisableExtSMPS_0V95
 1149              		.syntax unified
 1150              		.thumb
 1151              		.thumb_func
 1153              	HAL_PWREx_DisableExtSMPS_0V95:
 1154              	.LFB152:
 812:/home/barnecle/STM32Cube/Repository/STM32Cube_FW_L4_V1.17.1/Drivers/STM32L4xx_HAL_Driver/Src/stm32l4xx_hal_pwr_ex.c **** 
 813:/home/barnecle/STM32Cube/Repository/STM32Cube_FW_L4_V1.17.1/Drivers/STM32L4xx_HAL_Driver/Src/stm32l4xx_hal_pwr_ex.c **** /**
 814:/home/barnecle/STM32Cube/Repository/STM32Cube_FW_L4_V1.17.1/Drivers/STM32L4xx_HAL_Driver/Src/stm32l4xx_hal_pwr_ex.c ****   * @brief Disable the CFLDO working @ 0.95V
 815:/home/barnecle/STM32Cube/Repository/STM32Cube_FW_L4_V1.17.1/Drivers/STM32L4xx_HAL_Driver/Src/stm32l4xx_hal_pwr_ex.c ****   * @note  Before SMPS is switched off, the regulated voltage of the
 816:/home/barnecle/STM32Cube/Repository/STM32Cube_FW_L4_V1.17.1/Drivers/STM32L4xx_HAL_Driver/Src/stm32l4xx_hal_pwr_ex.c ****   *        internal CFLDO shall be set to 1.00V.
 817:/home/barnecle/STM32Cube/Repository/STM32Cube_FW_L4_V1.17.1/Drivers/STM32L4xx_HAL_Driver/Src/stm32l4xx_hal_pwr_ex.c ****   *        1.00V. is also default operating Range 2 voltage.
 818:/home/barnecle/STM32Cube/Repository/STM32Cube_FW_L4_V1.17.1/Drivers/STM32L4xx_HAL_Driver/Src/stm32l4xx_hal_pwr_ex.c ****   * @retval None
 819:/home/barnecle/STM32Cube/Repository/STM32Cube_FW_L4_V1.17.1/Drivers/STM32L4xx_HAL_Driver/Src/stm32l4xx_hal_pwr_ex.c ****   */
 820:/home/barnecle/STM32Cube/Repository/STM32Cube_FW_L4_V1.17.1/Drivers/STM32L4xx_HAL_Driver/Src/stm32l4xx_hal_pwr_ex.c **** void HAL_PWREx_DisableExtSMPS_0V95(void)
 821:/home/barnecle/STM32Cube/Repository/STM32Cube_FW_L4_V1.17.1/Drivers/STM32L4xx_HAL_Driver/Src/stm32l4xx_hal_pwr_ex.c **** {
 1155              		.loc 1 821 1 is_stmt 1 view -0
 1156              		.cfi_startproc
 1157              		@ args = 0, pretend = 0, frame = 0
 1158              		@ frame_needed = 0, uses_anonymous_args = 0
 1159              		@ link register save eliminated.
 822:/home/barnecle/STM32Cube/Repository/STM32Cube_FW_L4_V1.17.1/Drivers/STM32L4xx_HAL_Driver/Src/stm32l4xx_hal_pwr_ex.c ****   CLEAR_BIT(PWR->CR4, PWR_CR4_EXT_SMPS_ON);
ARM GAS  /tmp/ccNJjxjx.s 			page 36


 1160              		.loc 1 822 3 view .LVU244
 1161 0000 024A     		ldr	r2, .L104
 1162 0002 D368     		ldr	r3, [r2, #12]
 1163 0004 23F40053 		bic	r3, r3, #8192
 1164 0008 D360     		str	r3, [r2, #12]
 823:/home/barnecle/STM32Cube/Repository/STM32Cube_FW_L4_V1.17.1/Drivers/STM32L4xx_HAL_Driver/Src/stm32l4xx_hal_pwr_ex.c **** }
 1165              		.loc 1 823 1 is_stmt 0 view .LVU245
 1166 000a 7047     		bx	lr
 1167              	.L105:
 1168              		.align	2
 1169              	.L104:
 1170 000c 00700040 		.word	1073770496
 1171              		.cfi_endproc
 1172              	.LFE152:
 1174              		.section	.text.HAL_PWREx_EnablePVM1,"ax",%progbits
 1175              		.align	1
 1176              		.global	HAL_PWREx_EnablePVM1
 1177              		.syntax unified
 1178              		.thumb
 1179              		.thumb_func
 1181              	HAL_PWREx_EnablePVM1:
 1182              	.LFB153:
 824:/home/barnecle/STM32Cube/Repository/STM32Cube_FW_L4_V1.17.1/Drivers/STM32L4xx_HAL_Driver/Src/stm32l4xx_hal_pwr_ex.c **** #endif /* PWR_CR4_EXT_SMPS_ON */
 825:/home/barnecle/STM32Cube/Repository/STM32Cube_FW_L4_V1.17.1/Drivers/STM32L4xx_HAL_Driver/Src/stm32l4xx_hal_pwr_ex.c **** 
 826:/home/barnecle/STM32Cube/Repository/STM32Cube_FW_L4_V1.17.1/Drivers/STM32L4xx_HAL_Driver/Src/stm32l4xx_hal_pwr_ex.c **** 
 827:/home/barnecle/STM32Cube/Repository/STM32Cube_FW_L4_V1.17.1/Drivers/STM32L4xx_HAL_Driver/Src/stm32l4xx_hal_pwr_ex.c **** #if defined(PWR_CR1_RRSTP)
 828:/home/barnecle/STM32Cube/Repository/STM32Cube_FW_L4_V1.17.1/Drivers/STM32L4xx_HAL_Driver/Src/stm32l4xx_hal_pwr_ex.c **** /**
 829:/home/barnecle/STM32Cube/Repository/STM32Cube_FW_L4_V1.17.1/Drivers/STM32L4xx_HAL_Driver/Src/stm32l4xx_hal_pwr_ex.c ****   * @brief Enable SRAM3 content retention in Stop 2 mode.
 830:/home/barnecle/STM32Cube/Repository/STM32Cube_FW_L4_V1.17.1/Drivers/STM32L4xx_HAL_Driver/Src/stm32l4xx_hal_pwr_ex.c ****   * @note  When RRSTP bit is set, SRAM3 is powered by the low-power regulator in
 831:/home/barnecle/STM32Cube/Repository/STM32Cube_FW_L4_V1.17.1/Drivers/STM32L4xx_HAL_Driver/Src/stm32l4xx_hal_pwr_ex.c ****   *        Stop 2 mode and its content is kept.
 832:/home/barnecle/STM32Cube/Repository/STM32Cube_FW_L4_V1.17.1/Drivers/STM32L4xx_HAL_Driver/Src/stm32l4xx_hal_pwr_ex.c ****   * @retval None
 833:/home/barnecle/STM32Cube/Repository/STM32Cube_FW_L4_V1.17.1/Drivers/STM32L4xx_HAL_Driver/Src/stm32l4xx_hal_pwr_ex.c ****   */
 834:/home/barnecle/STM32Cube/Repository/STM32Cube_FW_L4_V1.17.1/Drivers/STM32L4xx_HAL_Driver/Src/stm32l4xx_hal_pwr_ex.c **** void HAL_PWREx_EnableSRAM3ContentRetention(void)
 835:/home/barnecle/STM32Cube/Repository/STM32Cube_FW_L4_V1.17.1/Drivers/STM32L4xx_HAL_Driver/Src/stm32l4xx_hal_pwr_ex.c **** {
 836:/home/barnecle/STM32Cube/Repository/STM32Cube_FW_L4_V1.17.1/Drivers/STM32L4xx_HAL_Driver/Src/stm32l4xx_hal_pwr_ex.c ****   SET_BIT(PWR->CR1, PWR_CR1_RRSTP);
 837:/home/barnecle/STM32Cube/Repository/STM32Cube_FW_L4_V1.17.1/Drivers/STM32L4xx_HAL_Driver/Src/stm32l4xx_hal_pwr_ex.c **** }
 838:/home/barnecle/STM32Cube/Repository/STM32Cube_FW_L4_V1.17.1/Drivers/STM32L4xx_HAL_Driver/Src/stm32l4xx_hal_pwr_ex.c **** 
 839:/home/barnecle/STM32Cube/Repository/STM32Cube_FW_L4_V1.17.1/Drivers/STM32L4xx_HAL_Driver/Src/stm32l4xx_hal_pwr_ex.c **** 
 840:/home/barnecle/STM32Cube/Repository/STM32Cube_FW_L4_V1.17.1/Drivers/STM32L4xx_HAL_Driver/Src/stm32l4xx_hal_pwr_ex.c **** /**
 841:/home/barnecle/STM32Cube/Repository/STM32Cube_FW_L4_V1.17.1/Drivers/STM32L4xx_HAL_Driver/Src/stm32l4xx_hal_pwr_ex.c ****   * @brief Disable SRAM3 content retention in Stop 2 mode.
 842:/home/barnecle/STM32Cube/Repository/STM32Cube_FW_L4_V1.17.1/Drivers/STM32L4xx_HAL_Driver/Src/stm32l4xx_hal_pwr_ex.c ****   * @note  When RRSTP bit is reset, SRAM3 is powered off in Stop 2 mode
 843:/home/barnecle/STM32Cube/Repository/STM32Cube_FW_L4_V1.17.1/Drivers/STM32L4xx_HAL_Driver/Src/stm32l4xx_hal_pwr_ex.c ****   *        and its content is lost.
 844:/home/barnecle/STM32Cube/Repository/STM32Cube_FW_L4_V1.17.1/Drivers/STM32L4xx_HAL_Driver/Src/stm32l4xx_hal_pwr_ex.c ****   * @retval None
 845:/home/barnecle/STM32Cube/Repository/STM32Cube_FW_L4_V1.17.1/Drivers/STM32L4xx_HAL_Driver/Src/stm32l4xx_hal_pwr_ex.c ****   */
 846:/home/barnecle/STM32Cube/Repository/STM32Cube_FW_L4_V1.17.1/Drivers/STM32L4xx_HAL_Driver/Src/stm32l4xx_hal_pwr_ex.c **** void HAL_PWREx_DisableSRAM3ContentRetention(void)
 847:/home/barnecle/STM32Cube/Repository/STM32Cube_FW_L4_V1.17.1/Drivers/STM32L4xx_HAL_Driver/Src/stm32l4xx_hal_pwr_ex.c **** {
 848:/home/barnecle/STM32Cube/Repository/STM32Cube_FW_L4_V1.17.1/Drivers/STM32L4xx_HAL_Driver/Src/stm32l4xx_hal_pwr_ex.c ****   CLEAR_BIT(PWR->CR1, PWR_CR1_RRSTP);
 849:/home/barnecle/STM32Cube/Repository/STM32Cube_FW_L4_V1.17.1/Drivers/STM32L4xx_HAL_Driver/Src/stm32l4xx_hal_pwr_ex.c **** }
 850:/home/barnecle/STM32Cube/Repository/STM32Cube_FW_L4_V1.17.1/Drivers/STM32L4xx_HAL_Driver/Src/stm32l4xx_hal_pwr_ex.c **** #endif /* PWR_CR1_RRSTP */
 851:/home/barnecle/STM32Cube/Repository/STM32Cube_FW_L4_V1.17.1/Drivers/STM32L4xx_HAL_Driver/Src/stm32l4xx_hal_pwr_ex.c **** 
 852:/home/barnecle/STM32Cube/Repository/STM32Cube_FW_L4_V1.17.1/Drivers/STM32L4xx_HAL_Driver/Src/stm32l4xx_hal_pwr_ex.c **** #if defined(PWR_CR3_DSIPDEN)
 853:/home/barnecle/STM32Cube/Repository/STM32Cube_FW_L4_V1.17.1/Drivers/STM32L4xx_HAL_Driver/Src/stm32l4xx_hal_pwr_ex.c **** /**
 854:/home/barnecle/STM32Cube/Repository/STM32Cube_FW_L4_V1.17.1/Drivers/STM32L4xx_HAL_Driver/Src/stm32l4xx_hal_pwr_ex.c ****   * @brief Enable pull-down activation on DSI pins.
 855:/home/barnecle/STM32Cube/Repository/STM32Cube_FW_L4_V1.17.1/Drivers/STM32L4xx_HAL_Driver/Src/stm32l4xx_hal_pwr_ex.c ****   * @retval None
 856:/home/barnecle/STM32Cube/Repository/STM32Cube_FW_L4_V1.17.1/Drivers/STM32L4xx_HAL_Driver/Src/stm32l4xx_hal_pwr_ex.c ****   */
 857:/home/barnecle/STM32Cube/Repository/STM32Cube_FW_L4_V1.17.1/Drivers/STM32L4xx_HAL_Driver/Src/stm32l4xx_hal_pwr_ex.c **** void HAL_PWREx_EnableDSIPinsPDActivation(void)
 858:/home/barnecle/STM32Cube/Repository/STM32Cube_FW_L4_V1.17.1/Drivers/STM32L4xx_HAL_Driver/Src/stm32l4xx_hal_pwr_ex.c **** {
ARM GAS  /tmp/ccNJjxjx.s 			page 37


 859:/home/barnecle/STM32Cube/Repository/STM32Cube_FW_L4_V1.17.1/Drivers/STM32L4xx_HAL_Driver/Src/stm32l4xx_hal_pwr_ex.c ****   SET_BIT(PWR->CR3, PWR_CR3_DSIPDEN);
 860:/home/barnecle/STM32Cube/Repository/STM32Cube_FW_L4_V1.17.1/Drivers/STM32L4xx_HAL_Driver/Src/stm32l4xx_hal_pwr_ex.c **** }
 861:/home/barnecle/STM32Cube/Repository/STM32Cube_FW_L4_V1.17.1/Drivers/STM32L4xx_HAL_Driver/Src/stm32l4xx_hal_pwr_ex.c **** 
 862:/home/barnecle/STM32Cube/Repository/STM32Cube_FW_L4_V1.17.1/Drivers/STM32L4xx_HAL_Driver/Src/stm32l4xx_hal_pwr_ex.c **** 
 863:/home/barnecle/STM32Cube/Repository/STM32Cube_FW_L4_V1.17.1/Drivers/STM32L4xx_HAL_Driver/Src/stm32l4xx_hal_pwr_ex.c **** /**
 864:/home/barnecle/STM32Cube/Repository/STM32Cube_FW_L4_V1.17.1/Drivers/STM32L4xx_HAL_Driver/Src/stm32l4xx_hal_pwr_ex.c ****   * @brief Disable pull-down activation on DSI pins.
 865:/home/barnecle/STM32Cube/Repository/STM32Cube_FW_L4_V1.17.1/Drivers/STM32L4xx_HAL_Driver/Src/stm32l4xx_hal_pwr_ex.c ****   * @retval None
 866:/home/barnecle/STM32Cube/Repository/STM32Cube_FW_L4_V1.17.1/Drivers/STM32L4xx_HAL_Driver/Src/stm32l4xx_hal_pwr_ex.c ****   */
 867:/home/barnecle/STM32Cube/Repository/STM32Cube_FW_L4_V1.17.1/Drivers/STM32L4xx_HAL_Driver/Src/stm32l4xx_hal_pwr_ex.c **** void HAL_PWREx_DisableDSIPinsPDActivation(void)
 868:/home/barnecle/STM32Cube/Repository/STM32Cube_FW_L4_V1.17.1/Drivers/STM32L4xx_HAL_Driver/Src/stm32l4xx_hal_pwr_ex.c **** {
 869:/home/barnecle/STM32Cube/Repository/STM32Cube_FW_L4_V1.17.1/Drivers/STM32L4xx_HAL_Driver/Src/stm32l4xx_hal_pwr_ex.c ****   CLEAR_BIT(PWR->CR3, PWR_CR3_DSIPDEN);
 870:/home/barnecle/STM32Cube/Repository/STM32Cube_FW_L4_V1.17.1/Drivers/STM32L4xx_HAL_Driver/Src/stm32l4xx_hal_pwr_ex.c **** }
 871:/home/barnecle/STM32Cube/Repository/STM32Cube_FW_L4_V1.17.1/Drivers/STM32L4xx_HAL_Driver/Src/stm32l4xx_hal_pwr_ex.c **** #endif /* PWR_CR3_DSIPDEN */
 872:/home/barnecle/STM32Cube/Repository/STM32Cube_FW_L4_V1.17.1/Drivers/STM32L4xx_HAL_Driver/Src/stm32l4xx_hal_pwr_ex.c **** 
 873:/home/barnecle/STM32Cube/Repository/STM32Cube_FW_L4_V1.17.1/Drivers/STM32L4xx_HAL_Driver/Src/stm32l4xx_hal_pwr_ex.c **** #if defined(PWR_CR2_PVME1)
 874:/home/barnecle/STM32Cube/Repository/STM32Cube_FW_L4_V1.17.1/Drivers/STM32L4xx_HAL_Driver/Src/stm32l4xx_hal_pwr_ex.c **** /**
 875:/home/barnecle/STM32Cube/Repository/STM32Cube_FW_L4_V1.17.1/Drivers/STM32L4xx_HAL_Driver/Src/stm32l4xx_hal_pwr_ex.c ****   * @brief Enable the Power Voltage Monitoring 1: VDDUSB versus 1.2V.
 876:/home/barnecle/STM32Cube/Repository/STM32Cube_FW_L4_V1.17.1/Drivers/STM32L4xx_HAL_Driver/Src/stm32l4xx_hal_pwr_ex.c ****   * @retval None
 877:/home/barnecle/STM32Cube/Repository/STM32Cube_FW_L4_V1.17.1/Drivers/STM32L4xx_HAL_Driver/Src/stm32l4xx_hal_pwr_ex.c ****   */
 878:/home/barnecle/STM32Cube/Repository/STM32Cube_FW_L4_V1.17.1/Drivers/STM32L4xx_HAL_Driver/Src/stm32l4xx_hal_pwr_ex.c **** void HAL_PWREx_EnablePVM1(void)
 879:/home/barnecle/STM32Cube/Repository/STM32Cube_FW_L4_V1.17.1/Drivers/STM32L4xx_HAL_Driver/Src/stm32l4xx_hal_pwr_ex.c **** {
 1183              		.loc 1 879 1 is_stmt 1 view -0
 1184              		.cfi_startproc
 1185              		@ args = 0, pretend = 0, frame = 0
 1186              		@ frame_needed = 0, uses_anonymous_args = 0
 1187              		@ link register save eliminated.
 880:/home/barnecle/STM32Cube/Repository/STM32Cube_FW_L4_V1.17.1/Drivers/STM32L4xx_HAL_Driver/Src/stm32l4xx_hal_pwr_ex.c ****   SET_BIT(PWR->CR2, PWR_PVM_1);
 1188              		.loc 1 880 3 view .LVU247
 1189 0000 024A     		ldr	r2, .L107
 1190 0002 5368     		ldr	r3, [r2, #4]
 1191 0004 43F01003 		orr	r3, r3, #16
 1192 0008 5360     		str	r3, [r2, #4]
 881:/home/barnecle/STM32Cube/Repository/STM32Cube_FW_L4_V1.17.1/Drivers/STM32L4xx_HAL_Driver/Src/stm32l4xx_hal_pwr_ex.c **** }
 1193              		.loc 1 881 1 is_stmt 0 view .LVU248
 1194 000a 7047     		bx	lr
 1195              	.L108:
 1196              		.align	2
 1197              	.L107:
 1198 000c 00700040 		.word	1073770496
 1199              		.cfi_endproc
 1200              	.LFE153:
 1202              		.section	.text.HAL_PWREx_DisablePVM1,"ax",%progbits
 1203              		.align	1
 1204              		.global	HAL_PWREx_DisablePVM1
 1205              		.syntax unified
 1206              		.thumb
 1207              		.thumb_func
 1209              	HAL_PWREx_DisablePVM1:
 1210              	.LFB154:
 882:/home/barnecle/STM32Cube/Repository/STM32Cube_FW_L4_V1.17.1/Drivers/STM32L4xx_HAL_Driver/Src/stm32l4xx_hal_pwr_ex.c **** 
 883:/home/barnecle/STM32Cube/Repository/STM32Cube_FW_L4_V1.17.1/Drivers/STM32L4xx_HAL_Driver/Src/stm32l4xx_hal_pwr_ex.c **** /**
 884:/home/barnecle/STM32Cube/Repository/STM32Cube_FW_L4_V1.17.1/Drivers/STM32L4xx_HAL_Driver/Src/stm32l4xx_hal_pwr_ex.c ****   * @brief Disable the Power Voltage Monitoring 1: VDDUSB versus 1.2V.
 885:/home/barnecle/STM32Cube/Repository/STM32Cube_FW_L4_V1.17.1/Drivers/STM32L4xx_HAL_Driver/Src/stm32l4xx_hal_pwr_ex.c ****   * @retval None
 886:/home/barnecle/STM32Cube/Repository/STM32Cube_FW_L4_V1.17.1/Drivers/STM32L4xx_HAL_Driver/Src/stm32l4xx_hal_pwr_ex.c ****   */
 887:/home/barnecle/STM32Cube/Repository/STM32Cube_FW_L4_V1.17.1/Drivers/STM32L4xx_HAL_Driver/Src/stm32l4xx_hal_pwr_ex.c **** void HAL_PWREx_DisablePVM1(void)
 888:/home/barnecle/STM32Cube/Repository/STM32Cube_FW_L4_V1.17.1/Drivers/STM32L4xx_HAL_Driver/Src/stm32l4xx_hal_pwr_ex.c **** {
 1211              		.loc 1 888 1 is_stmt 1 view -0
ARM GAS  /tmp/ccNJjxjx.s 			page 38


 1212              		.cfi_startproc
 1213              		@ args = 0, pretend = 0, frame = 0
 1214              		@ frame_needed = 0, uses_anonymous_args = 0
 1215              		@ link register save eliminated.
 889:/home/barnecle/STM32Cube/Repository/STM32Cube_FW_L4_V1.17.1/Drivers/STM32L4xx_HAL_Driver/Src/stm32l4xx_hal_pwr_ex.c ****   CLEAR_BIT(PWR->CR2, PWR_PVM_1);
 1216              		.loc 1 889 3 view .LVU250
 1217 0000 024A     		ldr	r2, .L110
 1218 0002 5368     		ldr	r3, [r2, #4]
 1219 0004 23F01003 		bic	r3, r3, #16
 1220 0008 5360     		str	r3, [r2, #4]
 890:/home/barnecle/STM32Cube/Repository/STM32Cube_FW_L4_V1.17.1/Drivers/STM32L4xx_HAL_Driver/Src/stm32l4xx_hal_pwr_ex.c **** }
 1221              		.loc 1 890 1 is_stmt 0 view .LVU251
 1222 000a 7047     		bx	lr
 1223              	.L111:
 1224              		.align	2
 1225              	.L110:
 1226 000c 00700040 		.word	1073770496
 1227              		.cfi_endproc
 1228              	.LFE154:
 1230              		.section	.text.HAL_PWREx_EnablePVM3,"ax",%progbits
 1231              		.align	1
 1232              		.global	HAL_PWREx_EnablePVM3
 1233              		.syntax unified
 1234              		.thumb
 1235              		.thumb_func
 1237              	HAL_PWREx_EnablePVM3:
 1238              	.LFB155:
 891:/home/barnecle/STM32Cube/Repository/STM32Cube_FW_L4_V1.17.1/Drivers/STM32L4xx_HAL_Driver/Src/stm32l4xx_hal_pwr_ex.c **** #endif /* PWR_CR2_PVME1 */
 892:/home/barnecle/STM32Cube/Repository/STM32Cube_FW_L4_V1.17.1/Drivers/STM32L4xx_HAL_Driver/Src/stm32l4xx_hal_pwr_ex.c **** 
 893:/home/barnecle/STM32Cube/Repository/STM32Cube_FW_L4_V1.17.1/Drivers/STM32L4xx_HAL_Driver/Src/stm32l4xx_hal_pwr_ex.c **** 
 894:/home/barnecle/STM32Cube/Repository/STM32Cube_FW_L4_V1.17.1/Drivers/STM32L4xx_HAL_Driver/Src/stm32l4xx_hal_pwr_ex.c **** #if defined(PWR_CR2_PVME2)
 895:/home/barnecle/STM32Cube/Repository/STM32Cube_FW_L4_V1.17.1/Drivers/STM32L4xx_HAL_Driver/Src/stm32l4xx_hal_pwr_ex.c **** /**
 896:/home/barnecle/STM32Cube/Repository/STM32Cube_FW_L4_V1.17.1/Drivers/STM32L4xx_HAL_Driver/Src/stm32l4xx_hal_pwr_ex.c ****   * @brief Enable the Power Voltage Monitoring 2: VDDIO2 versus 0.9V.
 897:/home/barnecle/STM32Cube/Repository/STM32Cube_FW_L4_V1.17.1/Drivers/STM32L4xx_HAL_Driver/Src/stm32l4xx_hal_pwr_ex.c ****   * @retval None
 898:/home/barnecle/STM32Cube/Repository/STM32Cube_FW_L4_V1.17.1/Drivers/STM32L4xx_HAL_Driver/Src/stm32l4xx_hal_pwr_ex.c ****   */
 899:/home/barnecle/STM32Cube/Repository/STM32Cube_FW_L4_V1.17.1/Drivers/STM32L4xx_HAL_Driver/Src/stm32l4xx_hal_pwr_ex.c **** void HAL_PWREx_EnablePVM2(void)
 900:/home/barnecle/STM32Cube/Repository/STM32Cube_FW_L4_V1.17.1/Drivers/STM32L4xx_HAL_Driver/Src/stm32l4xx_hal_pwr_ex.c **** {
 901:/home/barnecle/STM32Cube/Repository/STM32Cube_FW_L4_V1.17.1/Drivers/STM32L4xx_HAL_Driver/Src/stm32l4xx_hal_pwr_ex.c ****   SET_BIT(PWR->CR2, PWR_PVM_2);
 902:/home/barnecle/STM32Cube/Repository/STM32Cube_FW_L4_V1.17.1/Drivers/STM32L4xx_HAL_Driver/Src/stm32l4xx_hal_pwr_ex.c **** }
 903:/home/barnecle/STM32Cube/Repository/STM32Cube_FW_L4_V1.17.1/Drivers/STM32L4xx_HAL_Driver/Src/stm32l4xx_hal_pwr_ex.c **** 
 904:/home/barnecle/STM32Cube/Repository/STM32Cube_FW_L4_V1.17.1/Drivers/STM32L4xx_HAL_Driver/Src/stm32l4xx_hal_pwr_ex.c **** /**
 905:/home/barnecle/STM32Cube/Repository/STM32Cube_FW_L4_V1.17.1/Drivers/STM32L4xx_HAL_Driver/Src/stm32l4xx_hal_pwr_ex.c ****   * @brief Disable the Power Voltage Monitoring 2: VDDIO2 versus 0.9V.
 906:/home/barnecle/STM32Cube/Repository/STM32Cube_FW_L4_V1.17.1/Drivers/STM32L4xx_HAL_Driver/Src/stm32l4xx_hal_pwr_ex.c ****   * @retval None
 907:/home/barnecle/STM32Cube/Repository/STM32Cube_FW_L4_V1.17.1/Drivers/STM32L4xx_HAL_Driver/Src/stm32l4xx_hal_pwr_ex.c ****   */
 908:/home/barnecle/STM32Cube/Repository/STM32Cube_FW_L4_V1.17.1/Drivers/STM32L4xx_HAL_Driver/Src/stm32l4xx_hal_pwr_ex.c **** void HAL_PWREx_DisablePVM2(void)
 909:/home/barnecle/STM32Cube/Repository/STM32Cube_FW_L4_V1.17.1/Drivers/STM32L4xx_HAL_Driver/Src/stm32l4xx_hal_pwr_ex.c **** {
 910:/home/barnecle/STM32Cube/Repository/STM32Cube_FW_L4_V1.17.1/Drivers/STM32L4xx_HAL_Driver/Src/stm32l4xx_hal_pwr_ex.c ****   CLEAR_BIT(PWR->CR2, PWR_PVM_2);
 911:/home/barnecle/STM32Cube/Repository/STM32Cube_FW_L4_V1.17.1/Drivers/STM32L4xx_HAL_Driver/Src/stm32l4xx_hal_pwr_ex.c **** }
 912:/home/barnecle/STM32Cube/Repository/STM32Cube_FW_L4_V1.17.1/Drivers/STM32L4xx_HAL_Driver/Src/stm32l4xx_hal_pwr_ex.c **** #endif /* PWR_CR2_PVME2 */
 913:/home/barnecle/STM32Cube/Repository/STM32Cube_FW_L4_V1.17.1/Drivers/STM32L4xx_HAL_Driver/Src/stm32l4xx_hal_pwr_ex.c **** 
 914:/home/barnecle/STM32Cube/Repository/STM32Cube_FW_L4_V1.17.1/Drivers/STM32L4xx_HAL_Driver/Src/stm32l4xx_hal_pwr_ex.c **** 
 915:/home/barnecle/STM32Cube/Repository/STM32Cube_FW_L4_V1.17.1/Drivers/STM32L4xx_HAL_Driver/Src/stm32l4xx_hal_pwr_ex.c **** /**
 916:/home/barnecle/STM32Cube/Repository/STM32Cube_FW_L4_V1.17.1/Drivers/STM32L4xx_HAL_Driver/Src/stm32l4xx_hal_pwr_ex.c ****   * @brief Enable the Power Voltage Monitoring 3: VDDA versus 1.62V.
 917:/home/barnecle/STM32Cube/Repository/STM32Cube_FW_L4_V1.17.1/Drivers/STM32L4xx_HAL_Driver/Src/stm32l4xx_hal_pwr_ex.c ****   * @retval None
 918:/home/barnecle/STM32Cube/Repository/STM32Cube_FW_L4_V1.17.1/Drivers/STM32L4xx_HAL_Driver/Src/stm32l4xx_hal_pwr_ex.c ****   */
 919:/home/barnecle/STM32Cube/Repository/STM32Cube_FW_L4_V1.17.1/Drivers/STM32L4xx_HAL_Driver/Src/stm32l4xx_hal_pwr_ex.c **** void HAL_PWREx_EnablePVM3(void)
 920:/home/barnecle/STM32Cube/Repository/STM32Cube_FW_L4_V1.17.1/Drivers/STM32L4xx_HAL_Driver/Src/stm32l4xx_hal_pwr_ex.c **** {
ARM GAS  /tmp/ccNJjxjx.s 			page 39


 1239              		.loc 1 920 1 is_stmt 1 view -0
 1240              		.cfi_startproc
 1241              		@ args = 0, pretend = 0, frame = 0
 1242              		@ frame_needed = 0, uses_anonymous_args = 0
 1243              		@ link register save eliminated.
 921:/home/barnecle/STM32Cube/Repository/STM32Cube_FW_L4_V1.17.1/Drivers/STM32L4xx_HAL_Driver/Src/stm32l4xx_hal_pwr_ex.c ****   SET_BIT(PWR->CR2, PWR_PVM_3);
 1244              		.loc 1 921 3 view .LVU253
 1245 0000 024A     		ldr	r2, .L113
 1246 0002 5368     		ldr	r3, [r2, #4]
 1247 0004 43F04003 		orr	r3, r3, #64
 1248 0008 5360     		str	r3, [r2, #4]
 922:/home/barnecle/STM32Cube/Repository/STM32Cube_FW_L4_V1.17.1/Drivers/STM32L4xx_HAL_Driver/Src/stm32l4xx_hal_pwr_ex.c **** }
 1249              		.loc 1 922 1 is_stmt 0 view .LVU254
 1250 000a 7047     		bx	lr
 1251              	.L114:
 1252              		.align	2
 1253              	.L113:
 1254 000c 00700040 		.word	1073770496
 1255              		.cfi_endproc
 1256              	.LFE155:
 1258              		.section	.text.HAL_PWREx_DisablePVM3,"ax",%progbits
 1259              		.align	1
 1260              		.global	HAL_PWREx_DisablePVM3
 1261              		.syntax unified
 1262              		.thumb
 1263              		.thumb_func
 1265              	HAL_PWREx_DisablePVM3:
 1266              	.LFB156:
 923:/home/barnecle/STM32Cube/Repository/STM32Cube_FW_L4_V1.17.1/Drivers/STM32L4xx_HAL_Driver/Src/stm32l4xx_hal_pwr_ex.c **** 
 924:/home/barnecle/STM32Cube/Repository/STM32Cube_FW_L4_V1.17.1/Drivers/STM32L4xx_HAL_Driver/Src/stm32l4xx_hal_pwr_ex.c **** /**
 925:/home/barnecle/STM32Cube/Repository/STM32Cube_FW_L4_V1.17.1/Drivers/STM32L4xx_HAL_Driver/Src/stm32l4xx_hal_pwr_ex.c ****   * @brief Disable the Power Voltage Monitoring 3: VDDA versus 1.62V.
 926:/home/barnecle/STM32Cube/Repository/STM32Cube_FW_L4_V1.17.1/Drivers/STM32L4xx_HAL_Driver/Src/stm32l4xx_hal_pwr_ex.c ****   * @retval None
 927:/home/barnecle/STM32Cube/Repository/STM32Cube_FW_L4_V1.17.1/Drivers/STM32L4xx_HAL_Driver/Src/stm32l4xx_hal_pwr_ex.c ****   */
 928:/home/barnecle/STM32Cube/Repository/STM32Cube_FW_L4_V1.17.1/Drivers/STM32L4xx_HAL_Driver/Src/stm32l4xx_hal_pwr_ex.c **** void HAL_PWREx_DisablePVM3(void)
 929:/home/barnecle/STM32Cube/Repository/STM32Cube_FW_L4_V1.17.1/Drivers/STM32L4xx_HAL_Driver/Src/stm32l4xx_hal_pwr_ex.c **** {
 1267              		.loc 1 929 1 is_stmt 1 view -0
 1268              		.cfi_startproc
 1269              		@ args = 0, pretend = 0, frame = 0
 1270              		@ frame_needed = 0, uses_anonymous_args = 0
 1271              		@ link register save eliminated.
 930:/home/barnecle/STM32Cube/Repository/STM32Cube_FW_L4_V1.17.1/Drivers/STM32L4xx_HAL_Driver/Src/stm32l4xx_hal_pwr_ex.c ****   CLEAR_BIT(PWR->CR2, PWR_PVM_3);
 1272              		.loc 1 930 3 view .LVU256
 1273 0000 024A     		ldr	r2, .L116
 1274 0002 5368     		ldr	r3, [r2, #4]
 1275 0004 23F04003 		bic	r3, r3, #64
 1276 0008 5360     		str	r3, [r2, #4]
 931:/home/barnecle/STM32Cube/Repository/STM32Cube_FW_L4_V1.17.1/Drivers/STM32L4xx_HAL_Driver/Src/stm32l4xx_hal_pwr_ex.c **** }
 1277              		.loc 1 931 1 is_stmt 0 view .LVU257
 1278 000a 7047     		bx	lr
 1279              	.L117:
 1280              		.align	2
 1281              	.L116:
 1282 000c 00700040 		.word	1073770496
 1283              		.cfi_endproc
 1284              	.LFE156:
 1286              		.section	.text.HAL_PWREx_EnablePVM4,"ax",%progbits
 1287              		.align	1
ARM GAS  /tmp/ccNJjxjx.s 			page 40


 1288              		.global	HAL_PWREx_EnablePVM4
 1289              		.syntax unified
 1290              		.thumb
 1291              		.thumb_func
 1293              	HAL_PWREx_EnablePVM4:
 1294              	.LFB157:
 932:/home/barnecle/STM32Cube/Repository/STM32Cube_FW_L4_V1.17.1/Drivers/STM32L4xx_HAL_Driver/Src/stm32l4xx_hal_pwr_ex.c **** 
 933:/home/barnecle/STM32Cube/Repository/STM32Cube_FW_L4_V1.17.1/Drivers/STM32L4xx_HAL_Driver/Src/stm32l4xx_hal_pwr_ex.c **** 
 934:/home/barnecle/STM32Cube/Repository/STM32Cube_FW_L4_V1.17.1/Drivers/STM32L4xx_HAL_Driver/Src/stm32l4xx_hal_pwr_ex.c **** /**
 935:/home/barnecle/STM32Cube/Repository/STM32Cube_FW_L4_V1.17.1/Drivers/STM32L4xx_HAL_Driver/Src/stm32l4xx_hal_pwr_ex.c ****   * @brief Enable the Power Voltage Monitoring 4:  VDDA versus 2.2V.
 936:/home/barnecle/STM32Cube/Repository/STM32Cube_FW_L4_V1.17.1/Drivers/STM32L4xx_HAL_Driver/Src/stm32l4xx_hal_pwr_ex.c ****   * @retval None
 937:/home/barnecle/STM32Cube/Repository/STM32Cube_FW_L4_V1.17.1/Drivers/STM32L4xx_HAL_Driver/Src/stm32l4xx_hal_pwr_ex.c ****   */
 938:/home/barnecle/STM32Cube/Repository/STM32Cube_FW_L4_V1.17.1/Drivers/STM32L4xx_HAL_Driver/Src/stm32l4xx_hal_pwr_ex.c **** void HAL_PWREx_EnablePVM4(void)
 939:/home/barnecle/STM32Cube/Repository/STM32Cube_FW_L4_V1.17.1/Drivers/STM32L4xx_HAL_Driver/Src/stm32l4xx_hal_pwr_ex.c **** {
 1295              		.loc 1 939 1 is_stmt 1 view -0
 1296              		.cfi_startproc
 1297              		@ args = 0, pretend = 0, frame = 0
 1298              		@ frame_needed = 0, uses_anonymous_args = 0
 1299              		@ link register save eliminated.
 940:/home/barnecle/STM32Cube/Repository/STM32Cube_FW_L4_V1.17.1/Drivers/STM32L4xx_HAL_Driver/Src/stm32l4xx_hal_pwr_ex.c ****   SET_BIT(PWR->CR2, PWR_PVM_4);
 1300              		.loc 1 940 3 view .LVU259
 1301 0000 024A     		ldr	r2, .L119
 1302 0002 5368     		ldr	r3, [r2, #4]
 1303 0004 43F08003 		orr	r3, r3, #128
 1304 0008 5360     		str	r3, [r2, #4]
 941:/home/barnecle/STM32Cube/Repository/STM32Cube_FW_L4_V1.17.1/Drivers/STM32L4xx_HAL_Driver/Src/stm32l4xx_hal_pwr_ex.c **** }
 1305              		.loc 1 941 1 is_stmt 0 view .LVU260
 1306 000a 7047     		bx	lr
 1307              	.L120:
 1308              		.align	2
 1309              	.L119:
 1310 000c 00700040 		.word	1073770496
 1311              		.cfi_endproc
 1312              	.LFE157:
 1314              		.section	.text.HAL_PWREx_DisablePVM4,"ax",%progbits
 1315              		.align	1
 1316              		.global	HAL_PWREx_DisablePVM4
 1317              		.syntax unified
 1318              		.thumb
 1319              		.thumb_func
 1321              	HAL_PWREx_DisablePVM4:
 1322              	.LFB158:
 942:/home/barnecle/STM32Cube/Repository/STM32Cube_FW_L4_V1.17.1/Drivers/STM32L4xx_HAL_Driver/Src/stm32l4xx_hal_pwr_ex.c **** 
 943:/home/barnecle/STM32Cube/Repository/STM32Cube_FW_L4_V1.17.1/Drivers/STM32L4xx_HAL_Driver/Src/stm32l4xx_hal_pwr_ex.c **** /**
 944:/home/barnecle/STM32Cube/Repository/STM32Cube_FW_L4_V1.17.1/Drivers/STM32L4xx_HAL_Driver/Src/stm32l4xx_hal_pwr_ex.c ****   * @brief Disable the Power Voltage Monitoring 4:  VDDA versus 2.2V.
 945:/home/barnecle/STM32Cube/Repository/STM32Cube_FW_L4_V1.17.1/Drivers/STM32L4xx_HAL_Driver/Src/stm32l4xx_hal_pwr_ex.c ****   * @retval None
 946:/home/barnecle/STM32Cube/Repository/STM32Cube_FW_L4_V1.17.1/Drivers/STM32L4xx_HAL_Driver/Src/stm32l4xx_hal_pwr_ex.c ****   */
 947:/home/barnecle/STM32Cube/Repository/STM32Cube_FW_L4_V1.17.1/Drivers/STM32L4xx_HAL_Driver/Src/stm32l4xx_hal_pwr_ex.c **** void HAL_PWREx_DisablePVM4(void)
 948:/home/barnecle/STM32Cube/Repository/STM32Cube_FW_L4_V1.17.1/Drivers/STM32L4xx_HAL_Driver/Src/stm32l4xx_hal_pwr_ex.c **** {
 1323              		.loc 1 948 1 is_stmt 1 view -0
 1324              		.cfi_startproc
 1325              		@ args = 0, pretend = 0, frame = 0
 1326              		@ frame_needed = 0, uses_anonymous_args = 0
 1327              		@ link register save eliminated.
 949:/home/barnecle/STM32Cube/Repository/STM32Cube_FW_L4_V1.17.1/Drivers/STM32L4xx_HAL_Driver/Src/stm32l4xx_hal_pwr_ex.c ****   CLEAR_BIT(PWR->CR2, PWR_PVM_4);
 1328              		.loc 1 949 3 view .LVU262
 1329 0000 024A     		ldr	r2, .L122
ARM GAS  /tmp/ccNJjxjx.s 			page 41


 1330 0002 5368     		ldr	r3, [r2, #4]
 1331 0004 23F08003 		bic	r3, r3, #128
 1332 0008 5360     		str	r3, [r2, #4]
 950:/home/barnecle/STM32Cube/Repository/STM32Cube_FW_L4_V1.17.1/Drivers/STM32L4xx_HAL_Driver/Src/stm32l4xx_hal_pwr_ex.c **** }
 1333              		.loc 1 950 1 is_stmt 0 view .LVU263
 1334 000a 7047     		bx	lr
 1335              	.L123:
 1336              		.align	2
 1337              	.L122:
 1338 000c 00700040 		.word	1073770496
 1339              		.cfi_endproc
 1340              	.LFE158:
 1342              		.section	.text.HAL_PWREx_ConfigPVM,"ax",%progbits
 1343              		.align	1
 1344              		.global	HAL_PWREx_ConfigPVM
 1345              		.syntax unified
 1346              		.thumb
 1347              		.thumb_func
 1349              	HAL_PWREx_ConfigPVM:
 1350              	.LVL88:
 1351              	.LFB159:
 951:/home/barnecle/STM32Cube/Repository/STM32Cube_FW_L4_V1.17.1/Drivers/STM32L4xx_HAL_Driver/Src/stm32l4xx_hal_pwr_ex.c **** 
 952:/home/barnecle/STM32Cube/Repository/STM32Cube_FW_L4_V1.17.1/Drivers/STM32L4xx_HAL_Driver/Src/stm32l4xx_hal_pwr_ex.c **** 
 953:/home/barnecle/STM32Cube/Repository/STM32Cube_FW_L4_V1.17.1/Drivers/STM32L4xx_HAL_Driver/Src/stm32l4xx_hal_pwr_ex.c **** 
 954:/home/barnecle/STM32Cube/Repository/STM32Cube_FW_L4_V1.17.1/Drivers/STM32L4xx_HAL_Driver/Src/stm32l4xx_hal_pwr_ex.c **** 
 955:/home/barnecle/STM32Cube/Repository/STM32Cube_FW_L4_V1.17.1/Drivers/STM32L4xx_HAL_Driver/Src/stm32l4xx_hal_pwr_ex.c **** /**
 956:/home/barnecle/STM32Cube/Repository/STM32Cube_FW_L4_V1.17.1/Drivers/STM32L4xx_HAL_Driver/Src/stm32l4xx_hal_pwr_ex.c ****   * @brief Configure the Peripheral Voltage Monitoring (PVM).
 957:/home/barnecle/STM32Cube/Repository/STM32Cube_FW_L4_V1.17.1/Drivers/STM32L4xx_HAL_Driver/Src/stm32l4xx_hal_pwr_ex.c ****   * @param sConfigPVM: pointer to a PWR_PVMTypeDef structure that contains the
 958:/home/barnecle/STM32Cube/Repository/STM32Cube_FW_L4_V1.17.1/Drivers/STM32L4xx_HAL_Driver/Src/stm32l4xx_hal_pwr_ex.c ****   *        PVM configuration information.
 959:/home/barnecle/STM32Cube/Repository/STM32Cube_FW_L4_V1.17.1/Drivers/STM32L4xx_HAL_Driver/Src/stm32l4xx_hal_pwr_ex.c ****   * @note The API configures a single PVM according to the information contained
 960:/home/barnecle/STM32Cube/Repository/STM32Cube_FW_L4_V1.17.1/Drivers/STM32L4xx_HAL_Driver/Src/stm32l4xx_hal_pwr_ex.c ****   *       in the input structure. To configure several PVMs, the API must be singly
 961:/home/barnecle/STM32Cube/Repository/STM32Cube_FW_L4_V1.17.1/Drivers/STM32L4xx_HAL_Driver/Src/stm32l4xx_hal_pwr_ex.c ****   *       called for each PVM used.
 962:/home/barnecle/STM32Cube/Repository/STM32Cube_FW_L4_V1.17.1/Drivers/STM32L4xx_HAL_Driver/Src/stm32l4xx_hal_pwr_ex.c ****   * @note Refer to the electrical characteristics of your device datasheet for
 963:/home/barnecle/STM32Cube/Repository/STM32Cube_FW_L4_V1.17.1/Drivers/STM32L4xx_HAL_Driver/Src/stm32l4xx_hal_pwr_ex.c ****   *         more details about the voltage thresholds corresponding to each
 964:/home/barnecle/STM32Cube/Repository/STM32Cube_FW_L4_V1.17.1/Drivers/STM32L4xx_HAL_Driver/Src/stm32l4xx_hal_pwr_ex.c ****   *         detection level and to each monitored supply.
 965:/home/barnecle/STM32Cube/Repository/STM32Cube_FW_L4_V1.17.1/Drivers/STM32L4xx_HAL_Driver/Src/stm32l4xx_hal_pwr_ex.c ****   * @retval HAL status
 966:/home/barnecle/STM32Cube/Repository/STM32Cube_FW_L4_V1.17.1/Drivers/STM32L4xx_HAL_Driver/Src/stm32l4xx_hal_pwr_ex.c ****   */
 967:/home/barnecle/STM32Cube/Repository/STM32Cube_FW_L4_V1.17.1/Drivers/STM32L4xx_HAL_Driver/Src/stm32l4xx_hal_pwr_ex.c **** HAL_StatusTypeDef HAL_PWREx_ConfigPVM(PWR_PVMTypeDef *sConfigPVM)
 968:/home/barnecle/STM32Cube/Repository/STM32Cube_FW_L4_V1.17.1/Drivers/STM32L4xx_HAL_Driver/Src/stm32l4xx_hal_pwr_ex.c **** {
 1352              		.loc 1 968 1 is_stmt 1 view -0
 1353              		.cfi_startproc
 1354              		@ args = 0, pretend = 0, frame = 0
 1355              		@ frame_needed = 0, uses_anonymous_args = 0
 1356              		@ link register save eliminated.
 969:/home/barnecle/STM32Cube/Repository/STM32Cube_FW_L4_V1.17.1/Drivers/STM32L4xx_HAL_Driver/Src/stm32l4xx_hal_pwr_ex.c ****   HAL_StatusTypeDef status = HAL_OK;
 1357              		.loc 1 969 3 view .LVU265
 970:/home/barnecle/STM32Cube/Repository/STM32Cube_FW_L4_V1.17.1/Drivers/STM32L4xx_HAL_Driver/Src/stm32l4xx_hal_pwr_ex.c **** 
 971:/home/barnecle/STM32Cube/Repository/STM32Cube_FW_L4_V1.17.1/Drivers/STM32L4xx_HAL_Driver/Src/stm32l4xx_hal_pwr_ex.c ****   /* Check the parameters */
 972:/home/barnecle/STM32Cube/Repository/STM32Cube_FW_L4_V1.17.1/Drivers/STM32L4xx_HAL_Driver/Src/stm32l4xx_hal_pwr_ex.c ****   assert_param(IS_PWR_PVM_TYPE(sConfigPVM->PVMType));
 1358              		.loc 1 972 3 view .LVU266
 973:/home/barnecle/STM32Cube/Repository/STM32Cube_FW_L4_V1.17.1/Drivers/STM32L4xx_HAL_Driver/Src/stm32l4xx_hal_pwr_ex.c ****   assert_param(IS_PWR_PVM_MODE(sConfigPVM->Mode));
 1359              		.loc 1 973 3 view .LVU267
 974:/home/barnecle/STM32Cube/Repository/STM32Cube_FW_L4_V1.17.1/Drivers/STM32L4xx_HAL_Driver/Src/stm32l4xx_hal_pwr_ex.c **** 
 975:/home/barnecle/STM32Cube/Repository/STM32Cube_FW_L4_V1.17.1/Drivers/STM32L4xx_HAL_Driver/Src/stm32l4xx_hal_pwr_ex.c **** 
 976:/home/barnecle/STM32Cube/Repository/STM32Cube_FW_L4_V1.17.1/Drivers/STM32L4xx_HAL_Driver/Src/stm32l4xx_hal_pwr_ex.c ****   /* Configure EXTI 35 to 38 interrupts if so required:
 977:/home/barnecle/STM32Cube/Repository/STM32Cube_FW_L4_V1.17.1/Drivers/STM32L4xx_HAL_Driver/Src/stm32l4xx_hal_pwr_ex.c ****      scan through PVMType to detect which PVMx is set and
 978:/home/barnecle/STM32Cube/Repository/STM32Cube_FW_L4_V1.17.1/Drivers/STM32L4xx_HAL_Driver/Src/stm32l4xx_hal_pwr_ex.c ****      configure the corresponding EXTI line accordingly. */
ARM GAS  /tmp/ccNJjxjx.s 			page 42


 979:/home/barnecle/STM32Cube/Repository/STM32Cube_FW_L4_V1.17.1/Drivers/STM32L4xx_HAL_Driver/Src/stm32l4xx_hal_pwr_ex.c ****   switch (sConfigPVM->PVMType)
 1360              		.loc 1 979 3 view .LVU268
 1361              		.loc 1 979 21 is_stmt 0 view .LVU269
 1362 0000 0368     		ldr	r3, [r0]
 1363              		.loc 1 979 3 view .LVU270
 1364 0002 402B     		cmp	r3, #64
 1365 0004 3CD0     		beq	.L125
 1366 0006 802B     		cmp	r3, #128
 1367 0008 71D0     		beq	.L126
 1368 000a 102B     		cmp	r3, #16
 1369 000c 01D0     		beq	.L141
 1370 000e 0120     		movs	r0, #1
 1371              	.LVL89:
 1372              		.loc 1 979 3 view .LVU271
 1373 0010 7047     		bx	lr
 1374              	.LVL90:
 1375              	.L141:
 980:/home/barnecle/STM32Cube/Repository/STM32Cube_FW_L4_V1.17.1/Drivers/STM32L4xx_HAL_Driver/Src/stm32l4xx_hal_pwr_ex.c ****   {
 981:/home/barnecle/STM32Cube/Repository/STM32Cube_FW_L4_V1.17.1/Drivers/STM32L4xx_HAL_Driver/Src/stm32l4xx_hal_pwr_ex.c **** #if defined(PWR_CR2_PVME1)
 982:/home/barnecle/STM32Cube/Repository/STM32Cube_FW_L4_V1.17.1/Drivers/STM32L4xx_HAL_Driver/Src/stm32l4xx_hal_pwr_ex.c ****     case PWR_PVM_1:
 983:/home/barnecle/STM32Cube/Repository/STM32Cube_FW_L4_V1.17.1/Drivers/STM32L4xx_HAL_Driver/Src/stm32l4xx_hal_pwr_ex.c ****       /* Clear any previous config. Keep it clear if no event or IT mode is selected */
 984:/home/barnecle/STM32Cube/Repository/STM32Cube_FW_L4_V1.17.1/Drivers/STM32L4xx_HAL_Driver/Src/stm32l4xx_hal_pwr_ex.c ****       __HAL_PWR_PVM1_EXTI_DISABLE_EVENT();
 1376              		.loc 1 984 7 is_stmt 1 view .LVU272
 1377 0012 554B     		ldr	r3, .L142
 1378 0014 5A6A     		ldr	r2, [r3, #36]
 1379 0016 22F00802 		bic	r2, r2, #8
 1380 001a 5A62     		str	r2, [r3, #36]
 985:/home/barnecle/STM32Cube/Repository/STM32Cube_FW_L4_V1.17.1/Drivers/STM32L4xx_HAL_Driver/Src/stm32l4xx_hal_pwr_ex.c ****       __HAL_PWR_PVM1_EXTI_DISABLE_IT();
 1381              		.loc 1 985 7 view .LVU273
 1382 001c 1A6A     		ldr	r2, [r3, #32]
 1383 001e 22F00802 		bic	r2, r2, #8
 1384 0022 1A62     		str	r2, [r3, #32]
 986:/home/barnecle/STM32Cube/Repository/STM32Cube_FW_L4_V1.17.1/Drivers/STM32L4xx_HAL_Driver/Src/stm32l4xx_hal_pwr_ex.c ****       __HAL_PWR_PVM1_EXTI_DISABLE_FALLING_EDGE();
 1385              		.loc 1 986 7 view .LVU274
 1386 0024 DA6A     		ldr	r2, [r3, #44]
 1387 0026 22F00802 		bic	r2, r2, #8
 1388 002a DA62     		str	r2, [r3, #44]
 987:/home/barnecle/STM32Cube/Repository/STM32Cube_FW_L4_V1.17.1/Drivers/STM32L4xx_HAL_Driver/Src/stm32l4xx_hal_pwr_ex.c ****       __HAL_PWR_PVM1_EXTI_DISABLE_RISING_EDGE();
 1389              		.loc 1 987 7 view .LVU275
 1390 002c 9A6A     		ldr	r2, [r3, #40]
 1391 002e 22F00802 		bic	r2, r2, #8
 1392 0032 9A62     		str	r2, [r3, #40]
 988:/home/barnecle/STM32Cube/Repository/STM32Cube_FW_L4_V1.17.1/Drivers/STM32L4xx_HAL_Driver/Src/stm32l4xx_hal_pwr_ex.c **** 
 989:/home/barnecle/STM32Cube/Repository/STM32Cube_FW_L4_V1.17.1/Drivers/STM32L4xx_HAL_Driver/Src/stm32l4xx_hal_pwr_ex.c ****       /* Configure interrupt mode */
 990:/home/barnecle/STM32Cube/Repository/STM32Cube_FW_L4_V1.17.1/Drivers/STM32L4xx_HAL_Driver/Src/stm32l4xx_hal_pwr_ex.c ****       if((sConfigPVM->Mode & PVM_MODE_IT) == PVM_MODE_IT)
 1393              		.loc 1 990 7 view .LVU276
 1394              		.loc 1 990 21 is_stmt 0 view .LVU277
 1395 0034 4368     		ldr	r3, [r0, #4]
 1396              		.loc 1 990 9 view .LVU278
 1397 0036 13F4803F 		tst	r3, #65536
 1398 003a 04D0     		beq	.L128
 991:/home/barnecle/STM32Cube/Repository/STM32Cube_FW_L4_V1.17.1/Drivers/STM32L4xx_HAL_Driver/Src/stm32l4xx_hal_pwr_ex.c ****       {
 992:/home/barnecle/STM32Cube/Repository/STM32Cube_FW_L4_V1.17.1/Drivers/STM32L4xx_HAL_Driver/Src/stm32l4xx_hal_pwr_ex.c ****         __HAL_PWR_PVM1_EXTI_ENABLE_IT();
 1399              		.loc 1 992 9 is_stmt 1 view .LVU279
 1400 003c 4A4A     		ldr	r2, .L142
 1401 003e 136A     		ldr	r3, [r2, #32]
 1402 0040 43F00803 		orr	r3, r3, #8
ARM GAS  /tmp/ccNJjxjx.s 			page 43


 1403 0044 1362     		str	r3, [r2, #32]
 1404              	.L128:
 993:/home/barnecle/STM32Cube/Repository/STM32Cube_FW_L4_V1.17.1/Drivers/STM32L4xx_HAL_Driver/Src/stm32l4xx_hal_pwr_ex.c ****       }
 994:/home/barnecle/STM32Cube/Repository/STM32Cube_FW_L4_V1.17.1/Drivers/STM32L4xx_HAL_Driver/Src/stm32l4xx_hal_pwr_ex.c **** 
 995:/home/barnecle/STM32Cube/Repository/STM32Cube_FW_L4_V1.17.1/Drivers/STM32L4xx_HAL_Driver/Src/stm32l4xx_hal_pwr_ex.c ****       /* Configure event mode */
 996:/home/barnecle/STM32Cube/Repository/STM32Cube_FW_L4_V1.17.1/Drivers/STM32L4xx_HAL_Driver/Src/stm32l4xx_hal_pwr_ex.c ****       if((sConfigPVM->Mode & PVM_MODE_EVT) == PVM_MODE_EVT)
 1405              		.loc 1 996 7 view .LVU280
 1406              		.loc 1 996 21 is_stmt 0 view .LVU281
 1407 0046 4368     		ldr	r3, [r0, #4]
 1408              		.loc 1 996 9 view .LVU282
 1409 0048 13F4003F 		tst	r3, #131072
 1410 004c 04D0     		beq	.L129
 997:/home/barnecle/STM32Cube/Repository/STM32Cube_FW_L4_V1.17.1/Drivers/STM32L4xx_HAL_Driver/Src/stm32l4xx_hal_pwr_ex.c ****       {
 998:/home/barnecle/STM32Cube/Repository/STM32Cube_FW_L4_V1.17.1/Drivers/STM32L4xx_HAL_Driver/Src/stm32l4xx_hal_pwr_ex.c ****         __HAL_PWR_PVM1_EXTI_ENABLE_EVENT();
 1411              		.loc 1 998 9 is_stmt 1 view .LVU283
 1412 004e 464A     		ldr	r2, .L142
 1413 0050 536A     		ldr	r3, [r2, #36]
 1414 0052 43F00803 		orr	r3, r3, #8
 1415 0056 5362     		str	r3, [r2, #36]
 1416              	.L129:
 999:/home/barnecle/STM32Cube/Repository/STM32Cube_FW_L4_V1.17.1/Drivers/STM32L4xx_HAL_Driver/Src/stm32l4xx_hal_pwr_ex.c ****       }
1000:/home/barnecle/STM32Cube/Repository/STM32Cube_FW_L4_V1.17.1/Drivers/STM32L4xx_HAL_Driver/Src/stm32l4xx_hal_pwr_ex.c **** 
1001:/home/barnecle/STM32Cube/Repository/STM32Cube_FW_L4_V1.17.1/Drivers/STM32L4xx_HAL_Driver/Src/stm32l4xx_hal_pwr_ex.c ****       /* Configure the edge */
1002:/home/barnecle/STM32Cube/Repository/STM32Cube_FW_L4_V1.17.1/Drivers/STM32L4xx_HAL_Driver/Src/stm32l4xx_hal_pwr_ex.c ****       if((sConfigPVM->Mode & PVM_RISING_EDGE) == PVM_RISING_EDGE)
 1417              		.loc 1 1002 7 view .LVU284
 1418              		.loc 1 1002 21 is_stmt 0 view .LVU285
 1419 0058 4368     		ldr	r3, [r0, #4]
 1420              		.loc 1 1002 9 view .LVU286
 1421 005a 13F0010F 		tst	r3, #1
 1422 005e 04D0     		beq	.L130
1003:/home/barnecle/STM32Cube/Repository/STM32Cube_FW_L4_V1.17.1/Drivers/STM32L4xx_HAL_Driver/Src/stm32l4xx_hal_pwr_ex.c ****       {
1004:/home/barnecle/STM32Cube/Repository/STM32Cube_FW_L4_V1.17.1/Drivers/STM32L4xx_HAL_Driver/Src/stm32l4xx_hal_pwr_ex.c ****         __HAL_PWR_PVM1_EXTI_ENABLE_RISING_EDGE();
 1423              		.loc 1 1004 9 is_stmt 1 view .LVU287
 1424 0060 414A     		ldr	r2, .L142
 1425 0062 936A     		ldr	r3, [r2, #40]
 1426 0064 43F00803 		orr	r3, r3, #8
 1427 0068 9362     		str	r3, [r2, #40]
 1428              	.L130:
1005:/home/barnecle/STM32Cube/Repository/STM32Cube_FW_L4_V1.17.1/Drivers/STM32L4xx_HAL_Driver/Src/stm32l4xx_hal_pwr_ex.c ****       }
1006:/home/barnecle/STM32Cube/Repository/STM32Cube_FW_L4_V1.17.1/Drivers/STM32L4xx_HAL_Driver/Src/stm32l4xx_hal_pwr_ex.c **** 
1007:/home/barnecle/STM32Cube/Repository/STM32Cube_FW_L4_V1.17.1/Drivers/STM32L4xx_HAL_Driver/Src/stm32l4xx_hal_pwr_ex.c ****       if((sConfigPVM->Mode & PVM_FALLING_EDGE) == PVM_FALLING_EDGE)
 1429              		.loc 1 1007 7 view .LVU288
 1430              		.loc 1 1007 21 is_stmt 0 view .LVU289
 1431 006a 4368     		ldr	r3, [r0, #4]
 1432              		.loc 1 1007 9 view .LVU290
 1433 006c 13F0020F 		tst	r3, #2
 1434 0070 74D0     		beq	.L138
1008:/home/barnecle/STM32Cube/Repository/STM32Cube_FW_L4_V1.17.1/Drivers/STM32L4xx_HAL_Driver/Src/stm32l4xx_hal_pwr_ex.c ****       {
1009:/home/barnecle/STM32Cube/Repository/STM32Cube_FW_L4_V1.17.1/Drivers/STM32L4xx_HAL_Driver/Src/stm32l4xx_hal_pwr_ex.c ****         __HAL_PWR_PVM1_EXTI_ENABLE_FALLING_EDGE();
 1435              		.loc 1 1009 9 is_stmt 1 view .LVU291
 1436 0072 3D4A     		ldr	r2, .L142
 1437 0074 D36A     		ldr	r3, [r2, #44]
 1438 0076 43F00803 		orr	r3, r3, #8
 1439 007a D362     		str	r3, [r2, #44]
 969:/home/barnecle/STM32Cube/Repository/STM32Cube_FW_L4_V1.17.1/Drivers/STM32L4xx_HAL_Driver/Src/stm32l4xx_hal_pwr_ex.c **** 
 1440              		.loc 1 969 21 is_stmt 0 view .LVU292
 1441 007c 0020     		movs	r0, #0
ARM GAS  /tmp/ccNJjxjx.s 			page 44


 1442              	.LVL91:
 969:/home/barnecle/STM32Cube/Repository/STM32Cube_FW_L4_V1.17.1/Drivers/STM32L4xx_HAL_Driver/Src/stm32l4xx_hal_pwr_ex.c **** 
 1443              		.loc 1 969 21 view .LVU293
 1444 007e 7047     		bx	lr
 1445              	.LVL92:
 1446              	.L125:
1010:/home/barnecle/STM32Cube/Repository/STM32Cube_FW_L4_V1.17.1/Drivers/STM32L4xx_HAL_Driver/Src/stm32l4xx_hal_pwr_ex.c ****       }
1011:/home/barnecle/STM32Cube/Repository/STM32Cube_FW_L4_V1.17.1/Drivers/STM32L4xx_HAL_Driver/Src/stm32l4xx_hal_pwr_ex.c ****       break;
1012:/home/barnecle/STM32Cube/Repository/STM32Cube_FW_L4_V1.17.1/Drivers/STM32L4xx_HAL_Driver/Src/stm32l4xx_hal_pwr_ex.c **** #endif /* PWR_CR2_PVME1 */
1013:/home/barnecle/STM32Cube/Repository/STM32Cube_FW_L4_V1.17.1/Drivers/STM32L4xx_HAL_Driver/Src/stm32l4xx_hal_pwr_ex.c **** 
1014:/home/barnecle/STM32Cube/Repository/STM32Cube_FW_L4_V1.17.1/Drivers/STM32L4xx_HAL_Driver/Src/stm32l4xx_hal_pwr_ex.c **** #if defined(PWR_CR2_PVME2)
1015:/home/barnecle/STM32Cube/Repository/STM32Cube_FW_L4_V1.17.1/Drivers/STM32L4xx_HAL_Driver/Src/stm32l4xx_hal_pwr_ex.c ****     case PWR_PVM_2:
1016:/home/barnecle/STM32Cube/Repository/STM32Cube_FW_L4_V1.17.1/Drivers/STM32L4xx_HAL_Driver/Src/stm32l4xx_hal_pwr_ex.c ****       /* Clear any previous config. Keep it clear if no event or IT mode is selected */
1017:/home/barnecle/STM32Cube/Repository/STM32Cube_FW_L4_V1.17.1/Drivers/STM32L4xx_HAL_Driver/Src/stm32l4xx_hal_pwr_ex.c ****       __HAL_PWR_PVM2_EXTI_DISABLE_EVENT();
1018:/home/barnecle/STM32Cube/Repository/STM32Cube_FW_L4_V1.17.1/Drivers/STM32L4xx_HAL_Driver/Src/stm32l4xx_hal_pwr_ex.c ****       __HAL_PWR_PVM2_EXTI_DISABLE_IT();
1019:/home/barnecle/STM32Cube/Repository/STM32Cube_FW_L4_V1.17.1/Drivers/STM32L4xx_HAL_Driver/Src/stm32l4xx_hal_pwr_ex.c ****       __HAL_PWR_PVM2_EXTI_DISABLE_FALLING_EDGE();
1020:/home/barnecle/STM32Cube/Repository/STM32Cube_FW_L4_V1.17.1/Drivers/STM32L4xx_HAL_Driver/Src/stm32l4xx_hal_pwr_ex.c ****       __HAL_PWR_PVM2_EXTI_DISABLE_RISING_EDGE();
1021:/home/barnecle/STM32Cube/Repository/STM32Cube_FW_L4_V1.17.1/Drivers/STM32L4xx_HAL_Driver/Src/stm32l4xx_hal_pwr_ex.c **** 
1022:/home/barnecle/STM32Cube/Repository/STM32Cube_FW_L4_V1.17.1/Drivers/STM32L4xx_HAL_Driver/Src/stm32l4xx_hal_pwr_ex.c ****       /* Configure interrupt mode */
1023:/home/barnecle/STM32Cube/Repository/STM32Cube_FW_L4_V1.17.1/Drivers/STM32L4xx_HAL_Driver/Src/stm32l4xx_hal_pwr_ex.c ****       if((sConfigPVM->Mode & PVM_MODE_IT) == PVM_MODE_IT)
1024:/home/barnecle/STM32Cube/Repository/STM32Cube_FW_L4_V1.17.1/Drivers/STM32L4xx_HAL_Driver/Src/stm32l4xx_hal_pwr_ex.c ****       {
1025:/home/barnecle/STM32Cube/Repository/STM32Cube_FW_L4_V1.17.1/Drivers/STM32L4xx_HAL_Driver/Src/stm32l4xx_hal_pwr_ex.c ****         __HAL_PWR_PVM2_EXTI_ENABLE_IT();
1026:/home/barnecle/STM32Cube/Repository/STM32Cube_FW_L4_V1.17.1/Drivers/STM32L4xx_HAL_Driver/Src/stm32l4xx_hal_pwr_ex.c ****       }
1027:/home/barnecle/STM32Cube/Repository/STM32Cube_FW_L4_V1.17.1/Drivers/STM32L4xx_HAL_Driver/Src/stm32l4xx_hal_pwr_ex.c **** 
1028:/home/barnecle/STM32Cube/Repository/STM32Cube_FW_L4_V1.17.1/Drivers/STM32L4xx_HAL_Driver/Src/stm32l4xx_hal_pwr_ex.c ****       /* Configure event mode */
1029:/home/barnecle/STM32Cube/Repository/STM32Cube_FW_L4_V1.17.1/Drivers/STM32L4xx_HAL_Driver/Src/stm32l4xx_hal_pwr_ex.c ****       if((sConfigPVM->Mode & PVM_MODE_EVT) == PVM_MODE_EVT)
1030:/home/barnecle/STM32Cube/Repository/STM32Cube_FW_L4_V1.17.1/Drivers/STM32L4xx_HAL_Driver/Src/stm32l4xx_hal_pwr_ex.c ****       {
1031:/home/barnecle/STM32Cube/Repository/STM32Cube_FW_L4_V1.17.1/Drivers/STM32L4xx_HAL_Driver/Src/stm32l4xx_hal_pwr_ex.c ****         __HAL_PWR_PVM2_EXTI_ENABLE_EVENT();
1032:/home/barnecle/STM32Cube/Repository/STM32Cube_FW_L4_V1.17.1/Drivers/STM32L4xx_HAL_Driver/Src/stm32l4xx_hal_pwr_ex.c ****       }
1033:/home/barnecle/STM32Cube/Repository/STM32Cube_FW_L4_V1.17.1/Drivers/STM32L4xx_HAL_Driver/Src/stm32l4xx_hal_pwr_ex.c **** 
1034:/home/barnecle/STM32Cube/Repository/STM32Cube_FW_L4_V1.17.1/Drivers/STM32L4xx_HAL_Driver/Src/stm32l4xx_hal_pwr_ex.c ****       /* Configure the edge */
1035:/home/barnecle/STM32Cube/Repository/STM32Cube_FW_L4_V1.17.1/Drivers/STM32L4xx_HAL_Driver/Src/stm32l4xx_hal_pwr_ex.c ****       if((sConfigPVM->Mode & PVM_RISING_EDGE) == PVM_RISING_EDGE)
1036:/home/barnecle/STM32Cube/Repository/STM32Cube_FW_L4_V1.17.1/Drivers/STM32L4xx_HAL_Driver/Src/stm32l4xx_hal_pwr_ex.c ****       {
1037:/home/barnecle/STM32Cube/Repository/STM32Cube_FW_L4_V1.17.1/Drivers/STM32L4xx_HAL_Driver/Src/stm32l4xx_hal_pwr_ex.c ****         __HAL_PWR_PVM2_EXTI_ENABLE_RISING_EDGE();
1038:/home/barnecle/STM32Cube/Repository/STM32Cube_FW_L4_V1.17.1/Drivers/STM32L4xx_HAL_Driver/Src/stm32l4xx_hal_pwr_ex.c ****       }
1039:/home/barnecle/STM32Cube/Repository/STM32Cube_FW_L4_V1.17.1/Drivers/STM32L4xx_HAL_Driver/Src/stm32l4xx_hal_pwr_ex.c **** 
1040:/home/barnecle/STM32Cube/Repository/STM32Cube_FW_L4_V1.17.1/Drivers/STM32L4xx_HAL_Driver/Src/stm32l4xx_hal_pwr_ex.c ****       if((sConfigPVM->Mode & PVM_FALLING_EDGE) == PVM_FALLING_EDGE)
1041:/home/barnecle/STM32Cube/Repository/STM32Cube_FW_L4_V1.17.1/Drivers/STM32L4xx_HAL_Driver/Src/stm32l4xx_hal_pwr_ex.c ****       {
1042:/home/barnecle/STM32Cube/Repository/STM32Cube_FW_L4_V1.17.1/Drivers/STM32L4xx_HAL_Driver/Src/stm32l4xx_hal_pwr_ex.c ****         __HAL_PWR_PVM2_EXTI_ENABLE_FALLING_EDGE();
1043:/home/barnecle/STM32Cube/Repository/STM32Cube_FW_L4_V1.17.1/Drivers/STM32L4xx_HAL_Driver/Src/stm32l4xx_hal_pwr_ex.c ****       }
1044:/home/barnecle/STM32Cube/Repository/STM32Cube_FW_L4_V1.17.1/Drivers/STM32L4xx_HAL_Driver/Src/stm32l4xx_hal_pwr_ex.c ****       break;
1045:/home/barnecle/STM32Cube/Repository/STM32Cube_FW_L4_V1.17.1/Drivers/STM32L4xx_HAL_Driver/Src/stm32l4xx_hal_pwr_ex.c **** #endif /* PWR_CR2_PVME2 */
1046:/home/barnecle/STM32Cube/Repository/STM32Cube_FW_L4_V1.17.1/Drivers/STM32L4xx_HAL_Driver/Src/stm32l4xx_hal_pwr_ex.c **** 
1047:/home/barnecle/STM32Cube/Repository/STM32Cube_FW_L4_V1.17.1/Drivers/STM32L4xx_HAL_Driver/Src/stm32l4xx_hal_pwr_ex.c ****     case PWR_PVM_3:
1048:/home/barnecle/STM32Cube/Repository/STM32Cube_FW_L4_V1.17.1/Drivers/STM32L4xx_HAL_Driver/Src/stm32l4xx_hal_pwr_ex.c ****       /* Clear any previous config. Keep it clear if no event or IT mode is selected */
1049:/home/barnecle/STM32Cube/Repository/STM32Cube_FW_L4_V1.17.1/Drivers/STM32L4xx_HAL_Driver/Src/stm32l4xx_hal_pwr_ex.c ****       __HAL_PWR_PVM3_EXTI_DISABLE_EVENT();
 1447              		.loc 1 1049 7 is_stmt 1 view .LVU294
 1448 0080 394B     		ldr	r3, .L142
 1449 0082 5A6A     		ldr	r2, [r3, #36]
 1450 0084 22F02002 		bic	r2, r2, #32
 1451 0088 5A62     		str	r2, [r3, #36]
1050:/home/barnecle/STM32Cube/Repository/STM32Cube_FW_L4_V1.17.1/Drivers/STM32L4xx_HAL_Driver/Src/stm32l4xx_hal_pwr_ex.c ****       __HAL_PWR_PVM3_EXTI_DISABLE_IT();
 1452              		.loc 1 1050 7 view .LVU295
 1453 008a 1A6A     		ldr	r2, [r3, #32]
 1454 008c 22F02002 		bic	r2, r2, #32
 1455 0090 1A62     		str	r2, [r3, #32]
1051:/home/barnecle/STM32Cube/Repository/STM32Cube_FW_L4_V1.17.1/Drivers/STM32L4xx_HAL_Driver/Src/stm32l4xx_hal_pwr_ex.c ****       __HAL_PWR_PVM3_EXTI_DISABLE_FALLING_EDGE();
ARM GAS  /tmp/ccNJjxjx.s 			page 45


 1456              		.loc 1 1051 7 view .LVU296
 1457 0092 DA6A     		ldr	r2, [r3, #44]
 1458 0094 22F02002 		bic	r2, r2, #32
 1459 0098 DA62     		str	r2, [r3, #44]
1052:/home/barnecle/STM32Cube/Repository/STM32Cube_FW_L4_V1.17.1/Drivers/STM32L4xx_HAL_Driver/Src/stm32l4xx_hal_pwr_ex.c ****       __HAL_PWR_PVM3_EXTI_DISABLE_RISING_EDGE();
 1460              		.loc 1 1052 7 view .LVU297
 1461 009a 9A6A     		ldr	r2, [r3, #40]
 1462 009c 22F02002 		bic	r2, r2, #32
 1463 00a0 9A62     		str	r2, [r3, #40]
1053:/home/barnecle/STM32Cube/Repository/STM32Cube_FW_L4_V1.17.1/Drivers/STM32L4xx_HAL_Driver/Src/stm32l4xx_hal_pwr_ex.c **** 
1054:/home/barnecle/STM32Cube/Repository/STM32Cube_FW_L4_V1.17.1/Drivers/STM32L4xx_HAL_Driver/Src/stm32l4xx_hal_pwr_ex.c ****       /* Configure interrupt mode */
1055:/home/barnecle/STM32Cube/Repository/STM32Cube_FW_L4_V1.17.1/Drivers/STM32L4xx_HAL_Driver/Src/stm32l4xx_hal_pwr_ex.c ****       if((sConfigPVM->Mode & PVM_MODE_IT) == PVM_MODE_IT)
 1464              		.loc 1 1055 7 view .LVU298
 1465              		.loc 1 1055 21 is_stmt 0 view .LVU299
 1466 00a2 4368     		ldr	r3, [r0, #4]
 1467              		.loc 1 1055 9 view .LVU300
 1468 00a4 13F4803F 		tst	r3, #65536
 1469 00a8 04D0     		beq	.L131
1056:/home/barnecle/STM32Cube/Repository/STM32Cube_FW_L4_V1.17.1/Drivers/STM32L4xx_HAL_Driver/Src/stm32l4xx_hal_pwr_ex.c ****       {
1057:/home/barnecle/STM32Cube/Repository/STM32Cube_FW_L4_V1.17.1/Drivers/STM32L4xx_HAL_Driver/Src/stm32l4xx_hal_pwr_ex.c ****         __HAL_PWR_PVM3_EXTI_ENABLE_IT();
 1470              		.loc 1 1057 9 is_stmt 1 view .LVU301
 1471 00aa 2F4A     		ldr	r2, .L142
 1472 00ac 136A     		ldr	r3, [r2, #32]
 1473 00ae 43F02003 		orr	r3, r3, #32
 1474 00b2 1362     		str	r3, [r2, #32]
 1475              	.L131:
1058:/home/barnecle/STM32Cube/Repository/STM32Cube_FW_L4_V1.17.1/Drivers/STM32L4xx_HAL_Driver/Src/stm32l4xx_hal_pwr_ex.c ****       }
1059:/home/barnecle/STM32Cube/Repository/STM32Cube_FW_L4_V1.17.1/Drivers/STM32L4xx_HAL_Driver/Src/stm32l4xx_hal_pwr_ex.c **** 
1060:/home/barnecle/STM32Cube/Repository/STM32Cube_FW_L4_V1.17.1/Drivers/STM32L4xx_HAL_Driver/Src/stm32l4xx_hal_pwr_ex.c ****       /* Configure event mode */
1061:/home/barnecle/STM32Cube/Repository/STM32Cube_FW_L4_V1.17.1/Drivers/STM32L4xx_HAL_Driver/Src/stm32l4xx_hal_pwr_ex.c ****       if((sConfigPVM->Mode & PVM_MODE_EVT) == PVM_MODE_EVT)
 1476              		.loc 1 1061 7 view .LVU302
 1477              		.loc 1 1061 21 is_stmt 0 view .LVU303
 1478 00b4 4368     		ldr	r3, [r0, #4]
 1479              		.loc 1 1061 9 view .LVU304
 1480 00b6 13F4003F 		tst	r3, #131072
 1481 00ba 04D0     		beq	.L132
1062:/home/barnecle/STM32Cube/Repository/STM32Cube_FW_L4_V1.17.1/Drivers/STM32L4xx_HAL_Driver/Src/stm32l4xx_hal_pwr_ex.c ****       {
1063:/home/barnecle/STM32Cube/Repository/STM32Cube_FW_L4_V1.17.1/Drivers/STM32L4xx_HAL_Driver/Src/stm32l4xx_hal_pwr_ex.c ****         __HAL_PWR_PVM3_EXTI_ENABLE_EVENT();
 1482              		.loc 1 1063 9 is_stmt 1 view .LVU305
 1483 00bc 2A4A     		ldr	r2, .L142
 1484 00be 536A     		ldr	r3, [r2, #36]
 1485 00c0 43F02003 		orr	r3, r3, #32
 1486 00c4 5362     		str	r3, [r2, #36]
 1487              	.L132:
1064:/home/barnecle/STM32Cube/Repository/STM32Cube_FW_L4_V1.17.1/Drivers/STM32L4xx_HAL_Driver/Src/stm32l4xx_hal_pwr_ex.c ****       }
1065:/home/barnecle/STM32Cube/Repository/STM32Cube_FW_L4_V1.17.1/Drivers/STM32L4xx_HAL_Driver/Src/stm32l4xx_hal_pwr_ex.c **** 
1066:/home/barnecle/STM32Cube/Repository/STM32Cube_FW_L4_V1.17.1/Drivers/STM32L4xx_HAL_Driver/Src/stm32l4xx_hal_pwr_ex.c ****       /* Configure the edge */
1067:/home/barnecle/STM32Cube/Repository/STM32Cube_FW_L4_V1.17.1/Drivers/STM32L4xx_HAL_Driver/Src/stm32l4xx_hal_pwr_ex.c ****       if((sConfigPVM->Mode & PVM_RISING_EDGE) == PVM_RISING_EDGE)
 1488              		.loc 1 1067 7 view .LVU306
 1489              		.loc 1 1067 21 is_stmt 0 view .LVU307
 1490 00c6 4368     		ldr	r3, [r0, #4]
 1491              		.loc 1 1067 9 view .LVU308
 1492 00c8 13F0010F 		tst	r3, #1
 1493 00cc 04D0     		beq	.L133
1068:/home/barnecle/STM32Cube/Repository/STM32Cube_FW_L4_V1.17.1/Drivers/STM32L4xx_HAL_Driver/Src/stm32l4xx_hal_pwr_ex.c ****       {
1069:/home/barnecle/STM32Cube/Repository/STM32Cube_FW_L4_V1.17.1/Drivers/STM32L4xx_HAL_Driver/Src/stm32l4xx_hal_pwr_ex.c ****         __HAL_PWR_PVM3_EXTI_ENABLE_RISING_EDGE();
 1494              		.loc 1 1069 9 is_stmt 1 view .LVU309
ARM GAS  /tmp/ccNJjxjx.s 			page 46


 1495 00ce 264A     		ldr	r2, .L142
 1496 00d0 936A     		ldr	r3, [r2, #40]
 1497 00d2 43F02003 		orr	r3, r3, #32
 1498 00d6 9362     		str	r3, [r2, #40]
 1499              	.L133:
1070:/home/barnecle/STM32Cube/Repository/STM32Cube_FW_L4_V1.17.1/Drivers/STM32L4xx_HAL_Driver/Src/stm32l4xx_hal_pwr_ex.c ****       }
1071:/home/barnecle/STM32Cube/Repository/STM32Cube_FW_L4_V1.17.1/Drivers/STM32L4xx_HAL_Driver/Src/stm32l4xx_hal_pwr_ex.c **** 
1072:/home/barnecle/STM32Cube/Repository/STM32Cube_FW_L4_V1.17.1/Drivers/STM32L4xx_HAL_Driver/Src/stm32l4xx_hal_pwr_ex.c ****       if((sConfigPVM->Mode & PVM_FALLING_EDGE) == PVM_FALLING_EDGE)
 1500              		.loc 1 1072 7 view .LVU310
 1501              		.loc 1 1072 21 is_stmt 0 view .LVU311
 1502 00d8 4368     		ldr	r3, [r0, #4]
 1503              		.loc 1 1072 9 view .LVU312
 1504 00da 13F0020F 		tst	r3, #2
 1505 00de 3FD0     		beq	.L139
1073:/home/barnecle/STM32Cube/Repository/STM32Cube_FW_L4_V1.17.1/Drivers/STM32L4xx_HAL_Driver/Src/stm32l4xx_hal_pwr_ex.c ****       {
1074:/home/barnecle/STM32Cube/Repository/STM32Cube_FW_L4_V1.17.1/Drivers/STM32L4xx_HAL_Driver/Src/stm32l4xx_hal_pwr_ex.c ****         __HAL_PWR_PVM3_EXTI_ENABLE_FALLING_EDGE();
 1506              		.loc 1 1074 9 is_stmt 1 view .LVU313
 1507 00e0 214A     		ldr	r2, .L142
 1508 00e2 D36A     		ldr	r3, [r2, #44]
 1509 00e4 43F02003 		orr	r3, r3, #32
 1510 00e8 D362     		str	r3, [r2, #44]
 969:/home/barnecle/STM32Cube/Repository/STM32Cube_FW_L4_V1.17.1/Drivers/STM32L4xx_HAL_Driver/Src/stm32l4xx_hal_pwr_ex.c **** 
 1511              		.loc 1 969 21 is_stmt 0 view .LVU314
 1512 00ea 0020     		movs	r0, #0
 1513              	.LVL93:
 969:/home/barnecle/STM32Cube/Repository/STM32Cube_FW_L4_V1.17.1/Drivers/STM32L4xx_HAL_Driver/Src/stm32l4xx_hal_pwr_ex.c **** 
 1514              		.loc 1 969 21 view .LVU315
 1515 00ec 7047     		bx	lr
 1516              	.LVL94:
 1517              	.L126:
1075:/home/barnecle/STM32Cube/Repository/STM32Cube_FW_L4_V1.17.1/Drivers/STM32L4xx_HAL_Driver/Src/stm32l4xx_hal_pwr_ex.c ****       }
1076:/home/barnecle/STM32Cube/Repository/STM32Cube_FW_L4_V1.17.1/Drivers/STM32L4xx_HAL_Driver/Src/stm32l4xx_hal_pwr_ex.c ****       break;
1077:/home/barnecle/STM32Cube/Repository/STM32Cube_FW_L4_V1.17.1/Drivers/STM32L4xx_HAL_Driver/Src/stm32l4xx_hal_pwr_ex.c **** 
1078:/home/barnecle/STM32Cube/Repository/STM32Cube_FW_L4_V1.17.1/Drivers/STM32L4xx_HAL_Driver/Src/stm32l4xx_hal_pwr_ex.c ****     case PWR_PVM_4:
1079:/home/barnecle/STM32Cube/Repository/STM32Cube_FW_L4_V1.17.1/Drivers/STM32L4xx_HAL_Driver/Src/stm32l4xx_hal_pwr_ex.c ****       /* Clear any previous config. Keep it clear if no event or IT mode is selected */
1080:/home/barnecle/STM32Cube/Repository/STM32Cube_FW_L4_V1.17.1/Drivers/STM32L4xx_HAL_Driver/Src/stm32l4xx_hal_pwr_ex.c ****       __HAL_PWR_PVM4_EXTI_DISABLE_EVENT();
 1518              		.loc 1 1080 7 is_stmt 1 view .LVU316
 1519 00ee 1E4B     		ldr	r3, .L142
 1520 00f0 5A6A     		ldr	r2, [r3, #36]
 1521 00f2 22F04002 		bic	r2, r2, #64
 1522 00f6 5A62     		str	r2, [r3, #36]
1081:/home/barnecle/STM32Cube/Repository/STM32Cube_FW_L4_V1.17.1/Drivers/STM32L4xx_HAL_Driver/Src/stm32l4xx_hal_pwr_ex.c ****       __HAL_PWR_PVM4_EXTI_DISABLE_IT();
 1523              		.loc 1 1081 7 view .LVU317
 1524 00f8 1A6A     		ldr	r2, [r3, #32]
 1525 00fa 22F04002 		bic	r2, r2, #64
 1526 00fe 1A62     		str	r2, [r3, #32]
1082:/home/barnecle/STM32Cube/Repository/STM32Cube_FW_L4_V1.17.1/Drivers/STM32L4xx_HAL_Driver/Src/stm32l4xx_hal_pwr_ex.c ****       __HAL_PWR_PVM4_EXTI_DISABLE_FALLING_EDGE();
 1527              		.loc 1 1082 7 view .LVU318
 1528 0100 DA6A     		ldr	r2, [r3, #44]
 1529 0102 22F04002 		bic	r2, r2, #64
 1530 0106 DA62     		str	r2, [r3, #44]
1083:/home/barnecle/STM32Cube/Repository/STM32Cube_FW_L4_V1.17.1/Drivers/STM32L4xx_HAL_Driver/Src/stm32l4xx_hal_pwr_ex.c ****       __HAL_PWR_PVM4_EXTI_DISABLE_RISING_EDGE();
 1531              		.loc 1 1083 7 view .LVU319
 1532 0108 9A6A     		ldr	r2, [r3, #40]
 1533 010a 22F04002 		bic	r2, r2, #64
 1534 010e 9A62     		str	r2, [r3, #40]
1084:/home/barnecle/STM32Cube/Repository/STM32Cube_FW_L4_V1.17.1/Drivers/STM32L4xx_HAL_Driver/Src/stm32l4xx_hal_pwr_ex.c **** 
ARM GAS  /tmp/ccNJjxjx.s 			page 47


1085:/home/barnecle/STM32Cube/Repository/STM32Cube_FW_L4_V1.17.1/Drivers/STM32L4xx_HAL_Driver/Src/stm32l4xx_hal_pwr_ex.c ****       /* Configure interrupt mode */
1086:/home/barnecle/STM32Cube/Repository/STM32Cube_FW_L4_V1.17.1/Drivers/STM32L4xx_HAL_Driver/Src/stm32l4xx_hal_pwr_ex.c ****       if((sConfigPVM->Mode & PVM_MODE_IT) == PVM_MODE_IT)
 1535              		.loc 1 1086 7 view .LVU320
 1536              		.loc 1 1086 21 is_stmt 0 view .LVU321
 1537 0110 4368     		ldr	r3, [r0, #4]
 1538              		.loc 1 1086 9 view .LVU322
 1539 0112 13F4803F 		tst	r3, #65536
 1540 0116 04D0     		beq	.L134
1087:/home/barnecle/STM32Cube/Repository/STM32Cube_FW_L4_V1.17.1/Drivers/STM32L4xx_HAL_Driver/Src/stm32l4xx_hal_pwr_ex.c ****       {
1088:/home/barnecle/STM32Cube/Repository/STM32Cube_FW_L4_V1.17.1/Drivers/STM32L4xx_HAL_Driver/Src/stm32l4xx_hal_pwr_ex.c ****         __HAL_PWR_PVM4_EXTI_ENABLE_IT();
 1541              		.loc 1 1088 9 is_stmt 1 view .LVU323
 1542 0118 134A     		ldr	r2, .L142
 1543 011a 136A     		ldr	r3, [r2, #32]
 1544 011c 43F04003 		orr	r3, r3, #64
 1545 0120 1362     		str	r3, [r2, #32]
 1546              	.L134:
1089:/home/barnecle/STM32Cube/Repository/STM32Cube_FW_L4_V1.17.1/Drivers/STM32L4xx_HAL_Driver/Src/stm32l4xx_hal_pwr_ex.c ****       }
1090:/home/barnecle/STM32Cube/Repository/STM32Cube_FW_L4_V1.17.1/Drivers/STM32L4xx_HAL_Driver/Src/stm32l4xx_hal_pwr_ex.c **** 
1091:/home/barnecle/STM32Cube/Repository/STM32Cube_FW_L4_V1.17.1/Drivers/STM32L4xx_HAL_Driver/Src/stm32l4xx_hal_pwr_ex.c ****       /* Configure event mode */
1092:/home/barnecle/STM32Cube/Repository/STM32Cube_FW_L4_V1.17.1/Drivers/STM32L4xx_HAL_Driver/Src/stm32l4xx_hal_pwr_ex.c ****       if((sConfigPVM->Mode & PVM_MODE_EVT) == PVM_MODE_EVT)
 1547              		.loc 1 1092 7 view .LVU324
 1548              		.loc 1 1092 21 is_stmt 0 view .LVU325
 1549 0122 4368     		ldr	r3, [r0, #4]
 1550              		.loc 1 1092 9 view .LVU326
 1551 0124 13F4003F 		tst	r3, #131072
 1552 0128 04D0     		beq	.L135
1093:/home/barnecle/STM32Cube/Repository/STM32Cube_FW_L4_V1.17.1/Drivers/STM32L4xx_HAL_Driver/Src/stm32l4xx_hal_pwr_ex.c ****       {
1094:/home/barnecle/STM32Cube/Repository/STM32Cube_FW_L4_V1.17.1/Drivers/STM32L4xx_HAL_Driver/Src/stm32l4xx_hal_pwr_ex.c ****         __HAL_PWR_PVM4_EXTI_ENABLE_EVENT();
 1553              		.loc 1 1094 9 is_stmt 1 view .LVU327
 1554 012a 0F4A     		ldr	r2, .L142
 1555 012c 536A     		ldr	r3, [r2, #36]
 1556 012e 43F04003 		orr	r3, r3, #64
 1557 0132 5362     		str	r3, [r2, #36]
 1558              	.L135:
1095:/home/barnecle/STM32Cube/Repository/STM32Cube_FW_L4_V1.17.1/Drivers/STM32L4xx_HAL_Driver/Src/stm32l4xx_hal_pwr_ex.c ****       }
1096:/home/barnecle/STM32Cube/Repository/STM32Cube_FW_L4_V1.17.1/Drivers/STM32L4xx_HAL_Driver/Src/stm32l4xx_hal_pwr_ex.c **** 
1097:/home/barnecle/STM32Cube/Repository/STM32Cube_FW_L4_V1.17.1/Drivers/STM32L4xx_HAL_Driver/Src/stm32l4xx_hal_pwr_ex.c ****       /* Configure the edge */
1098:/home/barnecle/STM32Cube/Repository/STM32Cube_FW_L4_V1.17.1/Drivers/STM32L4xx_HAL_Driver/Src/stm32l4xx_hal_pwr_ex.c ****       if((sConfigPVM->Mode & PVM_RISING_EDGE) == PVM_RISING_EDGE)
 1559              		.loc 1 1098 7 view .LVU328
 1560              		.loc 1 1098 21 is_stmt 0 view .LVU329
 1561 0134 4368     		ldr	r3, [r0, #4]
 1562              		.loc 1 1098 9 view .LVU330
 1563 0136 13F0010F 		tst	r3, #1
 1564 013a 04D0     		beq	.L136
1099:/home/barnecle/STM32Cube/Repository/STM32Cube_FW_L4_V1.17.1/Drivers/STM32L4xx_HAL_Driver/Src/stm32l4xx_hal_pwr_ex.c ****       {
1100:/home/barnecle/STM32Cube/Repository/STM32Cube_FW_L4_V1.17.1/Drivers/STM32L4xx_HAL_Driver/Src/stm32l4xx_hal_pwr_ex.c ****         __HAL_PWR_PVM4_EXTI_ENABLE_RISING_EDGE();
 1565              		.loc 1 1100 9 is_stmt 1 view .LVU331
 1566 013c 0A4A     		ldr	r2, .L142
 1567 013e 936A     		ldr	r3, [r2, #40]
 1568 0140 43F04003 		orr	r3, r3, #64
 1569 0144 9362     		str	r3, [r2, #40]
 1570              	.L136:
1101:/home/barnecle/STM32Cube/Repository/STM32Cube_FW_L4_V1.17.1/Drivers/STM32L4xx_HAL_Driver/Src/stm32l4xx_hal_pwr_ex.c ****       }
1102:/home/barnecle/STM32Cube/Repository/STM32Cube_FW_L4_V1.17.1/Drivers/STM32L4xx_HAL_Driver/Src/stm32l4xx_hal_pwr_ex.c **** 
1103:/home/barnecle/STM32Cube/Repository/STM32Cube_FW_L4_V1.17.1/Drivers/STM32L4xx_HAL_Driver/Src/stm32l4xx_hal_pwr_ex.c ****       if((sConfigPVM->Mode & PVM_FALLING_EDGE) == PVM_FALLING_EDGE)
 1571              		.loc 1 1103 7 view .LVU332
 1572              		.loc 1 1103 21 is_stmt 0 view .LVU333
ARM GAS  /tmp/ccNJjxjx.s 			page 48


 1573 0146 4368     		ldr	r3, [r0, #4]
 1574              		.loc 1 1103 9 view .LVU334
 1575 0148 13F0020F 		tst	r3, #2
 1576 014c 0AD0     		beq	.L140
1104:/home/barnecle/STM32Cube/Repository/STM32Cube_FW_L4_V1.17.1/Drivers/STM32L4xx_HAL_Driver/Src/stm32l4xx_hal_pwr_ex.c ****       {
1105:/home/barnecle/STM32Cube/Repository/STM32Cube_FW_L4_V1.17.1/Drivers/STM32L4xx_HAL_Driver/Src/stm32l4xx_hal_pwr_ex.c ****         __HAL_PWR_PVM4_EXTI_ENABLE_FALLING_EDGE();
 1577              		.loc 1 1105 9 is_stmt 1 view .LVU335
 1578 014e 064A     		ldr	r2, .L142
 1579 0150 D36A     		ldr	r3, [r2, #44]
 1580 0152 43F04003 		orr	r3, r3, #64
 1581 0156 D362     		str	r3, [r2, #44]
 969:/home/barnecle/STM32Cube/Repository/STM32Cube_FW_L4_V1.17.1/Drivers/STM32L4xx_HAL_Driver/Src/stm32l4xx_hal_pwr_ex.c **** 
 1582              		.loc 1 969 21 is_stmt 0 view .LVU336
 1583 0158 0020     		movs	r0, #0
 1584              	.LVL95:
 969:/home/barnecle/STM32Cube/Repository/STM32Cube_FW_L4_V1.17.1/Drivers/STM32L4xx_HAL_Driver/Src/stm32l4xx_hal_pwr_ex.c **** 
 1585              		.loc 1 969 21 view .LVU337
 1586 015a 7047     		bx	lr
 1587              	.LVL96:
 1588              	.L138:
 969:/home/barnecle/STM32Cube/Repository/STM32Cube_FW_L4_V1.17.1/Drivers/STM32L4xx_HAL_Driver/Src/stm32l4xx_hal_pwr_ex.c **** 
 1589              		.loc 1 969 21 view .LVU338
 1590 015c 0020     		movs	r0, #0
 1591              	.LVL97:
 969:/home/barnecle/STM32Cube/Repository/STM32Cube_FW_L4_V1.17.1/Drivers/STM32L4xx_HAL_Driver/Src/stm32l4xx_hal_pwr_ex.c **** 
 1592              		.loc 1 969 21 view .LVU339
 1593 015e 7047     		bx	lr
 1594              	.LVL98:
 1595              	.L139:
 969:/home/barnecle/STM32Cube/Repository/STM32Cube_FW_L4_V1.17.1/Drivers/STM32L4xx_HAL_Driver/Src/stm32l4xx_hal_pwr_ex.c **** 
 1596              		.loc 1 969 21 view .LVU340
 1597 0160 0020     		movs	r0, #0
 1598              	.LVL99:
 969:/home/barnecle/STM32Cube/Repository/STM32Cube_FW_L4_V1.17.1/Drivers/STM32L4xx_HAL_Driver/Src/stm32l4xx_hal_pwr_ex.c **** 
 1599              		.loc 1 969 21 view .LVU341
 1600 0162 7047     		bx	lr
 1601              	.LVL100:
 1602              	.L140:
 969:/home/barnecle/STM32Cube/Repository/STM32Cube_FW_L4_V1.17.1/Drivers/STM32L4xx_HAL_Driver/Src/stm32l4xx_hal_pwr_ex.c **** 
 1603              		.loc 1 969 21 view .LVU342
 1604 0164 0020     		movs	r0, #0
 1605              	.LVL101:
1106:/home/barnecle/STM32Cube/Repository/STM32Cube_FW_L4_V1.17.1/Drivers/STM32L4xx_HAL_Driver/Src/stm32l4xx_hal_pwr_ex.c ****       }
1107:/home/barnecle/STM32Cube/Repository/STM32Cube_FW_L4_V1.17.1/Drivers/STM32L4xx_HAL_Driver/Src/stm32l4xx_hal_pwr_ex.c ****       break;
1108:/home/barnecle/STM32Cube/Repository/STM32Cube_FW_L4_V1.17.1/Drivers/STM32L4xx_HAL_Driver/Src/stm32l4xx_hal_pwr_ex.c **** 
1109:/home/barnecle/STM32Cube/Repository/STM32Cube_FW_L4_V1.17.1/Drivers/STM32L4xx_HAL_Driver/Src/stm32l4xx_hal_pwr_ex.c ****     default:
1110:/home/barnecle/STM32Cube/Repository/STM32Cube_FW_L4_V1.17.1/Drivers/STM32L4xx_HAL_Driver/Src/stm32l4xx_hal_pwr_ex.c ****       status = HAL_ERROR;
1111:/home/barnecle/STM32Cube/Repository/STM32Cube_FW_L4_V1.17.1/Drivers/STM32L4xx_HAL_Driver/Src/stm32l4xx_hal_pwr_ex.c ****       break;
1112:/home/barnecle/STM32Cube/Repository/STM32Cube_FW_L4_V1.17.1/Drivers/STM32L4xx_HAL_Driver/Src/stm32l4xx_hal_pwr_ex.c ****   }
1113:/home/barnecle/STM32Cube/Repository/STM32Cube_FW_L4_V1.17.1/Drivers/STM32L4xx_HAL_Driver/Src/stm32l4xx_hal_pwr_ex.c **** 
1114:/home/barnecle/STM32Cube/Repository/STM32Cube_FW_L4_V1.17.1/Drivers/STM32L4xx_HAL_Driver/Src/stm32l4xx_hal_pwr_ex.c ****   return status;
 1606              		.loc 1 1114 3 is_stmt 1 view .LVU343
1115:/home/barnecle/STM32Cube/Repository/STM32Cube_FW_L4_V1.17.1/Drivers/STM32L4xx_HAL_Driver/Src/stm32l4xx_hal_pwr_ex.c **** }
 1607              		.loc 1 1115 1 is_stmt 0 view .LVU344
 1608 0166 7047     		bx	lr
 1609              	.L143:
 1610              		.align	2
ARM GAS  /tmp/ccNJjxjx.s 			page 49


 1611              	.L142:
 1612 0168 00040140 		.word	1073808384
 1613              		.cfi_endproc
 1614              	.LFE159:
 1616              		.section	.text.HAL_PWREx_EnableLowPowerRunMode,"ax",%progbits
 1617              		.align	1
 1618              		.global	HAL_PWREx_EnableLowPowerRunMode
 1619              		.syntax unified
 1620              		.thumb
 1621              		.thumb_func
 1623              	HAL_PWREx_EnableLowPowerRunMode:
 1624              	.LFB160:
1116:/home/barnecle/STM32Cube/Repository/STM32Cube_FW_L4_V1.17.1/Drivers/STM32L4xx_HAL_Driver/Src/stm32l4xx_hal_pwr_ex.c **** 
1117:/home/barnecle/STM32Cube/Repository/STM32Cube_FW_L4_V1.17.1/Drivers/STM32L4xx_HAL_Driver/Src/stm32l4xx_hal_pwr_ex.c **** 
1118:/home/barnecle/STM32Cube/Repository/STM32Cube_FW_L4_V1.17.1/Drivers/STM32L4xx_HAL_Driver/Src/stm32l4xx_hal_pwr_ex.c **** 
1119:/home/barnecle/STM32Cube/Repository/STM32Cube_FW_L4_V1.17.1/Drivers/STM32L4xx_HAL_Driver/Src/stm32l4xx_hal_pwr_ex.c **** /**
1120:/home/barnecle/STM32Cube/Repository/STM32Cube_FW_L4_V1.17.1/Drivers/STM32L4xx_HAL_Driver/Src/stm32l4xx_hal_pwr_ex.c ****   * @brief Enter Low-power Run mode
1121:/home/barnecle/STM32Cube/Repository/STM32Cube_FW_L4_V1.17.1/Drivers/STM32L4xx_HAL_Driver/Src/stm32l4xx_hal_pwr_ex.c ****   * @note  In Low-power Run mode, all I/O pins keep the same state as in Run mode.
1122:/home/barnecle/STM32Cube/Repository/STM32Cube_FW_L4_V1.17.1/Drivers/STM32L4xx_HAL_Driver/Src/stm32l4xx_hal_pwr_ex.c ****   * @note  When Regulator is set to PWR_LOWPOWERREGULATOR_ON, the user can optionally configure the
1123:/home/barnecle/STM32Cube/Repository/STM32Cube_FW_L4_V1.17.1/Drivers/STM32L4xx_HAL_Driver/Src/stm32l4xx_hal_pwr_ex.c ****   *        Flash in power-down monde in setting the RUN_PD bit in FLASH_ACR register.
1124:/home/barnecle/STM32Cube/Repository/STM32Cube_FW_L4_V1.17.1/Drivers/STM32L4xx_HAL_Driver/Src/stm32l4xx_hal_pwr_ex.c ****   *        Additionally, the clock frequency must be reduced below 2 MHz.
1125:/home/barnecle/STM32Cube/Repository/STM32Cube_FW_L4_V1.17.1/Drivers/STM32L4xx_HAL_Driver/Src/stm32l4xx_hal_pwr_ex.c ****   *        Setting RUN_PD in FLASH_ACR then appropriately reducing the clock frequency must
1126:/home/barnecle/STM32Cube/Repository/STM32Cube_FW_L4_V1.17.1/Drivers/STM32L4xx_HAL_Driver/Src/stm32l4xx_hal_pwr_ex.c ****   *        be done before calling HAL_PWREx_EnableLowPowerRunMode() API.
